
FIGnitionPAL16.elf:     file format elf32-avr


Disassembly of section .text:

00000000 <__vectors>:
       0:	0c 94 7c 00 	jmp	0xf8	; 0xf8 <__ctors_start>
       4:	0e 94 04 06 	call	0xc08	; 0xc08 <__vector_1>
       8:	0e 94 04 06 	call	0xc08	; 0xc08 <__vector_1>
       c:	0c 94 9b 0b 	jmp	0x1736	; 0x1736 <__vector_3>
      10:	0e 94 04 06 	call	0xc08	; 0xc08 <__vector_1>
      14:	0c 94 9a 3e 	jmp	0x7d34	; 0x7d34 <__vector_5>
      18:	0e 94 04 06 	call	0xc08	; 0xc08 <__vector_1>
      1c:	0e 94 04 06 	call	0xc08	; 0xc08 <__vector_1>
      20:	0e 94 04 06 	call	0xc08	; 0xc08 <__vector_1>
      24:	0e 94 04 06 	call	0xc08	; 0xc08 <__vector_1>
      28:	0e 94 04 06 	call	0xc08	; 0xc08 <__vector_1>
      2c:	0c 94 16 03 	jmp	0x62c	; 0x62c <__vector_11>
      30:	0e 94 04 06 	call	0xc08	; 0xc08 <__vector_1>
      34:	0e 94 04 06 	call	0xc08	; 0xc08 <__vector_1>
      38:	0c 94 7c 3f 	jmp	0x7ef8	; 0x7ef8 <__vector_14>
      3c:	0c 94 2a 06 	jmp	0xc54	; 0xc54 <__vector_15>
      40:	0e 94 04 06 	call	0xc08	; 0xc08 <__vector_1>
      44:	0e 94 04 06 	call	0xc08	; 0xc08 <__vector_1>
      48:	0e 94 04 06 	call	0xc08	; 0xc08 <__vector_1>
      4c:	0e 94 04 06 	call	0xc08	; 0xc08 <__vector_1>
      50:	0e 94 04 06 	call	0xc08	; 0xc08 <__vector_1>
      54:	0e 94 04 06 	call	0xc08	; 0xc08 <__vector_1>
      58:	0e 94 04 06 	call	0xc08	; 0xc08 <__vector_1>
      5c:	0e 94 04 06 	call	0xc08	; 0xc08 <__vector_1>
      60:	0e 94 04 06 	call	0xc08	; 0xc08 <__vector_1>
      64:	0e 94 04 06 	call	0xc08	; 0xc08 <__vector_1>

00000068 <gKeyCode>:
      68:	08 d2       	rcall	.+1040   	; 0x47a <PlotHiRes+0x70>
      6a:	31 32       	cpi	r19, 0x21	; 33
      6c:	33 d2       	rcall	.+1126   	; 0x4d4 <PlotLoRes+0x40>
      6e:	34 35       	cpi	r19, 0x54	; 84
      70:	2d 0b       	sbc	r18, r29
      72:	2e de       	rcall	.-932    	; 0xfffffcd0 <__eeprom_end+0xff7efcd0>
      74:	2c 21       	and	r18, r12
      76:	3a ab       	sts	0x5a, r19
      78:	3b 22       	and	r3, r27
      7a:	09 61       	ori	r16, 0x19	; 25
      7c:	62 73       	andi	r22, 0x32	; 50
      7e:	63 64       	ori	r22, 0x43	; 67
      80:	65 73       	andi	r22, 0x35	; 53
      82:	66 07       	cpc	r22, r22
      84:	6d 6e       	ori	r22, 0xED	; 237
      86:	6f 7a       	andi	r22, 0xAF	; 175
      88:	70 71       	andi	r23, 0x10	; 16
      8a:	72 7a       	andi	r23, 0xA2	; 162
      8c:	00 c3       	rjmp	.+1536   	; 0x68e <__vector_11+0x62>
      8e:	36 37       	cpi	r19, 0x76	; 118
      90:	38 c3       	rjmp	.+1648   	; 0x702 <__vector_11+0xd6>
      92:	39 30       	cpi	r19, 0x09	; 9
      94:	2b 0a       	sbc	r2, r27
      96:	2a cd       	rjmp	.-1452   	; 0xfffffaec <__eeprom_end+0xff7efaec>
      98:	2f 24       	eor	r2, r15
      9a:	28 cd       	rjmp	.-1456   	; 0xfffffaec <__eeprom_end+0xff7efaec>
      9c:	29 3d       	cpi	r18, 0xD9	; 217
      9e:	20 67       	ori	r18, 0x70	; 112
      a0:	68 73       	andi	r22, 0x38	; 56
      a2:	69 6a       	ori	r22, 0xA9	; 169
      a4:	6b 73       	andi	r22, 0x3B	; 59
      a6:	6c 0d       	add	r22, r12
      a8:	74 75       	andi	r23, 0x54	; 84
      aa:	76 7a       	andi	r23, 0xA6	; 166
      ac:	77 78       	andi	r23, 0x87	; 135
      ae:	79 7a       	andi	r23, 0xA9	; 169
      b0:	0e 00       	.word	0x000e	; ????
      b2:	7c 40       	sbci	r23, 0x0C	; 12
      b4:	23 00       	.word	0x0023	; ????
      b6:	1b 5f       	subi	r17, 0xFB	; 251
      b8:	7e 11       	cpse	r23, r14
      ba:	7f 00       	.word	0x007f	; ????
      bc:	25 3f       	cpi	r18, 0xF5	; 245
      be:	7b 19       	sub	r23, r11
      c0:	7d 27       	eor	r23, r29
      c2:	0f 41       	sbci	r16, 0x1F	; 31
      c4:	42 53       	subi	r20, 0x32	; 50
      c6:	43 44       	sbci	r20, 0x43	; 67
      c8:	45 53       	subi	r20, 0x35	; 53
      ca:	46 1b       	sub	r20, r22
      cc:	4d 4e       	sbci	r20, 0xED	; 237
      ce:	4f 5a       	subi	r20, 0xAF	; 175
      d0:	50 51       	subi	r21, 0x10	; 16
      d2:	52 5a       	subi	r21, 0xA2	; 162
      d4:	00 00       	nop
      d6:	1c 1e       	adc	r1, r28
      d8:	1f 00       	.word	0x001f	; ????
      da:	1d 3c       	cpi	r17, 0xCD	; 205
      dc:	3e 10       	cpse	r3, r14
      de:	5e 00       	.word	0x005e	; ????
      e0:	5c 60       	ori	r21, 0x0C	; 12
      e2:	5b 00       	.word	0x005b	; ????
      e4:	5d 26       	eor	r5, r29
      e6:	a0 47       	sbci	r26, 0x70	; 112
      e8:	48 53       	subi	r20, 0x38	; 56
      ea:	49 4a       	sbci	r20, 0xA9	; 169
      ec:	4b 53       	subi	r20, 0x3B	; 59
      ee:	4c 8d       	ldd	r20, Y+28	; 0x1c
      f0:	54 55       	subi	r21, 0x54	; 84
      f2:	56 5a       	subi	r21, 0xA6	; 166
      f4:	57 58       	subi	r21, 0x87	; 135
      f6:	59 5a       	subi	r21, 0xA9	; 169

000000f8 <__ctors_start>:
      f8:	11 24       	eor	r1, r1
      fa:	1f be       	out	0x3f, r1	; 63
      fc:	cf ef       	ldi	r28, 0xFF	; 255
      fe:	d4 e0       	ldi	r29, 0x04	; 4
     100:	de bf       	out	0x3e, r29	; 62
     102:	cd bf       	out	0x3d, r28	; 61

00000104 <__do_clear_bss>:
     104:	13 e0       	ldi	r17, 0x03	; 3
     106:	a0 e0       	ldi	r26, 0x00	; 0
     108:	b1 e0       	ldi	r27, 0x01	; 1

0000010a <do_clear_bss_loop>:
     10a:	1d 92       	st	X+, r1

0000010c <do_clear_bss_start>:
     10c:	af 3f       	cpi	r26, 0xFF	; 255
     10e:	b1 07       	cpc	r27, r17
     110:	e0 f3       	brcs	.-8      	; 0x10a <do_clear_bss_loop>
     112:	0c 94 d2 0c 	jmp	0x19a4	; 0x19a4 <main>

00000116 <SerialFlashRDSR>:
     116:	2a 98       	cbi	0x05, 2	; 5
     118:	85 e0       	ldi	r24, 0x05	; 5
     11a:	0e 94 cd 02 	call	0x59a	; 0x59a <SpiMasterTransmit>
     11e:	0e 94 d2 02 	call	0x5a4	; 0x5a4 <SpiMasterAutoReadByte>
     122:	2a 9a       	sbi	0x05, 2	; 5
     124:	08 95       	ret

00000126 <SerialFlashWaitReady>:
     126:	0e 94 8b 00 	call	0x116	; 0x116 <SerialFlashRDSR>
     12a:	80 fd       	sbrc	r24, 0
     12c:	fc cf       	rjmp	.-8      	; 0x126 <SerialFlashWaitReady>
     12e:	08 95       	ret

00000130 <SerialFlashWriteEnable>:
     130:	2a 98       	cbi	0x05, 2	; 5
     132:	86 e0       	ldi	r24, 0x06	; 6
     134:	0e 94 cd 02 	call	0x59a	; 0x59a <SpiMasterTransmit>
     138:	2a 9a       	sbi	0x05, 2	; 5
     13a:	08 95       	ret

0000013c <SerialFlashID>:
     13c:	cf 93       	push	r28
     13e:	df 93       	push	r29
     140:	2a 98       	cbi	0x05, 2	; 5
     142:	8f e9       	ldi	r24, 0x9F	; 159
     144:	0e 94 cd 02 	call	0x59a	; 0x59a <SpiMasterTransmit>
     148:	0e 94 d2 02 	call	0x5a4	; 0x5a4 <SpiMasterAutoReadByte>
     14c:	90 e0       	ldi	r25, 0x00	; 0
     14e:	8f 37       	cpi	r24, 0x7F	; 127
     150:	91 05       	cpc	r25, r1
     152:	19 f4       	brne	.+6      	; 0x15a <SerialFlashID+0x1e>
     154:	0e 94 d2 02 	call	0x5a4	; 0x5a4 <SpiMasterAutoReadByte>
     158:	90 e0       	ldi	r25, 0x00	; 0
     15a:	87 33       	cpi	r24, 0x37	; 55
     15c:	91 05       	cpc	r25, r1
     15e:	59 f4       	brne	.+22     	; 0x176 <SerialFlashID+0x3a>
     160:	0e 94 d2 02 	call	0x5a4	; 0x5a4 <SpiMasterAutoReadByte>
     164:	d8 2f       	mov	r29, r24
     166:	80 e0       	ldi	r24, 0x00	; 0
     168:	c8 2f       	mov	r28, r24
     16a:	0e 94 d2 02 	call	0x5a4	; 0x5a4 <SpiMasterAutoReadByte>
     16e:	90 e0       	ldi	r25, 0x00	; 0
     170:	8c 2b       	or	r24, r28
     172:	9d 2b       	or	r25, r29
     174:	02 c0       	rjmp	.+4      	; 0x17a <SerialFlashID+0x3e>
     176:	8f ef       	ldi	r24, 0xFF	; 255
     178:	9f ef       	ldi	r25, 0xFF	; 255
     17a:	2a 9a       	sbi	0x05, 2	; 5
     17c:	df 91       	pop	r29
     17e:	cf 91       	pop	r28
     180:	08 95       	ret

00000182 <SerialFlashGenFunc>:
     182:	1f 93       	push	r17
     184:	cf 93       	push	r28
     186:	df 93       	push	r29
     188:	0f 92       	push	r0
     18a:	cd b7       	in	r28, 0x3d	; 61
     18c:	de b7       	in	r29, 0x3e	; 62
     18e:	18 2f       	mov	r17, r24
     190:	86 2f       	mov	r24, r22
     192:	2a 98       	cbi	0x05, 2	; 5
     194:	99 83       	std	Y+1, r25	; 0x01
     196:	0e 94 cd 02 	call	0x59a	; 0x59a <SpiMasterTransmit>
     19a:	99 81       	ldd	r25, Y+1	; 0x01
     19c:	89 2f       	mov	r24, r25
     19e:	0e 94 cd 02 	call	0x59a	; 0x59a <SpiMasterTransmit>
     1a2:	81 2f       	mov	r24, r17
     1a4:	0e 94 cd 02 	call	0x59a	; 0x59a <SpiMasterTransmit>
     1a8:	80 e0       	ldi	r24, 0x00	; 0
     1aa:	0e 94 cd 02 	call	0x59a	; 0x59a <SpiMasterTransmit>
     1ae:	0f 90       	pop	r0
     1b0:	df 91       	pop	r29
     1b2:	cf 91       	pop	r28
     1b4:	1f 91       	pop	r17
     1b6:	08 95       	ret

000001b8 <SerialFlashEraseSector>:
     1b8:	0f 93       	push	r16
     1ba:	1f 93       	push	r17
     1bc:	cf 93       	push	r28
     1be:	df 93       	push	r29
     1c0:	8c 01       	movw	r16, r24
     1c2:	0e 94 9e 00 	call	0x13c	; 0x13c <SerialFlashID>
     1c6:	80 70       	andi	r24, 0x00	; 0
     1c8:	20 e2       	ldi	r18, 0x20	; 32
     1ca:	80 30       	cpi	r24, 0x00	; 0
     1cc:	92 07       	cpc	r25, r18
     1ce:	19 f0       	breq	.+6      	; 0x1d6 <SerialFlashEraseSector+0x1e>
     1d0:	c0 e2       	ldi	r28, 0x20	; 32
     1d2:	d0 e0       	ldi	r29, 0x00	; 0
     1d4:	02 c0       	rjmp	.+4      	; 0x1da <SerialFlashEraseSector+0x22>
     1d6:	c8 ed       	ldi	r28, 0xD8	; 216
     1d8:	d0 e0       	ldi	r29, 0x00	; 0
     1da:	0e 94 98 00 	call	0x130	; 0x130 <SerialFlashWriteEnable>
     1de:	c8 01       	movw	r24, r16
     1e0:	6c 2f       	mov	r22, r28
     1e2:	0e 94 c1 00 	call	0x182	; 0x182 <SerialFlashGenFunc>
     1e6:	2a 9a       	sbi	0x05, 2	; 5
     1e8:	0e 94 93 00 	call	0x126	; 0x126 <SerialFlashWaitReady>
     1ec:	df 91       	pop	r29
     1ee:	cf 91       	pop	r28
     1f0:	1f 91       	pop	r17
     1f2:	0f 91       	pop	r16
     1f4:	08 95       	ret

000001f6 <SerialFlashReadBlock>:
     1f6:	0f 93       	push	r16
     1f8:	1f 93       	push	r17
     1fa:	cf 93       	push	r28
     1fc:	df 93       	push	r29
     1fe:	8b 01       	movw	r16, r22
     200:	63 e0       	ldi	r22, 0x03	; 3
     202:	0e 94 c1 00 	call	0x182	; 0x182 <SerialFlashGenFunc>
     206:	c0 e0       	ldi	r28, 0x00	; 0
     208:	d1 e0       	ldi	r29, 0x01	; 1
     20a:	0e 94 d2 02 	call	0x5a4	; 0x5a4 <SpiMasterAutoReadByte>
     20e:	f8 01       	movw	r30, r16
     210:	81 93       	st	Z+, r24
     212:	8f 01       	movw	r16, r30
     214:	21 97       	sbiw	r28, 0x01	; 1
     216:	c9 f7       	brne	.-14     	; 0x20a <SerialFlashReadBlock+0x14>
     218:	2a 9a       	sbi	0x05, 2	; 5
     21a:	df 91       	pop	r29
     21c:	cf 91       	pop	r28
     21e:	1f 91       	pop	r17
     220:	0f 91       	pop	r16
     222:	08 95       	ret

00000224 <SerialFlashWriteBlock>:
     224:	0f 93       	push	r16
     226:	1f 93       	push	r17
     228:	cf 93       	push	r28
     22a:	df 93       	push	r29
     22c:	ec 01       	movw	r28, r24
     22e:	8b 01       	movw	r16, r22
     230:	0e 94 98 00 	call	0x130	; 0x130 <SerialFlashWriteEnable>
     234:	ce 01       	movw	r24, r28
     236:	62 e0       	ldi	r22, 0x02	; 2
     238:	0e 94 c1 00 	call	0x182	; 0x182 <SerialFlashGenFunc>
     23c:	c0 e0       	ldi	r28, 0x00	; 0
     23e:	d1 e0       	ldi	r29, 0x01	; 1
     240:	f8 01       	movw	r30, r16
     242:	81 91       	ld	r24, Z+
     244:	8f 01       	movw	r16, r30
     246:	0e 94 cd 02 	call	0x59a	; 0x59a <SpiMasterTransmit>
     24a:	21 97       	sbiw	r28, 0x01	; 1
     24c:	c9 f7       	brne	.-14     	; 0x240 <SerialFlashWriteBlock+0x1c>
     24e:	2a 9a       	sbi	0x05, 2	; 5
     250:	0e 94 93 00 	call	0x126	; 0x126 <SerialFlashWaitReady>
     254:	df 91       	pop	r29
     256:	cf 91       	pop	r28
     258:	1f 91       	pop	r17
     25a:	0f 91       	pop	r16
     25c:	08 95       	ret

0000025e <FignitionInit>:
     25e:	83 b7       	in	r24, 0x33	; 51
     260:	81 60       	ori	r24, 0x01	; 1
     262:	83 bf       	out	0x33, r24	; 51
     264:	10 92 c1 00 	sts	0x00C1, r1
     268:	80 e1       	ldi	r24, 0x10	; 16
     26a:	87 b9       	out	0x07, r24	; 7
     26c:	3d 98       	cbi	0x07, 5	; 7
     26e:	45 9a       	sbi	0x08, 5	; 8
     270:	8a b1       	in	r24, 0x0a	; 10
     272:	8e 7b       	andi	r24, 0xBE	; 190
     274:	8a b9       	out	0x0a, r24	; 10
     276:	8b b1       	in	r24, 0x0b	; 11
     278:	81 64       	ori	r24, 0x41	; 65
     27a:	8b b9       	out	0x0b, r24	; 11
     27c:	1e ba       	out	0x1e, r1	; 30
     27e:	0e 94 78 0c 	call	0x18f0	; 0x18f0 <KeyInit>
     282:	0e 94 bf 02 	call	0x57e	; 0x57e <SpiMasterInit>
     286:	0e 94 a7 02 	call	0x54e	; 0x54e <SramInit>
     28a:	10 92 6b 00 	sts	0x006B, r1
     28e:	10 92 68 00 	sts	0x0068, r1
     292:	08 95       	ret

00000294 <PrintAt>:
     294:	e6 e0       	ldi	r30, 0x06	; 6
     296:	f1 e0       	ldi	r31, 0x01	; 1
     298:	f0 9b       	sbis	0x1e, 0	; 30
     29a:	08 c0       	rjmp	.+16     	; 0x2ac <PrintAt+0x18>
     29c:	92 81       	ldd	r25, Z+2	; 0x02
     29e:	91 8b       	std	Z+17, r25	; 0x11
     2a0:	90 81       	ld	r25, Z
     2a2:	92 8b       	std	Z+18, r25	; 0x12
     2a4:	68 5c       	subi	r22, 0xC8	; 200
     2a6:	60 83       	st	Z, r22
     2a8:	88 5c       	subi	r24, 0xC8	; 200
     2aa:	08 c0       	rjmp	.+16     	; 0x2bc <PrintAt+0x28>
     2ac:	99 e1       	ldi	r25, 0x19	; 25
     2ae:	69 9f       	mul	r22, r25
     2b0:	b0 01       	movw	r22, r0
     2b2:	11 24       	eor	r1, r1
     2b4:	69 5d       	subi	r22, 0xD9	; 217
     2b6:	7e 4f       	sbci	r23, 0xFE	; 254
     2b8:	71 83       	std	Z+1, r23	; 0x01
     2ba:	60 83       	st	Z, r22
     2bc:	82 83       	std	Z+2, r24	; 0x02
     2be:	08 95       	ret

000002c0 <ScrollTo>:
     2c0:	cf 93       	push	r28
     2c2:	df 93       	push	r29
     2c4:	ec 01       	movw	r28, r24
     2c6:	14 c0       	rjmp	.+40     	; 0x2f0 <ScrollTo+0x30>
     2c8:	49 97       	sbiw	r24, 0x19	; 25
     2ca:	90 93 07 01 	sts	0x0107, r25
     2ce:	80 93 06 01 	sts	0x0106, r24
     2d2:	80 e4       	ldi	r24, 0x40	; 64
     2d4:	91 e0       	ldi	r25, 0x01	; 1
     2d6:	67 e2       	ldi	r22, 0x27	; 39
     2d8:	71 e0       	ldi	r23, 0x01	; 1
     2da:	4f e3       	ldi	r20, 0x3F	; 63
     2dc:	52 e0       	ldi	r21, 0x02	; 2
     2de:	0e 94 47 07 	call	0xe8e	; 0xe8e <__cmove>
     2e2:	86 e6       	ldi	r24, 0x66	; 102
     2e4:	93 e0       	ldi	r25, 0x03	; 3
     2e6:	69 e1       	ldi	r22, 0x19	; 25
     2e8:	70 e0       	ldi	r23, 0x00	; 0
     2ea:	40 e2       	ldi	r20, 0x20	; 32
     2ec:	0e 94 9f 07 	call	0xf3e	; 0xf3e <__fill>
     2f0:	80 91 06 01 	lds	r24, 0x0106
     2f4:	90 91 07 01 	lds	r25, 0x0107
     2f8:	8c 17       	cp	r24, r28
     2fa:	9d 07       	cpc	r25, r29
     2fc:	28 f7       	brcc	.-54     	; 0x2c8 <ScrollTo+0x8>
     2fe:	df 91       	pop	r29
     300:	cf 91       	pop	r28
     302:	08 95       	ret

00000304 <EmitWBitMap>:
     304:	90 e0       	ldi	r25, 0x00	; 0
     306:	23 e0       	ldi	r18, 0x03	; 3
     308:	88 0f       	add	r24, r24
     30a:	99 1f       	adc	r25, r25
     30c:	2a 95       	dec	r18
     30e:	e1 f7       	brne	.-8      	; 0x308 <EmitWBitMap+0x4>
     310:	8a 5c       	subi	r24, 0xCA	; 202
     312:	95 4e       	sbci	r25, 0xE5	; 229
     314:	68 e0       	ldi	r22, 0x08	; 8
     316:	78 e0       	ldi	r23, 0x08	; 8
     318:	40 e3       	ldi	r20, 0x30	; 48
     31a:	0e 94 7f 04 	call	0x8fe	; 0x8fe <BlitTile>
     31e:	80 e3       	ldi	r24, 0x30	; 48
     320:	68 e0       	ldi	r22, 0x08	; 8
     322:	78 e0       	ldi	r23, 0x08	; 8
     324:	40 e0       	ldi	r20, 0x00	; 0
     326:	20 e0       	ldi	r18, 0x00	; 0
     328:	0e 94 d7 05 	call	0xbae	; 0xbae <BlitBlts>
     32c:	80 91 08 01 	lds	r24, 0x0108
     330:	88 3d       	cpi	r24, 0xD8	; 216
     332:	60 f0       	brcs	.+24     	; 0x34c <EmitWBitMap+0x48>
     334:	80 91 06 01 	lds	r24, 0x0106
     338:	88 5f       	subi	r24, 0xF8	; 248
     33a:	80 93 06 01 	sts	0x0106, r24
     33e:	98 e3       	ldi	r25, 0x38	; 56
     340:	90 93 08 01 	sts	0x0108, r25
     344:	88 3d       	cpi	r24, 0xD8	; 216
     346:	10 f0       	brcs	.+4      	; 0x34c <EmitWBitMap+0x48>
     348:	10 92 06 01 	sts	0x0106, r1
     34c:	08 95       	ret

0000034e <EmitW>:
     34e:	cf 93       	push	r28
     350:	df 93       	push	r29
     352:	ec 01       	movw	r28, r24
     354:	f0 9b       	sbis	0x1e, 0	; 30
     356:	03 c0       	rjmp	.+6      	; 0x35e <EmitW+0x10>
     358:	0e 94 82 01 	call	0x304	; 0x304 <EmitWBitMap>
     35c:	2b c0       	rjmp	.+86     	; 0x3b4 <EmitW+0x66>
     35e:	8d 30       	cpi	r24, 0x0D	; 13
     360:	91 05       	cpc	r25, r1
     362:	29 f4       	brne	.+10     	; 0x36e <EmitW+0x20>
     364:	89 e1       	ldi	r24, 0x19	; 25
     366:	80 93 08 01 	sts	0x0108, r24
     36a:	c0 e0       	ldi	r28, 0x00	; 0
     36c:	d0 e0       	ldi	r29, 0x00	; 0
     36e:	80 91 08 01 	lds	r24, 0x0108
     372:	89 31       	cpi	r24, 0x19	; 25
     374:	58 f0       	brcs	.+22     	; 0x38c <EmitW+0x3e>
     376:	10 92 08 01 	sts	0x0108, r1
     37a:	80 91 06 01 	lds	r24, 0x0106
     37e:	90 91 07 01 	lds	r25, 0x0107
     382:	49 96       	adiw	r24, 0x19	; 25
     384:	90 93 07 01 	sts	0x0107, r25
     388:	80 93 06 01 	sts	0x0106, r24
     38c:	8f e7       	ldi	r24, 0x7F	; 127
     38e:	93 e0       	ldi	r25, 0x03	; 3
     390:	0e 94 60 01 	call	0x2c0	; 0x2c0 <ScrollTo>
     394:	20 97       	sbiw	r28, 0x00	; 0
     396:	71 f0       	breq	.+28     	; 0x3b4 <EmitW+0x66>
     398:	80 91 08 01 	lds	r24, 0x0108
     39c:	e0 91 06 01 	lds	r30, 0x0106
     3a0:	f0 91 07 01 	lds	r31, 0x0107
     3a4:	e8 0f       	add	r30, r24
     3a6:	f1 1d       	adc	r31, r1
     3a8:	c0 83       	st	Z, r28
     3aa:	80 91 08 01 	lds	r24, 0x0108
     3ae:	8f 5f       	subi	r24, 0xFF	; 255
     3b0:	80 93 08 01 	sts	0x0108, r24
     3b4:	df 91       	pop	r29
     3b6:	cf 91       	pop	r28
     3b8:	08 95       	ret

000003ba <DotHex>:
     3ba:	0f 93       	push	r16
     3bc:	1f 93       	push	r17
     3be:	cf 93       	push	r28
     3c0:	df 93       	push	r29
     3c2:	ec 01       	movw	r28, r24
     3c4:	84 e2       	ldi	r24, 0x24	; 36
     3c6:	0e 94 4c 06 	call	0xc98	; 0xc98 <Emit>
     3ca:	00 e0       	ldi	r16, 0x00	; 0
     3cc:	10 e0       	ldi	r17, 0x00	; 0
     3ce:	8d 2f       	mov	r24, r29
     3d0:	82 95       	swap	r24
     3d2:	8f 70       	andi	r24, 0x0F	; 15
     3d4:	08 2b       	or	r16, r24
     3d6:	13 30       	cpi	r17, 0x03	; 3
     3d8:	11 f0       	breq	.+4      	; 0x3de <DotHex+0x24>
     3da:	00 23       	and	r16, r16
     3dc:	31 f0       	breq	.+12     	; 0x3ea <DotHex+0x30>
     3de:	8a 30       	cpi	r24, 0x0A	; 10
     3e0:	0c f0       	brlt	.+2      	; 0x3e4 <DotHex+0x2a>
     3e2:	89 5d       	subi	r24, 0xD9	; 217
     3e4:	80 5d       	subi	r24, 0xD0	; 208
     3e6:	0e 94 4c 06 	call	0xc98	; 0xc98 <Emit>
     3ea:	34 e0       	ldi	r19, 0x04	; 4
     3ec:	cc 0f       	add	r28, r28
     3ee:	dd 1f       	adc	r29, r29
     3f0:	3a 95       	dec	r19
     3f2:	e1 f7       	brne	.-8      	; 0x3ec <DotHex+0x32>
     3f4:	1f 5f       	subi	r17, 0xFF	; 255
     3f6:	14 30       	cpi	r17, 0x04	; 4
     3f8:	51 f7       	brne	.-44     	; 0x3ce <DotHex+0x14>
     3fa:	80 e2       	ldi	r24, 0x20	; 32
     3fc:	0e 94 4c 06 	call	0xc98	; 0xc98 <Emit>
     400:	df 91       	pop	r29
     402:	cf 91       	pop	r28
     404:	1f 91       	pop	r17
     406:	0f 91       	pop	r16
     408:	08 95       	ret

0000040a <PlotHiRes>:
     40a:	0f 93       	push	r16
     40c:	1f 93       	push	r17
     40e:	cf 93       	push	r28
     410:	df 93       	push	r29
     412:	18 2f       	mov	r17, r24
     414:	80 3a       	cpi	r24, 0xA0	; 160
     416:	c8 f5       	brcc	.+114    	; 0x48a <PlotHiRes+0x80>
     418:	60 3a       	cpi	r22, 0xA0	; 160
     41a:	b8 f5       	brcc	.+110    	; 0x48a <PlotHiRes+0x80>
     41c:	68 5c       	subi	r22, 0xC8	; 200
     41e:	88 5c       	subi	r24, 0xC8	; 200
     420:	0e 94 71 04 	call	0x8e2	; 0x8e2 <BlitSramAddr>
     424:	ec 01       	movw	r28, r24
     426:	81 2f       	mov	r24, r17
     428:	0e 94 5a 04 	call	0x8b4	; 0x8b4 <BlitQuickShifter>
     42c:	0a b4       	in	r0, 0x2a	; 42
     42e:	01 fc       	sbrc	r0, 1
     430:	02 c0       	rjmp	.+4      	; 0x436 <PlotHiRes+0x2c>
     432:	00 e0       	ldi	r16, 0x00	; 0
     434:	01 c0       	rjmp	.+2      	; 0x438 <PlotHiRes+0x2e>
     436:	08 2f       	mov	r16, r24
     438:	0a b4       	in	r0, 0x2a	; 42
     43a:	00 fc       	sbrc	r0, 0
     43c:	02 c0       	rjmp	.+4      	; 0x442 <PlotHiRes+0x38>
     43e:	10 e0       	ldi	r17, 0x00	; 0
     440:	01 c0       	rjmp	.+2      	; 0x444 <PlotHiRes+0x3a>
     442:	18 2f       	mov	r17, r24
     444:	84 e0       	ldi	r24, 0x04	; 4
     446:	0d b4       	in	r0, 0x2d	; 45
     448:	07 fc       	sbrc	r0, 7
     44a:	02 c0       	rjmp	.+4      	; 0x450 <PlotHiRes+0x46>
     44c:	81 50       	subi	r24, 0x01	; 1
     44e:	d9 f7       	brne	.-10     	; 0x446 <PlotHiRes+0x3c>
     450:	8e b5       	in	r24, 0x2e	; 46
     452:	29 9a       	sbi	0x05, 1	; 5
     454:	00 00       	nop
     456:	29 98       	cbi	0x05, 1	; 5
     458:	ce 01       	movw	r24, r28
     45a:	0e 94 b0 02 	call	0x560	; 0x560 <SramAbsBeginRd>
     45e:	0d b4       	in	r0, 0x2d	; 45
     460:	07 fe       	sbrs	r0, 7
     462:	fd cf       	rjmp	.-6      	; 0x45e <PlotHiRes+0x54>
     464:	9e b5       	in	r25, 0x2e	; 46
     466:	81 2f       	mov	r24, r17
     468:	89 2b       	or	r24, r25
     46a:	20 2f       	mov	r18, r16
     46c:	20 95       	com	r18
     46e:	82 23       	and	r24, r18
     470:	90 95       	com	r25
     472:	90 23       	and	r25, r16
     474:	91 23       	and	r25, r17
     476:	89 2b       	or	r24, r25
     478:	80 93 09 01 	sts	0x0109, r24
     47c:	ce 01       	movw	r24, r28
     47e:	69 e0       	ldi	r22, 0x09	; 9
     480:	71 e0       	ldi	r23, 0x01	; 1
     482:	41 e0       	ldi	r20, 0x01	; 1
     484:	50 e0       	ldi	r21, 0x00	; 0
     486:	0e 94 81 06 	call	0xd02	; 0xd02 <WriteMemNoWait>
     48a:	df 91       	pop	r29
     48c:	cf 91       	pop	r28
     48e:	1f 91       	pop	r17
     490:	0f 91       	pop	r16
     492:	08 95       	ret

00000494 <PlotLoRes>:
     494:	82 33       	cpi	r24, 0x32	; 50
     496:	08 f0       	brcs	.+2      	; 0x49a <PlotLoRes+0x6>
     498:	51 c0       	rjmp	.+162    	; 0x53c <__stack+0x3d>
     49a:	60 33       	cpi	r22, 0x30	; 48
     49c:	08 f0       	brcs	.+2      	; 0x4a0 <PlotLoRes+0xc>
     49e:	4e c0       	rjmp	.+156    	; 0x53c <__stack+0x3d>
     4a0:	26 2f       	mov	r18, r22
     4a2:	26 95       	lsr	r18
     4a4:	99 e1       	ldi	r25, 0x19	; 25
     4a6:	29 9f       	mul	r18, r25
     4a8:	90 01       	movw	r18, r0
     4aa:	11 24       	eor	r1, r1
     4ac:	98 2f       	mov	r25, r24
     4ae:	96 95       	lsr	r25
     4b0:	29 0f       	add	r18, r25
     4b2:	31 1d       	adc	r19, r1
     4b4:	60 ff       	sbrs	r22, 0
     4b6:	02 c0       	rjmp	.+4      	; 0x4bc <PlotLoRes+0x28>
     4b8:	98 e0       	ldi	r25, 0x08	; 8
     4ba:	01 c0       	rjmp	.+2      	; 0x4be <PlotLoRes+0x2a>
     4bc:	92 e0       	ldi	r25, 0x02	; 2
     4be:	80 fd       	sbrc	r24, 0
     4c0:	96 95       	lsr	r25
     4c2:	0a b4       	in	r0, 0x2a	; 42
     4c4:	01 fc       	sbrc	r0, 1
     4c6:	02 c0       	rjmp	.+4      	; 0x4cc <PlotLoRes+0x38>
     4c8:	50 e0       	ldi	r21, 0x00	; 0
     4ca:	01 c0       	rjmp	.+2      	; 0x4ce <PlotLoRes+0x3a>
     4cc:	59 2f       	mov	r21, r25
     4ce:	0a b4       	in	r0, 0x2a	; 42
     4d0:	00 fc       	sbrc	r0, 0
     4d2:	02 c0       	rjmp	.+4      	; 0x4d8 <PlotLoRes+0x44>
     4d4:	40 e0       	ldi	r20, 0x00	; 0
     4d6:	01 c0       	rjmp	.+2      	; 0x4da <PlotLoRes+0x46>
     4d8:	49 2f       	mov	r20, r25
     4da:	f9 01       	movw	r30, r18
     4dc:	e9 5d       	subi	r30, 0xD9	; 217
     4de:	fe 4f       	sbci	r31, 0xFE	; 254
     4e0:	80 81       	ld	r24, Z
     4e2:	80 3a       	cpi	r24, 0xA0	; 160
     4e4:	21 f0       	breq	.+8      	; 0x4ee <PlotLoRes+0x5a>
     4e6:	28 2f       	mov	r18, r24
     4e8:	28 77       	andi	r18, 0x78	; 120
     4ea:	20 31       	cpi	r18, 0x10	; 16
     4ec:	21 f4       	brne	.+8      	; 0x4f6 <PlotLoRes+0x62>
     4ee:	87 78       	andi	r24, 0x87	; 135
     4f0:	87 ff       	sbrs	r24, 7
     4f2:	05 c0       	rjmp	.+10     	; 0x4fe <PlotLoRes+0x6a>
     4f4:	02 c0       	rjmp	.+4      	; 0x4fa <PlotLoRes+0x66>
     4f6:	80 e0       	ldi	r24, 0x00	; 0
     4f8:	02 c0       	rjmp	.+4      	; 0x4fe <PlotLoRes+0x6a>
     4fa:	2f e8       	ldi	r18, 0x8F	; 143
     4fc:	82 27       	eor	r24, r18
     4fe:	39 2f       	mov	r19, r25
     500:	30 95       	com	r19
     502:	35 23       	and	r19, r21
     504:	24 2f       	mov	r18, r20
     506:	25 2b       	or	r18, r21
     508:	20 95       	com	r18
     50a:	23 2b       	or	r18, r19
     50c:	28 23       	and	r18, r24
     50e:	35 2f       	mov	r19, r21
     510:	30 95       	com	r19
     512:	39 23       	and	r19, r25
     514:	34 23       	and	r19, r20
     516:	23 2b       	or	r18, r19
     518:	94 23       	and	r25, r20
     51a:	80 95       	com	r24
     51c:	98 23       	and	r25, r24
     51e:	29 2b       	or	r18, r25
     520:	23 ff       	sbrs	r18, 3
     522:	02 c0       	rjmp	.+4      	; 0x528 <__stack+0x29>
     524:	8f e8       	ldi	r24, 0x8F	; 143
     526:	28 27       	eor	r18, r24
     528:	32 2f       	mov	r19, r18
     52a:	30 5f       	subi	r19, 0xF0	; 240
     52c:	83 2f       	mov	r24, r19
     52e:	90 e0       	ldi	r25, 0x00	; 0
     530:	87 70       	andi	r24, 0x07	; 7
     532:	90 70       	andi	r25, 0x00	; 0
     534:	00 97       	sbiw	r24, 0x00	; 0
     536:	09 f4       	brne	.+2      	; 0x53a <__stack+0x3b>
     538:	30 5f       	subi	r19, 0xF0	; 240
     53a:	30 83       	st	Z, r19
     53c:	08 95       	ret

0000053e <Plot>:
     53e:	f0 9b       	sbis	0x1e, 0	; 30
     540:	03 c0       	rjmp	.+6      	; 0x548 <Plot+0xa>
     542:	0e 94 05 02 	call	0x40a	; 0x40a <PlotHiRes>
     546:	08 95       	ret
     548:	0e 94 4a 02 	call	0x494	; 0x494 <PlotLoRes>
     54c:	08 95       	ret

0000054e <SramInit>:
     54e:	29 98       	cbi	0x05, 1	; 5
     550:	81 e0       	ldi	r24, 0x01	; 1
     552:	0e 94 cd 02 	call	0x59a	; 0x59a <SpiMasterTransmit>
     556:	81 e4       	ldi	r24, 0x41	; 65
     558:	0e 94 cd 02 	call	0x59a	; 0x59a <SpiMasterTransmit>
     55c:	29 9a       	sbi	0x05, 1	; 5
     55e:	08 95       	ret

00000560 <SramAbsBeginRd>:
     560:	23 e0       	ldi	r18, 0x03	; 3
     562:	2e bd       	out	0x2e, r18	; 46
     564:	0d b4       	in	r0, 0x2d	; 45
     566:	07 fe       	sbrs	r0, 7
     568:	fd cf       	rjmp	.-6      	; 0x564 <SramAbsBeginRd+0x4>
     56a:	9e bd       	out	0x2e, r25	; 46
     56c:	0d b4       	in	r0, 0x2d	; 45
     56e:	07 fe       	sbrs	r0, 7
     570:	fd cf       	rjmp	.-6      	; 0x56c <SramAbsBeginRd+0xc>
     572:	8e bd       	out	0x2e, r24	; 46
     574:	0d b4       	in	r0, 0x2d	; 45
     576:	07 fe       	sbrs	r0, 7
     578:	fd cf       	rjmp	.-6      	; 0x574 <SramAbsBeginRd+0x14>
     57a:	1e bc       	out	0x2e, r1	; 46
     57c:	08 95       	ret

0000057e <SpiMasterInit>:
     57e:	84 b1       	in	r24, 0x04	; 4
     580:	81 7c       	andi	r24, 0xC1	; 193
     582:	8e 62       	ori	r24, 0x2E	; 46
     584:	84 b9       	out	0x04, r24	; 4
     586:	85 b1       	in	r24, 0x05	; 5
     588:	81 7c       	andi	r24, 0xC1	; 193
     58a:	86 60       	ori	r24, 0x06	; 6
     58c:	85 b9       	out	0x05, r24	; 5
     58e:	8d b5       	in	r24, 0x2d	; 45
     590:	81 60       	ori	r24, 0x01	; 1
     592:	8d bd       	out	0x2d, r24	; 45
     594:	80 e5       	ldi	r24, 0x50	; 80
     596:	8c bd       	out	0x2c, r24	; 44
     598:	08 95       	ret

0000059a <SpiMasterTransmit>:
     59a:	8e bd       	out	0x2e, r24	; 46
     59c:	0d b4       	in	r0, 0x2d	; 45
     59e:	07 fe       	sbrs	r0, 7
     5a0:	fd cf       	rjmp	.-6      	; 0x59c <SpiMasterTransmit+0x2>
     5a2:	08 95       	ret

000005a4 <SpiMasterAutoReadByte>:
     5a4:	1e bc       	out	0x2e, r1	; 46
     5a6:	0d b4       	in	r0, 0x2d	; 45
     5a8:	07 fe       	sbrs	r0, 7
     5aa:	fd cf       	rjmp	.-6      	; 0x5a6 <SpiMasterAutoReadByte+0x2>
     5ac:	8e b5       	in	r24, 0x2e	; 46
     5ae:	08 95       	ret

000005b0 <SpiDrv>:
     5b0:	ef 92       	push	r14
     5b2:	ff 92       	push	r15
     5b4:	0f 93       	push	r16
     5b6:	1f 93       	push	r17
     5b8:	cf 93       	push	r28
     5ba:	df 93       	push	r29
     5bc:	ec 01       	movw	r28, r24
     5be:	0e 94 ce 07 	call	0xf9c	; 0xf9c <VMWaitAndDisableRam>
     5c2:	e8 81       	ld	r30, Y
     5c4:	f0 e0       	ldi	r31, 0x00	; 0
     5c6:	99 81       	ldd	r25, Y+1	; 0x01
     5c8:	90 95       	com	r25
     5ca:	80 81       	ld	r24, Z
     5cc:	89 23       	and	r24, r25
     5ce:	80 83       	st	Z, r24
     5d0:	0c 81       	ldd	r16, Y+4	; 0x04
     5d2:	1d 81       	ldd	r17, Y+5	; 0x05
     5d4:	ea 80       	ldd	r14, Y+2	; 0x02
     5d6:	fb 80       	ldd	r15, Y+3	; 0x03
     5d8:	07 c0       	rjmp	.+14     	; 0x5e8 <SpiDrv+0x38>
     5da:	01 50       	subi	r16, 0x01	; 1
     5dc:	10 40       	sbci	r17, 0x00	; 0
     5de:	f7 01       	movw	r30, r14
     5e0:	81 91       	ld	r24, Z+
     5e2:	7f 01       	movw	r14, r30
     5e4:	0e 94 cd 02 	call	0x59a	; 0x59a <SpiMasterTransmit>
     5e8:	01 15       	cp	r16, r1
     5ea:	11 05       	cpc	r17, r1
     5ec:	b1 f7       	brne	.-20     	; 0x5da <SpiDrv+0x2a>
     5ee:	08 85       	ldd	r16, Y+8	; 0x08
     5f0:	19 85       	ldd	r17, Y+9	; 0x09
     5f2:	ee 80       	ldd	r14, Y+6	; 0x06
     5f4:	ff 80       	ldd	r15, Y+7	; 0x07
     5f6:	07 c0       	rjmp	.+14     	; 0x606 <SpiDrv+0x56>
     5f8:	01 50       	subi	r16, 0x01	; 1
     5fa:	10 40       	sbci	r17, 0x00	; 0
     5fc:	0e 94 d2 02 	call	0x5a4	; 0x5a4 <SpiMasterAutoReadByte>
     600:	f7 01       	movw	r30, r14
     602:	81 93       	st	Z+, r24
     604:	7f 01       	movw	r14, r30
     606:	01 15       	cp	r16, r1
     608:	11 05       	cpc	r17, r1
     60a:	b1 f7       	brne	.-20     	; 0x5f8 <SpiDrv+0x48>
     60c:	e8 81       	ld	r30, Y
     60e:	f0 e0       	ldi	r31, 0x00	; 0
     610:	80 81       	ld	r24, Z
     612:	99 81       	ldd	r25, Y+1	; 0x01
     614:	89 2b       	or	r24, r25
     616:	80 83       	st	Z, r24
     618:	df 91       	pop	r29
     61a:	cf 91       	pop	r28
     61c:	1f 91       	pop	r17
     61e:	0f 91       	pop	r16
     620:	ff 90       	pop	r15
     622:	ef 90       	pop	r14
     624:	08 95       	ret

00000626 <ForthBoot>:
     626:	8b e9       	ldi	r24, 0x9B	; 155
     628:	9a e6       	ldi	r25, 0x6A	; 106
     62a:	08 95       	ret

0000062c <__vector_11>:
     62c:	1f 92       	push	r1
     62e:	0f 92       	push	r0
     630:	0f b6       	in	r0, 0x3f	; 63
     632:	0f 92       	push	r0
     634:	11 24       	eor	r1, r1
     636:	2f 93       	push	r18
     638:	8f 93       	push	r24
     63a:	9f 93       	push	r25
     63c:	80 91 26 01 	lds	r24, 0x0126
     640:	87 30       	cpi	r24, 0x07	; 7
     642:	09 f0       	breq	.+2      	; 0x646 <__vector_11+0x1a>
     644:	3f c0       	rjmp	.+126    	; 0x6c4 <__vector_11+0x98>
     646:	0e 94 87 0a 	call	0x150e	; 0x150e <VideoScan>
     64a:	80 91 23 01 	lds	r24, 0x0123
     64e:	88 23       	and	r24, r24
     650:	71 f5       	brne	.+92     	; 0x6ae <__vector_11+0x82>
     652:	80 91 22 01 	lds	r24, 0x0122
     656:	87 fd       	sbrc	r24, 7
     658:	07 c0       	rjmp	.+14     	; 0x668 <__vector_11+0x3c>
     65a:	80 91 88 00 	lds	r24, 0x0088
     65e:	90 91 89 00 	lds	r25, 0x0089
     662:	81 51       	subi	r24, 0x11	; 17
     664:	98 4d       	sbci	r25, 0xD8	; 216
     666:	06 c0       	rjmp	.+12     	; 0x674 <__vector_11+0x48>
     668:	80 91 88 00 	lds	r24, 0x0088
     66c:	90 91 89 00 	lds	r25, 0x0089
     670:	89 53       	subi	r24, 0x39	; 57
     672:	92 4e       	sbci	r25, 0xE2	; 226
     674:	90 93 89 00 	sts	0x0089, r25
     678:	80 93 88 00 	sts	0x0088, r24
     67c:	f0 9b       	sbis	0x1e, 0	; 30
     67e:	0a c0       	rjmp	.+20     	; 0x694 <__vector_11+0x68>
     680:	80 91 88 00 	lds	r24, 0x0088
     684:	90 91 89 00 	lds	r25, 0x0089
     688:	80 50       	subi	r24, 0x00	; 0
     68a:	96 4f       	sbci	r25, 0xF6	; 246
     68c:	90 93 89 00 	sts	0x0089, r25
     690:	80 93 88 00 	sts	0x0088, r24
     694:	88 e0       	ldi	r24, 0x08	; 8
     696:	80 93 26 01 	sts	0x0126, r24
     69a:	80 91 24 01 	lds	r24, 0x0124
     69e:	90 91 25 01 	lds	r25, 0x0125
     6a2:	01 96       	adiw	r24, 0x01	; 1
     6a4:	90 93 25 01 	sts	0x0125, r25
     6a8:	80 93 24 01 	sts	0x0124, r24
     6ac:	8f c0       	rjmp	.+286    	; 0x7cc <__vector_11+0x1a0>
     6ae:	80 91 88 00 	lds	r24, 0x0088
     6b2:	90 91 89 00 	lds	r25, 0x0089
     6b6:	80 56       	subi	r24, 0x60	; 96
     6b8:	9f 4f       	sbci	r25, 0xFF	; 255
     6ba:	90 93 89 00 	sts	0x0089, r25
     6be:	80 93 88 00 	sts	0x0088, r24
     6c2:	f0 c0       	rjmp	.+480    	; 0x8a4 <__vector_11+0x278>
     6c4:	84 30       	cpi	r24, 0x04	; 4
     6c6:	09 f4       	brne	.+2      	; 0x6ca <__vector_11+0x9e>
     6c8:	5a c0       	rjmp	.+180    	; 0x77e <__vector_11+0x152>
     6ca:	85 30       	cpi	r24, 0x05	; 5
     6cc:	50 f4       	brcc	.+20     	; 0x6e2 <__vector_11+0xb6>
     6ce:	81 30       	cpi	r24, 0x01	; 1
     6d0:	69 f1       	breq	.+90     	; 0x72c <__vector_11+0x100>
     6d2:	81 30       	cpi	r24, 0x01	; 1
     6d4:	c8 f0       	brcs	.+50     	; 0x708 <__vector_11+0xdc>
     6d6:	82 30       	cpi	r24, 0x02	; 2
     6d8:	c1 f1       	breq	.+112    	; 0x74a <__vector_11+0x11e>
     6da:	83 30       	cpi	r24, 0x03	; 3
     6dc:	09 f0       	breq	.+2      	; 0x6e0 <__vector_11+0xb4>
     6de:	e2 c0       	rjmp	.+452    	; 0x8a4 <__vector_11+0x278>
     6e0:	3f c0       	rjmp	.+126    	; 0x760 <__vector_11+0x134>
     6e2:	89 30       	cpi	r24, 0x09	; 9
     6e4:	09 f4       	brne	.+2      	; 0x6e8 <__vector_11+0xbc>
     6e6:	9f c0       	rjmp	.+318    	; 0x826 <__vector_11+0x1fa>
     6e8:	8a 30       	cpi	r24, 0x0A	; 10
     6ea:	38 f4       	brcc	.+14     	; 0x6fa <__vector_11+0xce>
     6ec:	85 30       	cpi	r24, 0x05	; 5
     6ee:	09 f4       	brne	.+2      	; 0x6f2 <__vector_11+0xc6>
     6f0:	70 c0       	rjmp	.+224    	; 0x7d2 <__vector_11+0x1a6>
     6f2:	88 30       	cpi	r24, 0x08	; 8
     6f4:	09 f0       	breq	.+2      	; 0x6f8 <__vector_11+0xcc>
     6f6:	d6 c0       	rjmp	.+428    	; 0x8a4 <__vector_11+0x278>
     6f8:	89 c0       	rjmp	.+274    	; 0x80c <__vector_11+0x1e0>
     6fa:	8a 30       	cpi	r24, 0x0A	; 10
     6fc:	09 f4       	brne	.+2      	; 0x700 <__vector_11+0xd4>
     6fe:	a4 c0       	rjmp	.+328    	; 0x848 <__vector_11+0x21c>
     700:	8b 30       	cpi	r24, 0x0B	; 11
     702:	09 f0       	breq	.+2      	; 0x706 <__vector_11+0xda>
     704:	cf c0       	rjmp	.+414    	; 0x8a4 <__vector_11+0x278>
     706:	b2 c0       	rjmp	.+356    	; 0x86c <__vector_11+0x240>
     708:	8f e4       	ldi	r24, 0x4F	; 79
     70a:	80 93 b3 00 	sts	0x00B3, r24
     70e:	85 e0       	ldi	r24, 0x05	; 5
     710:	80 93 b4 00 	sts	0x00B4, r24
     714:	80 91 88 00 	lds	r24, 0x0088
     718:	90 91 89 00 	lds	r25, 0x0089
     71c:	84 5b       	subi	r24, 0xB4	; 180
     71e:	9e 4f       	sbci	r25, 0xFE	; 254
     720:	90 93 89 00 	sts	0x0089, r25
     724:	80 93 88 00 	sts	0x0088, r24
     728:	81 e0       	ldi	r24, 0x01	; 1
     72a:	ba c0       	rjmp	.+372    	; 0x8a0 <__vector_11+0x274>
     72c:	89 e4       	ldi	r24, 0x49	; 73
     72e:	80 93 b4 00 	sts	0x00B4, r24
     732:	80 91 88 00 	lds	r24, 0x0088
     736:	90 91 89 00 	lds	r25, 0x0089
     73a:	80 57       	subi	r24, 0x70	; 112
     73c:	9e 4f       	sbci	r25, 0xFE	; 254
     73e:	90 93 89 00 	sts	0x0089, r25
     742:	80 93 88 00 	sts	0x0088, r24
     746:	82 e0       	ldi	r24, 0x02	; 2
     748:	ab c0       	rjmp	.+342    	; 0x8a0 <__vector_11+0x274>
     74a:	80 91 88 00 	lds	r24, 0x0088
     74e:	90 91 89 00 	lds	r25, 0x0089
     752:	ce 96       	adiw	r24, 0x3e	; 62
     754:	90 93 89 00 	sts	0x0089, r25
     758:	80 93 88 00 	sts	0x0088, r24
     75c:	83 e0       	ldi	r24, 0x03	; 3
     75e:	a0 c0       	rjmp	.+320    	; 0x8a0 <__vector_11+0x274>
     760:	85 e0       	ldi	r24, 0x05	; 5
     762:	80 93 b4 00 	sts	0x00B4, r24
     766:	80 91 88 00 	lds	r24, 0x0088
     76a:	90 91 89 00 	lds	r25, 0x0089
     76e:	8a 56       	subi	r24, 0x6A	; 106
     770:	9e 4f       	sbci	r25, 0xFE	; 254
     772:	90 93 89 00 	sts	0x0089, r25
     776:	80 93 88 00 	sts	0x0088, r24
     77a:	84 e0       	ldi	r24, 0x04	; 4
     77c:	91 c0       	rjmp	.+290    	; 0x8a0 <__vector_11+0x274>
     77e:	8f e9       	ldi	r24, 0x9F	; 159
     780:	80 93 b3 00 	sts	0x00B3, r24
     784:	8b e0       	ldi	r24, 0x0B	; 11
     786:	80 93 b4 00 	sts	0x00B4, r24
     78a:	f0 9b       	sbis	0x1e, 0	; 30
     78c:	0f c0       	rjmp	.+30     	; 0x7ac <__vector_11+0x180>
     78e:	80 e1       	ldi	r24, 0x10	; 16
     790:	80 93 23 01 	sts	0x0123, r24
     794:	80 91 88 00 	lds	r24, 0x0088
     798:	90 91 89 00 	lds	r25, 0x0089
     79c:	84 54       	subi	r24, 0x44	; 68
     79e:	9d 4d       	sbci	r25, 0xDD	; 221
     7a0:	90 93 89 00 	sts	0x0089, r25
     7a4:	80 93 88 00 	sts	0x0088, r24
     7a8:	85 e0       	ldi	r24, 0x05	; 5
     7aa:	0d c0       	rjmp	.+26     	; 0x7c6 <__vector_11+0x19a>
     7ac:	10 92 23 01 	sts	0x0123, r1
     7b0:	80 91 88 00 	lds	r24, 0x0088
     7b4:	90 91 89 00 	lds	r25, 0x0089
     7b8:	83 53       	subi	r24, 0x33	; 51
     7ba:	92 4e       	sbci	r25, 0xE2	; 226
     7bc:	90 93 89 00 	sts	0x0089, r25
     7c0:	80 93 88 00 	sts	0x0088, r24
     7c4:	87 e0       	ldi	r24, 0x07	; 7
     7c6:	80 93 26 01 	sts	0x0126, r24
     7ca:	78 94       	sei
     7cc:	0e 94 a8 0c 	call	0x1950	; 0x1950 <KeyScan>
     7d0:	69 c0       	rjmp	.+210    	; 0x8a4 <__vector_11+0x278>
     7d2:	80 91 88 00 	lds	r24, 0x0088
     7d6:	90 91 89 00 	lds	r25, 0x0089
     7da:	8f 5e       	subi	r24, 0xEF	; 239
     7dc:	9a 4f       	sbci	r25, 0xFA	; 250
     7de:	90 93 89 00 	sts	0x0089, r25
     7e2:	80 93 88 00 	sts	0x0088, r24
     7e6:	87 e0       	ldi	r24, 0x07	; 7
     7e8:	80 93 26 01 	sts	0x0126, r24
     7ec:	80 91 6b 00 	lds	r24, 0x006B
     7f0:	82 60       	ori	r24, 0x02	; 2
     7f2:	80 93 6b 00 	sts	0x006B, r24
     7f6:	80 91 68 00 	lds	r24, 0x0068
     7fa:	81 60       	ori	r24, 0x01	; 1
     7fc:	80 93 68 00 	sts	0x0068, r24
     800:	d8 9a       	sbi	0x1b, 0	; 27
     802:	29 9b       	sbis	0x05, 1	; 5
     804:	4f c0       	rjmp	.+158    	; 0x8a4 <__vector_11+0x278>
     806:	29 98       	cbi	0x05, 1	; 5
     808:	29 9a       	sbi	0x05, 1	; 5
     80a:	4c c0       	rjmp	.+152    	; 0x8a4 <__vector_11+0x278>
     80c:	80 91 88 00 	lds	r24, 0x0088
     810:	90 91 89 00 	lds	r25, 0x0089
     814:	8c 56       	subi	r24, 0x6C	; 108
     816:	9f 4f       	sbci	r25, 0xFF	; 255
     818:	90 93 89 00 	sts	0x0089, r25
     81c:	80 93 88 00 	sts	0x0088, r24
     820:	10 92 26 01 	sts	0x0126, r1
     824:	3f c0       	rjmp	.+126    	; 0x8a4 <__vector_11+0x278>
     826:	80 91 88 00 	lds	r24, 0x0088
     82a:	90 91 89 00 	lds	r25, 0x0089
     82e:	48 96       	adiw	r24, 0x18	; 24
     830:	90 93 89 00 	sts	0x0089, r25
     834:	80 93 88 00 	sts	0x0088, r24
     838:	80 91 7e 03 	lds	r24, 0x037E
     83c:	86 95       	lsr	r24
     83e:	86 95       	lsr	r24
     840:	80 93 23 01 	sts	0x0123, r24
     844:	8a e0       	ldi	r24, 0x0A	; 10
     846:	2c c0       	rjmp	.+88     	; 0x8a0 <__vector_11+0x274>
     848:	88 e0       	ldi	r24, 0x08	; 8
     84a:	80 93 c1 00 	sts	0x00C1, r24
     84e:	80 91 88 00 	lds	r24, 0x0088
     852:	90 91 89 00 	lds	r25, 0x0089
     856:	20 91 23 01 	lds	r18, 0x0123
     85a:	48 96       	adiw	r24, 0x18	; 24
     85c:	82 0f       	add	r24, r18
     85e:	91 1d       	adc	r25, r1
     860:	90 93 89 00 	sts	0x0089, r25
     864:	80 93 88 00 	sts	0x0088, r24
     868:	8b e0       	ldi	r24, 0x0B	; 11
     86a:	1a c0       	rjmp	.+52     	; 0x8a0 <__vector_11+0x274>
     86c:	10 92 c1 00 	sts	0x00C1, r1
     870:	80 91 88 00 	lds	r24, 0x0088
     874:	90 91 89 00 	lds	r25, 0x0089
     878:	20 91 23 01 	lds	r18, 0x0123
     87c:	80 59       	subi	r24, 0x90	; 144
     87e:	9f 4f       	sbci	r25, 0xFF	; 255
     880:	82 1b       	sub	r24, r18
     882:	91 09       	sbc	r25, r1
     884:	90 93 89 00 	sts	0x0089, r25
     888:	80 93 88 00 	sts	0x0088, r24
     88c:	b0 9b       	sbis	0x16, 0	; 22
     88e:	07 c0       	rjmp	.+14     	; 0x89e <__vector_11+0x272>
     890:	b0 9a       	sbi	0x16, 0	; 22
     892:	20 98       	cbi	0x04, 0	; 4
     894:	80 e8       	ldi	r24, 0x80	; 128
     896:	89 b9       	out	0x09, r24	; 9
     898:	8a b1       	in	r24, 0x0a	; 10
     89a:	80 58       	subi	r24, 0x80	; 128
     89c:	8a b9       	out	0x0a, r24	; 10
     89e:	89 e0       	ldi	r24, 0x09	; 9
     8a0:	80 93 26 01 	sts	0x0126, r24
     8a4:	9f 91       	pop	r25
     8a6:	8f 91       	pop	r24
     8a8:	2f 91       	pop	r18
     8aa:	0f 90       	pop	r0
     8ac:	0f be       	out	0x3f, r0	; 63
     8ae:	0f 90       	pop	r0
     8b0:	1f 90       	pop	r1
     8b2:	18 95       	reti

000008b4 <BlitQuickShifter>:
     8b4:	83 95       	inc	r24

000008b6 <BlitQuickShift>:
     8b6:	88 94       	clc
     8b8:	98 2f       	mov	r25, r24
     8ba:	82 e0       	ldi	r24, 0x02	; 2
     8bc:	92 ff       	sbrs	r25, 2
     8be:	80 e2       	ldi	r24, 0x20	; 32
     8c0:	91 fd       	sbrc	r25, 1
     8c2:	02 c0       	rjmp	.+4      	; 0x8c8 <BlitQuickShift01>
     8c4:	88 0f       	add	r24, r24
     8c6:	88 0f       	add	r24, r24

000008c8 <BlitQuickShift01>:
     8c8:	90 ff       	sbrs	r25, 0
     8ca:	88 0f       	add	r24, r24
     8cc:	90 e0       	ldi	r25, 0x00	; 0
     8ce:	89 1f       	adc	r24, r25
     8d0:	08 95       	ret

000008d2 <BlitTileCalc>:
     8d2:	98 e0       	ldi	r25, 0x08	; 8
     8d4:	89 02       	muls	r24, r25
     8d6:	87 e6       	ldi	r24, 0x67	; 103
     8d8:	92 e0       	ldi	r25, 0x02	; 2
     8da:	80 0d       	add	r24, r0
     8dc:	91 1d       	adc	r25, r1
     8de:	11 24       	eor	r1, r1
     8e0:	08 95       	ret

000008e2 <BlitSramAddr>:
     8e2:	88 7f       	andi	r24, 0xF8	; 248
     8e4:	96 2f       	mov	r25, r22
     8e6:	97 70       	andi	r25, 0x07	; 7
     8e8:	89 0f       	add	r24, r25
     8ea:	99 27       	eor	r25, r25
     8ec:	88 51       	subi	r24, 0x18	; 24
     8ee:	91 41       	sbci	r25, 0x11	; 17
     8f0:	74 e1       	ldi	r23, 0x14	; 20
     8f2:	68 7f       	andi	r22, 0xF8	; 248
     8f4:	67 9f       	mul	r22, r23
     8f6:	80 0d       	add	r24, r0
     8f8:	91 1d       	adc	r25, r1
     8fa:	11 24       	eor	r1, r1
     8fc:	08 95       	ret

000008fe <BlitTile>:
     8fe:	69 5f       	subi	r22, 0xF9	; 249
     900:	68 7f       	andi	r22, 0xF8	; 248
     902:	79 5f       	subi	r23, 0xF9	; 249
     904:	76 95       	lsr	r23
     906:	76 95       	lsr	r23
     908:	76 95       	lsr	r23
     90a:	67 9f       	mul	r22, r23
     90c:	9c 01       	movw	r18, r24
     90e:	ca 01       	movw	r24, r20
     910:	a0 01       	movw	r20, r0
     912:	df df       	rcall	.-66     	; 0x8d2 <BlitTileCalc>
     914:	bc 01       	movw	r22, r24
     916:	c9 01       	movw	r24, r18
     918:	11 24       	eor	r1, r1
     91a:	0c 94 8d 06 	jmp	0xd1a	; 0xd1a <_VmBulkRead>

0000091e <BlitClip>:
     91e:	90 91 08 01 	lds	r25, 0x0108
     922:	90 93 14 01 	sts	0x0114, r25
     926:	89 0f       	add	r24, r25
     928:	80 93 15 01 	sts	0x0115, r24
     92c:	90 91 06 01 	lds	r25, 0x0106
     930:	90 93 07 01 	sts	0x0107, r25
     934:	69 0f       	add	r22, r25
     936:	60 93 16 01 	sts	0x0116, r22
     93a:	08 95       	ret

0000093c <BltStrip>:
     93c:	e4 2d       	mov	r30, r4
     93e:	1c 15       	cp	r17, r12
     940:	e8 f4       	brcc	.+58     	; 0x97c <BltStrip12>
     942:	2d b5       	in	r18, 0x2d	; 45
     944:	27 ff       	sbrs	r18, 7
     946:	fd cf       	rjmp	.-6      	; 0x942 <BltStrip+0x6>
     948:	2e b5       	in	r18, 0x2e	; 46
     94a:	2e bd       	out	0x2e, r18	; 46
     94c:	2d 93       	st	X+, r18
     94e:	21 96       	adiw	r28, 0x01	; 1
     950:	13 95       	inc	r17
     952:	1c 15       	cp	r17, r12
     954:	b0 f3       	brcs	.-20     	; 0x942 <BltStrip+0x6>
     956:	1f 15       	cp	r17, r15
     958:	00 f5       	brcc	.+64     	; 0x99a <BltStrip14>
     95a:	00 c0       	rjmp	.+0      	; 0x95c <BltStrip+0x20>
     95c:	00 00       	nop
     95e:	0e c0       	rjmp	.+28     	; 0x97c <BltStrip12>

00000960 <BltStrip11>:
     960:	2d b5       	in	r18, 0x2d	; 45
     962:	2e b5       	in	r18, 0x2e	; 46
     964:	2e bd       	out	0x2e, r18	; 46
     966:	24 23       	and	r18, r20
     968:	38 85       	ldd	r19, Y+8	; 0x08
     96a:	36 9d       	mul	r19, r6
     96c:	15 22       	and	r1, r21
     96e:	21 25       	eor	r18, r1
     970:	39 91       	ld	r19, Y+
     972:	36 9d       	mul	r19, r6
     974:	05 22       	and	r0, r21
     976:	20 25       	eor	r18, r0
     978:	2d 93       	st	X+, r18
     97a:	13 95       	inc	r17

0000097c <BltStrip12>:
     97c:	1e 17       	cp	r17, r30
     97e:	80 f3       	brcs	.-32     	; 0x960 <BltStrip11>
     980:	e4 2d       	mov	r30, r4
     982:	e7 60       	ori	r30, 0x07	; 7
     984:	e3 95       	inc	r30
     986:	1e 17       	cp	r17, r30
     988:	a8 f4       	brcc	.+42     	; 0x9b4 <BltStrip20>
     98a:	ef 15       	cp	r30, r15
     98c:	08 f0       	brcs	.+2      	; 0x990 <BltStrip12+0x14>
     98e:	ef 2d       	mov	r30, r15
     990:	1f 15       	cp	r17, r15
     992:	18 f4       	brcc	.+6      	; 0x99a <BltStrip14>
     994:	c3 0d       	add	r28, r3
     996:	d5 1d       	adc	r29, r5
     998:	e3 cf       	rjmp	.-58     	; 0x960 <BltStrip11>

0000099a <BltStrip14>:
     99a:	e7 60       	ori	r30, 0x07	; 7
     99c:	e3 95       	inc	r30
     99e:	2d b5       	in	r18, 0x2d	; 45
     9a0:	27 ff       	sbrs	r18, 7
     9a2:	fd cf       	rjmp	.-6      	; 0x99e <BltStrip14+0x4>
     9a4:	2e b5       	in	r18, 0x2e	; 46
     9a6:	2e bd       	out	0x2e, r18	; 46
     9a8:	2d 93       	st	X+, r18
     9aa:	21 96       	adiw	r28, 0x01	; 1
     9ac:	13 95       	inc	r17
     9ae:	1e 17       	cp	r17, r30
     9b0:	b0 f3       	brcs	.-20     	; 0x99e <BltStrip14+0x4>
     9b2:	4f 10       	cpse	r4, r15

000009b4 <BltStrip20>:
     9b4:	c3 19       	sub	r28, r3
     9b6:	d5 09       	sbc	r29, r5

000009b8 <BltStrip21>:
     9b8:	5a 2d       	mov	r21, r10
     9ba:	4f 2f       	mov	r20, r31
     9bc:	18 50       	subi	r17, 0x08	; 8

000009be <BltStrip25>:
     9be:	08 50       	subi	r16, 0x08	; 8
     9c0:	08 f0       	brcs	.+2      	; 0x9c4 <BltStrip25+0x6>
     9c2:	bc cf       	rjmp	.-136    	; 0x93c <BltStrip>
     9c4:	09 3f       	cpi	r16, 0xF9	; 249
     9c6:	20 f0       	brcs	.+8      	; 0x9d0 <BltStrip30>
     9c8:	00 27       	eor	r16, r16
     9ca:	5b 21       	and	r21, r11
     9cc:	48 29       	or	r20, r8
     9ce:	b6 cf       	rjmp	.-148    	; 0x93c <BltStrip>

000009d0 <BltStrip30>:
     9d0:	08 95       	ret

000009d2 <BlitRegSave>:
     9d2:	ff 91       	pop	r31
     9d4:	ef 91       	pop	r30
     9d6:	2f 92       	push	r2
     9d8:	3f 92       	push	r3
     9da:	4f 92       	push	r4
     9dc:	5f 92       	push	r5
     9de:	6f 92       	push	r6
     9e0:	7f 92       	push	r7
     9e2:	8f 92       	push	r8
     9e4:	9f 92       	push	r9
     9e6:	af 92       	push	r10
     9e8:	bf 92       	push	r11
     9ea:	cf 92       	push	r12
     9ec:	df 92       	push	r13
     9ee:	0f 93       	push	r16
     9f0:	1f 93       	push	r17
     9f2:	cf 93       	push	r28
     9f4:	df 93       	push	r29
     9f6:	ef 92       	push	r14
     9f8:	ff 92       	push	r15
     9fa:	09 94       	ijmp

000009fc <BlitRegRestore>:
     9fc:	ff 91       	pop	r31
     9fe:	ef 91       	pop	r30
     a00:	ff 90       	pop	r15
     a02:	ef 90       	pop	r14
     a04:	df 91       	pop	r29
     a06:	cf 91       	pop	r28
     a08:	1f 91       	pop	r17
     a0a:	0f 91       	pop	r16
     a0c:	df 90       	pop	r13
     a0e:	cf 90       	pop	r12
     a10:	bf 90       	pop	r11
     a12:	af 90       	pop	r10
     a14:	9f 90       	pop	r9
     a16:	8f 90       	pop	r8
     a18:	7f 90       	pop	r7
     a1a:	6f 90       	pop	r6
     a1c:	5f 90       	pop	r5
     a1e:	4f 90       	pop	r4
     a20:	3f 90       	pop	r3
     a22:	2f 90       	pop	r2
     a24:	11 24       	eor	r1, r1
     a26:	09 94       	ijmp

00000a28 <BlitBltCalc>:
     a28:	55 24       	eor	r5, r5
     a2a:	d0 90 08 01 	lds	r13, 0x0108
     a2e:	6d 2c       	mov	r6, r13
     a30:	ed 2c       	mov	r14, r13
     a32:	20 91 14 01 	lds	r18, 0x0114
     a36:	d2 16       	cp	r13, r18
     a38:	08 f4       	brcc	.+2      	; 0xa3c <BlitBltCalc+0x14>
     a3a:	d2 2e       	mov	r13, r18
     a3c:	9d 2d       	mov	r25, r13
     a3e:	98 7f       	andi	r25, 0xF8	; 248
     a40:	de 2d       	mov	r29, r14
     a42:	d8 7f       	andi	r29, 0xF8	; 248
     a44:	9d 1b       	sub	r25, r29
     a46:	ce 2d       	mov	r28, r14
     a48:	c7 70       	andi	r28, 0x07	; 7
     a4a:	09 f4       	brne	.+2      	; 0xa4e <BlitBltCalc+0x26>
     a4c:	83 95       	inc	r24
     a4e:	c0 90 06 01 	lds	r12, 0x0106
     a52:	fc 2c       	mov	r15, r12
     a54:	33 24       	eor	r3, r3
     a56:	e6 0e       	add	r14, r22
     a58:	e0 92 08 01 	sts	0x0108, r14
     a5c:	69 5f       	subi	r22, 0xF9	; 249
     a5e:	68 7f       	andi	r22, 0xF8	; 248
     a60:	76 2e       	mov	r7, r22
     a62:	3f 2d       	mov	r19, r15
     a64:	37 70       	andi	r19, 0x07	; 7
     a66:	43 2e       	mov	r4, r19
     a68:	19 f0       	breq	.+6      	; 0xa70 <BlitBltCalc+0x48>
     a6a:	28 ef       	ldi	r18, 0xF8	; 248
     a6c:	26 0f       	add	r18, r22
     a6e:	32 2e       	mov	r3, r18
     a70:	3c 2d       	mov	r19, r12
     a72:	20 91 07 01 	lds	r18, 0x0107
     a76:	c2 16       	cp	r12, r18
     a78:	08 f4       	brcc	.+2      	; 0xa7c <BlitBltCalc+0x54>
     a7a:	c2 2e       	mov	r12, r18
     a7c:	cc 2d       	mov	r28, r12
     a7e:	c8 7f       	andi	r28, 0xF8	; 248
     a80:	1c 2f       	mov	r17, r28
     a82:	41 0e       	add	r4, r17
     a84:	df 2d       	mov	r29, r15
     a86:	d8 7f       	andi	r29, 0xF8	; 248
     a88:	cd 1b       	sub	r28, r29
     a8a:	41 12       	cpse	r4, r17
     a8c:	c8 50       	subi	r28, 0x08	; 8
     a8e:	c5 95       	asr	r28
     a90:	c5 95       	asr	r28
     a92:	c5 95       	asr	r28
     a94:	c6 02       	muls	r28, r22
     a96:	e0 01       	movw	r28, r0
     a98:	c9 0f       	add	r28, r25
     a9a:	d5 1d       	adc	r29, r5
     a9c:	98 e0       	ldi	r25, 0x08	; 8
     a9e:	98 9f       	mul	r25, r24
     aa0:	c0 0d       	add	r28, r0
     aa2:	d1 1d       	adc	r29, r1
     aa4:	c1 5a       	subi	r28, 0xA1	; 161
     aa6:	dd 4f       	sbci	r29, 0xFD	; 253
     aa8:	20 91 15 01 	lds	r18, 0x0115
     aac:	2e 15       	cp	r18, r14
     aae:	08 f4       	brcc	.+2      	; 0xab2 <BlitBltCalc+0x8a>
     ab0:	e2 2e       	mov	r14, r18
     ab2:	af ef       	ldi	r26, 0xFF	; 255
     ab4:	b3 e0       	ldi	r27, 0x03	; 3
     ab6:	87 e0       	ldi	r24, 0x07	; 7
     ab8:	8e 0d       	add	r24, r14
     aba:	88 7f       	andi	r24, 0xF8	; 248
     abc:	9d 2d       	mov	r25, r13
     abe:	98 7f       	andi	r25, 0xF8	; 248
     ac0:	89 1b       	sub	r24, r25
     ac2:	a8 1b       	sub	r26, r24
     ac4:	b0 40       	sbci	r27, 0x00	; 0
     ac6:	3f 2d       	mov	r19, r15
     ac8:	31 95       	neg	r19
     aca:	37 70       	andi	r19, 0x07	; 7
     acc:	c3 0f       	add	r28, r19
     ace:	c5 1d       	adc	r28, r5
     ad0:	f7 0e       	add	r15, r23
     ad2:	20 91 16 01 	lds	r18, 0x0116
     ad6:	2f 15       	cp	r18, r15
     ad8:	08 f4       	brcc	.+2      	; 0xadc <BlitBltCalc+0xb4>
     ada:	f2 2e       	mov	r15, r18
     adc:	86 2d       	mov	r24, r6
     ade:	eb de       	rcall	.-554    	; 0x8b6 <BlitQuickShift>
     ae0:	68 2e       	mov	r6, r24
     ae2:	8d 2d       	mov	r24, r13
     ae4:	e8 de       	rcall	.-560    	; 0x8b6 <BlitQuickShift>
     ae6:	8a 95       	dec	r24
     ae8:	09 f4       	brne	.+2      	; 0xaec <BlitBltCalc+0xc4>
     aea:	8f ef       	ldi	r24, 0xFF	; 255
     aec:	98 2e       	mov	r9, r24
     aee:	8e 2d       	mov	r24, r14
     af0:	e2 de       	rcall	.-572    	; 0x8b6 <BlitQuickShift>
     af2:	81 95       	neg	r24
     af4:	b8 2e       	mov	r11, r24
     af6:	2f ef       	ldi	r18, 0xFF	; 255
     af8:	a2 2e       	mov	r10, r18
     afa:	8d 2d       	mov	r24, r13
     afc:	6c 2d       	mov	r22, r12
     afe:	68 7f       	andi	r22, 0xF8	; 248
     b00:	f0 de       	rcall	.-544    	; 0x8e2 <BlitSramAddr>
     b02:	cc 01       	movw	r24, r24
     b04:	0d 2d       	mov	r16, r13
     b06:	08 7f       	andi	r16, 0xF8	; 248
     b08:	01 95       	neg	r16
     b0a:	e0 0e       	add	r14, r16
     b0c:	08 95       	ret

00000b0e <BlitBltCoreXor>:
     b0e:	ff ef       	ldi	r31, 0xFF	; 255
     b10:	2f 2e       	mov	r2, r31
     b12:	82 2c       	mov	r8, r2

00000b14 <BlitBltCore>:
     b14:	2f 93       	push	r18
     b16:	2d b5       	in	r18, 0x2d	; 45
     b18:	27 ff       	sbrs	r18, 7
     b1a:	fd cf       	rjmp	.-6      	; 0xb16 <BlitBltCore+0x2>
     b1c:	29 9a       	sbi	0x05, 1	; 5
     b1e:	00 00       	nop
     b20:	29 98       	cbi	0x05, 1	; 5
     b22:	0e 94 b0 02 	call	0x560	; 0x560 <SramAbsBeginRd>
     b26:	2f 91       	pop	r18
     b28:	6c 2f       	mov	r22, r28
     b2a:	7a 2f       	mov	r23, r26
     b2c:	59 2d       	mov	r21, r9
     b2e:	42 2d       	mov	r20, r2
     b30:	0e 2d       	mov	r16, r14
     b32:	45 df       	rcall	.-374    	; 0x9be <BltStrip25>
     b34:	6c 1b       	sub	r22, r28
     b36:	61 95       	neg	r22
     b38:	c6 1b       	sub	r28, r22
     b3a:	d0 40       	sbci	r29, 0x00	; 0
     b3c:	7a 1b       	sub	r23, r26
     b3e:	71 95       	neg	r23
     b40:	a7 1b       	sub	r26, r23
     b42:	b0 40       	sbci	r27, 0x00	; 0
     b44:	c7 0d       	add	r28, r7
     b46:	d5 1d       	adc	r29, r5
     b48:	47 2f       	mov	r20, r23
     b4a:	55 27       	eor	r21, r21
     b4c:	bd 01       	movw	r22, r26
     b4e:	0e 94 5c 06 	call	0xcb8	; 0xcb8 <WriteMem>
     b52:	80 56       	subi	r24, 0x60	; 96
     b54:	9f 4f       	sbci	r25, 0xFF	; 255
     b56:	28 e0       	ldi	r18, 0x08	; 8
     b58:	42 0e       	add	r4, r18
     b5a:	4f 14       	cp	r4, r15
     b5c:	08 f0       	brcs	.+2      	; 0xb60 <BlitBltCore+0x4c>
     b5e:	4f 2c       	mov	r4, r15
     b60:	18 5f       	subi	r17, 0xF8	; 248
     b62:	1f 15       	cp	r17, r15
     b64:	b8 f2       	brcs	.-82     	; 0xb14 <BlitBltCore>

00000b66 <BlitBltCore30>:
     b66:	08 95       	ret

00000b68 <BlitBlt>:
     b68:	34 df       	rcall	.-408    	; 0x9d2 <BlitRegSave>
     b6a:	5e df       	rcall	.-324    	; 0xa28 <BlitBltCalc>
     b6c:	08 f4       	brcc	.+2      	; 0xb70 <BlitBlt10>
     b6e:	cf df       	rcall	.-98     	; 0xb0e <BlitBltCoreXor>

00000b70 <BlitBlt10>:
     b70:	45 df       	rcall	.-374    	; 0x9fc <BlitRegRestore>
     b72:	08 95       	ret

00000b74 <Blit2Blt>:
     b74:	b8 01       	movw	r22, r16
     b76:	9e 91       	ld	r25, -X
     b78:	8e 91       	ld	r24, -X
     b7a:	7d 01       	movw	r14, r26
     b7c:	2a df       	rcall	.-428    	; 0x9d2 <BlitRegSave>
     b7e:	54 df       	rcall	.-344    	; 0xa28 <BlitBltCalc>
     b80:	08 f4       	brcc	.+2      	; 0xb84 <Blit2Blt10>
     b82:	c5 df       	rcall	.-118    	; 0xb0e <BlitBltCoreXor>

00000b84 <Blit2Blt10>:
     b84:	a0 91 17 01 	lds	r26, 0x0117
     b88:	a0 93 08 01 	sts	0x0108, r26
     b8c:	a0 91 18 01 	lds	r26, 0x0118
     b90:	a0 93 06 01 	sts	0x0106, r26
     b94:	bf 91       	pop	r27
     b96:	af 91       	pop	r26
     b98:	7e 91       	ld	r23, -X
     b9a:	6e 91       	ld	r22, -X
     b9c:	11 97       	sbiw	r26, 0x01	; 1
     b9e:	8e 91       	ld	r24, -X
     ba0:	af 93       	push	r26
     ba2:	bf 93       	push	r27
     ba4:	41 df       	rcall	.-382    	; 0xa28 <BlitBltCalc>
     ba6:	08 f4       	brcc	.+2      	; 0xbaa <Blit2Blt20>
     ba8:	b2 df       	rcall	.-156    	; 0xb0e <BlitBltCoreXor>

00000baa <Blit2Blt20>:
     baa:	28 df       	rcall	.-432    	; 0x9fc <BlitRegRestore>
     bac:	08 95       	ret

00000bae <BlitBlts>:
     bae:	11 df       	rcall	.-478    	; 0x9d2 <BlitRegSave>
     bb0:	7f 93       	push	r23
     bb2:	6f 93       	push	r22
     bb4:	90 91 08 01 	lds	r25, 0x0108
     bb8:	9f 93       	push	r25
     bba:	8f 93       	push	r24

00000bbc <BlitBlts10>:
     bbc:	2f 93       	push	r18
     bbe:	4f 93       	push	r20

00000bc0 <BlitBlts20>:
     bc0:	4f 93       	push	r20
     bc2:	32 df       	rcall	.-412    	; 0xa28 <BlitBltCalc>
     bc4:	30 f4       	brcc	.+12     	; 0xbd2 <BlitBlts22>
     bc6:	29 2c       	mov	r2, r9
     bc8:	20 94       	com	r2
     bca:	ff 27       	eor	r31, r31
     bcc:	8b 2c       	mov	r8, r11
     bce:	80 94       	com	r8
     bd0:	a1 df       	rcall	.-190    	; 0xb14 <BlitBltCore>

00000bd2 <BlitBlts22>:
     bd2:	cd b7       	in	r28, 0x3d	; 61
     bd4:	de b7       	in	r29, 0x3e	; 62
     bd6:	8c 81       	ldd	r24, Y+4	; 0x04
     bd8:	6e 81       	ldd	r22, Y+6	; 0x06
     bda:	7f 81       	ldd	r23, Y+7	; 0x07
     bdc:	4f 91       	pop	r20

00000bde <BlitBlts25>:
     bde:	41 50       	subi	r20, 0x01	; 1
     be0:	7a f7       	brpl	.-34     	; 0xbc0 <BlitBlts20>
     be2:	4f 91       	pop	r20
     be4:	2f 91       	pop	r18
     be6:	21 50       	subi	r18, 0x01	; 1
     be8:	4a f0       	brmi	.+18     	; 0xbfc <BlitBlts30>
     bea:	9d 81       	ldd	r25, Y+5	; 0x05
     bec:	90 93 08 01 	sts	0x0108, r25
     bf0:	90 91 06 01 	lds	r25, 0x0106
     bf4:	97 0f       	add	r25, r23
     bf6:	90 93 06 01 	sts	0x0106, r25
     bfa:	e0 cf       	rjmp	.-64     	; 0xbbc <BlitBlts10>

00000bfc <BlitBlts30>:
     bfc:	8f 91       	pop	r24
     bfe:	9f 91       	pop	r25
     c00:	6f 91       	pop	r22
     c02:	7f 91       	pop	r23
     c04:	fb de       	rcall	.-522    	; 0x9fc <BlitRegRestore>
     c06:	08 95       	ret

00000c08 <__vector_1>:
     c08:	78 94       	sei
     c0a:	9f 93       	push	r25
     c0c:	9f b7       	in	r25, 0x3f	; 63
     c0e:	9f 93       	push	r25
     c10:	8f 93       	push	r24
     c12:	ff 93       	push	r31
     c14:	ef 93       	push	r30
     c16:	ed b7       	in	r30, 0x3d	; 61
     c18:	fe b7       	in	r31, 0x3e	; 62
     c1a:	87 81       	ldd	r24, Z+7	; 0x07
     c1c:	86 95       	lsr	r24
     c1e:	82 50       	subi	r24, 0x02	; 2
     c20:	0e 94 5a 04 	call	0x8b4	; 0x8b4 <BlitQuickShifter>
     c24:	97 81       	ldd	r25, Z+7	; 0x07
     c26:	94 31       	cpi	r25, 0x14	; 20
     c28:	1c f4       	brge	.+6      	; 0xc30 <UserInterrupts10>
     c2a:	80 93 1d 01 	sts	0x011D, r24
     c2e:	07 c0       	rjmp	.+14     	; 0xc3e <UserInterrupts50>

00000c30 <UserInterrupts10>:
     c30:	94 32       	cpi	r25, 0x24	; 36
     c32:	1c f4       	brge	.+6      	; 0xc3a <UserInterrupts20>
     c34:	80 93 1e 01 	sts	0x011E, r24
     c38:	02 c0       	rjmp	.+4      	; 0xc3e <UserInterrupts50>

00000c3a <UserInterrupts20>:
     c3a:	80 93 1f 01 	sts	0x011F, r24

00000c3e <UserInterrupts50>:
     c3e:	9f 91       	pop	r25
     c40:	96 83       	std	Z+6, r25	; 0x06
     c42:	9f 91       	pop	r25
     c44:	97 83       	std	Z+7, r25	; 0x07
     c46:	8f 91       	pop	r24
     c48:	9f 91       	pop	r25
     c4a:	9f bf       	out	0x3f, r25	; 63
     c4c:	9f 91       	pop	r25
     c4e:	ef 91       	pop	r30
     c50:	ff 91       	pop	r31
     c52:	08 95       	ret

00000c54 <__vector_15>:
     c54:	78 94       	sei
     c56:	8f 93       	push	r24
     c58:	8f b7       	in	r24, 0x3f	; 63
     c5a:	8f 93       	push	r24
     c5c:	9f 93       	push	r25
     c5e:	80 91 1a 01 	lds	r24, 0x011A
     c62:	8a 95       	dec	r24
     c64:	80 93 1a 01 	sts	0x011A, r24
     c68:	71 f0       	breq	.+28     	; 0xc86 <SwUartInt10>
     c6a:	90 5e       	subi	r25, 0xE0	; 224
     c6c:	80 fd       	sbrc	r24, 0
     c6e:	9f 5d       	subi	r25, 0xDF	; 223
     c70:	98 bd       	out	0x28, r25	; 40
     c72:	90 91 19 01 	lds	r25, 0x0119
     c76:	08 94       	sec
     c78:	97 95       	ror	r25
     c7a:	90 93 19 01 	sts	0x0119, r25
     c7e:	80 e2       	ldi	r24, 0x20	; 32
     c80:	28 f4       	brcc	.+10     	; 0xc8c <SwUartInt20>
     c82:	80 e3       	ldi	r24, 0x30	; 48
     c84:	03 c0       	rjmp	.+6      	; 0xc8c <SwUartInt20>

00000c86 <SwUartInt10>:
     c86:	80 e0       	ldi	r24, 0x00	; 0
     c88:	85 bd       	out	0x25, r24	; 37
     c8a:	82 e0       	ldi	r24, 0x02	; 2

00000c8c <SwUartInt20>:
     c8c:	84 bd       	out	0x24, r24	; 36

00000c8e <SwUartInt22>:
     c8e:	9f 91       	pop	r25
     c90:	8f 91       	pop	r24
     c92:	8f bf       	out	0x3f, r24	; 63
     c94:	8f 91       	pop	r24
     c96:	08 95       	ret

00000c98 <Emit>:
     c98:	99 27       	eor	r25, r25
     c9a:	0c 94 a7 01 	jmp	0x34e	; 0x34e <EmitW>

00000c9e <_VMSeqReadIP>:
     c9e:	d7 fd       	sbrc	r29, 7
     ca0:	04 c0       	rjmp	.+8      	; 0xcaa <_VMSeqReadIP+0xc>
     ca2:	fe 01       	movw	r30, r28
     ca4:	85 91       	lpm	r24, Z+
     ca6:	21 96       	adiw	r28, 0x01	; 1
     ca8:	06 c0       	rjmp	.+12     	; 0xcb6 <_VMSeqReadIP+0x18>
     caa:	21 96       	adiw	r28, 0x01	; 1
     cac:	8d b5       	in	r24, 0x2d	; 45
     cae:	87 ff       	sbrs	r24, 7
     cb0:	fd cf       	rjmp	.-6      	; 0xcac <_VMSeqReadIP+0xe>
     cb2:	8e b5       	in	r24, 0x2e	; 46
     cb4:	8e bd       	out	0x2e, r24	; 46
     cb6:	08 95       	ret

00000cb8 <WriteMem>:
     cb8:	ef 93       	push	r30
     cba:	ff 93       	push	r31
     cbc:	e4 2f       	mov	r30, r20
     cbe:	e5 2b       	or	r30, r21
     cc0:	e9 f0       	breq	.+58     	; 0xcfc <_VmBulkWrite20>
     cc2:	fb 01       	movw	r30, r22
     cc4:	7d b5       	in	r23, 0x2d	; 45
     cc6:	77 ff       	sbrs	r23, 7
     cc8:	fd cf       	rjmp	.-6      	; 0xcc4 <WriteMem+0xc>
     cca:	29 9a       	sbi	0x05, 1	; 5

00000ccc <_VmBulkWrite02>:
     ccc:	00 00       	nop
     cce:	29 98       	cbi	0x05, 1	; 5
     cd0:	62 e0       	ldi	r22, 0x02	; 2
     cd2:	6e bd       	out	0x2e, r22	; 46
     cd4:	7d b5       	in	r23, 0x2d	; 45
     cd6:	77 ff       	sbrs	r23, 7
     cd8:	fd cf       	rjmp	.-6      	; 0xcd4 <_VmBulkWrite02+0x8>
     cda:	9e bd       	out	0x2e, r25	; 46
     cdc:	7d b5       	in	r23, 0x2d	; 45
     cde:	77 ff       	sbrs	r23, 7
     ce0:	fd cf       	rjmp	.-6      	; 0xcdc <_VmBulkWrite02+0x10>
     ce2:	8e bd       	out	0x2e, r24	; 46

00000ce4 <_VmBulkWrite05>:
     ce4:	f0 31       	cpi	r31, 0x10	; 16
     ce6:	10 f0       	brcs	.+4      	; 0xcec <_VmBulkWrite10>
     ce8:	65 91       	lpm	r22, Z+
     cea:	01 c0       	rjmp	.+2      	; 0xcee <_VmBulkWrite12>

00000cec <_VmBulkWrite10>:
     cec:	61 91       	ld	r22, Z+

00000cee <_VmBulkWrite12>:
     cee:	7d b5       	in	r23, 0x2d	; 45
     cf0:	77 ff       	sbrs	r23, 7
     cf2:	fd cf       	rjmp	.-6      	; 0xcee <_VmBulkWrite12>
     cf4:	6e bd       	out	0x2e, r22	; 46
     cf6:	41 50       	subi	r20, 0x01	; 1
     cf8:	50 40       	sbci	r21, 0x00	; 0
     cfa:	a1 f7       	brne	.-24     	; 0xce4 <_VmBulkWrite05>

00000cfc <_VmBulkWrite20>:
     cfc:	ff 91       	pop	r31
     cfe:	ef 91       	pop	r30
     d00:	08 95       	ret

00000d02 <WriteMemNoWait>:
     d02:	ef 93       	push	r30
     d04:	ff 93       	push	r31
     d06:	e4 2f       	mov	r30, r20
     d08:	e5 2b       	or	r30, r21
     d0a:	c1 f3       	breq	.-16     	; 0xcfc <_VmBulkWrite20>
     d0c:	fb 01       	movw	r30, r22
     d0e:	29 9a       	sbi	0x05, 1	; 5
     d10:	dd cf       	rjmp	.-70     	; 0xccc <_VmBulkWrite02>

00000d12 <_VmBulkReadForthFetch>:
     d12:	c8 01       	movw	r24, r16
     d14:	70 e0       	ldi	r23, 0x00	; 0
     d16:	50 e0       	ldi	r21, 0x00	; 0
     d18:	7d 01       	movw	r14, r26

00000d1a <_VmBulkRead>:
     d1a:	97 ff       	sbrs	r25, 7
     d1c:	1b c0       	rjmp	.+54     	; 0xd54 <_VmBulkReadRom>
     d1e:	6f 93       	push	r22
     d20:	6d b5       	in	r22, 0x2d	; 45
     d22:	67 ff       	sbrs	r22, 7
     d24:	fd cf       	rjmp	.-6      	; 0xd20 <_VmBulkRead+0x6>
     d26:	29 9a       	sbi	0x05, 1	; 5
     d28:	7f 93       	push	r23
     d2a:	4f 93       	push	r20
     d2c:	5f 93       	push	r21
     d2e:	29 98       	cbi	0x05, 1	; 5
     d30:	0e 94 b0 02 	call	0x560	; 0x560 <SramAbsBeginRd>
     d34:	9f 91       	pop	r25
     d36:	8f 91       	pop	r24
     d38:	bf 91       	pop	r27
     d3a:	af 91       	pop	r26
     d3c:	01 c0       	rjmp	.+2      	; 0xd40 <_VmBulkRead2>

00000d3e <_VmBulkRead1>:
     d3e:	6e bd       	out	0x2e, r22	; 46

00000d40 <_VmBulkRead2>:
     d40:	6d b5       	in	r22, 0x2d	; 45
     d42:	67 ff       	sbrs	r22, 7
     d44:	fd cf       	rjmp	.-6      	; 0xd40 <_VmBulkRead2>
     d46:	6e b5       	in	r22, 0x2e	; 46
     d48:	6d 93       	st	X+, r22
     d4a:	01 97       	sbiw	r24, 0x01	; 1
     d4c:	c1 f7       	brne	.-16     	; 0xd3e <_VmBulkRead1>
     d4e:	29 9a       	sbi	0x05, 1	; 5
     d50:	6e bd       	out	0x2e, r22	; 46
     d52:	08 95       	ret

00000d54 <_VmBulkReadRom>:
     d54:	fc 01       	movw	r30, r24
     d56:	db 01       	movw	r26, r22
     d58:	ca 01       	movw	r24, r20

00000d5a <_VmBulkReadRom1>:
     d5a:	45 91       	lpm	r20, Z+
     d5c:	4d 93       	st	X+, r20
     d5e:	01 97       	sbiw	r24, 0x01	; 1
     d60:	e1 f7       	brne	.-8      	; 0xd5a <_VmBulkReadRom1>
     d62:	08 95       	ret

00000d64 <_VmUserInt20>:
     d64:	00 c0       	rjmp	.+0      	; 0xd66 <_VmUserInt30>

00000d66 <_VmUserInt30>:
     d66:	29 98       	cbi	0x05, 1	; 5
     d68:	00 c0       	rjmp	.+0      	; 0xd6a <_VmUserInt50>

00000d6a <_VmUserInt50>:
     d6a:	2d c0       	rjmp	.+90     	; 0xdc6 <_VmTrapJumpUnScheduled>

00000d6c <_VmTrapJumpCached>:
     d6c:	2e bd       	out	0x2e, r18	; 46
     d6e:	08 94       	sec
     d70:	2d c0       	rjmp	.+90     	; 0xdcc <_VmTrapJump01>

00000d72 <_VmUserInt>:
     d72:	ff 91       	pop	r31
     d74:	ef 91       	pop	r30
     d76:	20 f4       	brcc	.+8      	; 0xd80 <_VmUserInt01>
     d78:	21 97       	sbiw	r28, 0x01	; 1
     d7a:	33 24       	eor	r3, r3
     d7c:	44 24       	eor	r4, r4
     d7e:	55 24       	eor	r5, r5

00000d80 <_VmUserInt01>:
     d80:	df 93       	push	r29
     d82:	cf 93       	push	r28
     d84:	ef 93       	push	r30
     d86:	ff 93       	push	r31
     d88:	c0 91 1b 01 	lds	r28, 0x011B
     d8c:	d0 91 1c 01 	lds	r29, 0x011C
     d90:	ed e1       	ldi	r30, 0x1D	; 29
     d92:	f1 e0       	ldi	r31, 0x01	; 1
     d94:	0d 93       	st	X+, r16
     d96:	1d 93       	st	X+, r17
     d98:	f8 94       	cli
     d9a:	02 81       	ldd	r16, Z+2	; 0x02
     d9c:	12 82       	std	Z+2, r1	; 0x02
     d9e:	78 94       	sei
     da0:	0d 93       	st	X+, r16
     da2:	f8 94       	cli
     da4:	03 81       	ldd	r16, Z+3	; 0x03
     da6:	12 82       	std	Z+2, r1	; 0x02
     da8:	78 94       	sei
     daa:	0d 93       	st	X+, r16
     dac:	f8 94       	cli
     dae:	00 81       	ld	r16, Z
     db0:	10 82       	st	Z, r1
     db2:	78 94       	sei
     db4:	f8 94       	cli
     db6:	11 81       	ldd	r17, Z+1	; 0x01
     db8:	11 82       	std	Z+1, r1	; 0x01
     dba:	78 94       	sei
     dbc:	2d b5       	in	r18, 0x2d	; 45
     dbe:	27 ff       	sbrs	r18, 7
     dc0:	fd cf       	rjmp	.-6      	; 0xdbc <_VmUserInt01+0x3c>
     dc2:	29 9a       	sbi	0x05, 1	; 5
     dc4:	cf cf       	rjmp	.-98     	; 0xd64 <_VmUserInt20>

00000dc6 <_VmTrapJumpUnScheduled>:
     dc6:	23 e0       	ldi	r18, 0x03	; 3

00000dc8 <_VmTrapJump>:
     dc8:	2e bd       	out	0x2e, r18	; 46
     dca:	88 94       	clc

00000dcc <_VmTrapJump01>:
     dcc:	20 91 1d 01 	lds	r18, 0x011D
     dd0:	30 91 1e 01 	lds	r19, 0x011E
     dd4:	23 2b       	or	r18, r19
     dd6:	30 91 1f 01 	lds	r19, 0x011F
     dda:	23 2b       	or	r18, r19
     ddc:	3d b5       	in	r19, 0x2d	; 45
     dde:	37 ff       	sbrs	r19, 7
     de0:	fd cf       	rjmp	.-6      	; 0xddc <_VmTrapJump01+0x10>
     de2:	de bd       	out	0x2e, r29	; 46
     de4:	30 91 20 01 	lds	r19, 0x0120
     de8:	23 2b       	or	r18, r19
     dea:	19 f6       	brne	.-122    	; 0xd72 <_VmUserInt>
     dec:	23 e0       	ldi	r18, 0x03	; 3
     dee:	af 3f       	cpi	r26, 0xFF	; 255
     df0:	b2 07       	cpc	r27, r18
     df2:	a8 f0       	brcs	.+42     	; 0xe1e <_VmTrapJump10>
     df4:	2d b7       	in	r18, 0x3d	; 61
     df6:	3e b7       	in	r19, 0x3e	; 62
     df8:	28 52       	subi	r18, 0x28	; 40
     dfa:	30 40       	sbci	r19, 0x00	; 0
     dfc:	a2 17       	cp	r26, r18
     dfe:	b3 07       	cpc	r27, r19
     e00:	88 f4       	brcc	.+34     	; 0xe24 <_VmTrapJump20>
     e02:	2d b5       	in	r18, 0x2d	; 45
     e04:	27 ff       	sbrs	r18, 7
     e06:	fd cf       	rjmp	.-6      	; 0xe02 <_VmTrapJump01+0x36>
     e08:	ce bd       	out	0x2e, r28	; 46
     e0a:	30 91 11 01 	lds	r19, 0x0111
     e0e:	36 39       	cpi	r19, 0x96	; 150
     e10:	f7 9b       	sbis	0x1e, 7	; 30
     e12:	59 f0       	breq	.+22     	; 0xe2a <_VmTrapJump30>
     e14:	2d b5       	in	r18, 0x2d	; 45
     e16:	27 ff       	sbrs	r18, 7
     e18:	fd cf       	rjmp	.-6      	; 0xe14 <_VmTrapJump01+0x48>
     e1a:	ce bd       	out	0x2e, r28	; 46
     e1c:	08 95       	ret

00000e1e <_VmTrapJump10>:
     e1e:	0a e8       	ldi	r16, 0x8A	; 138
     e20:	14 e6       	ldi	r17, 0x64	; 100
     e22:	05 c0       	rjmp	.+10     	; 0xe2e <_VmTrapJump40>

00000e24 <_VmTrapJump20>:
     e24:	06 e9       	ldi	r16, 0x96	; 150
     e26:	14 e6       	ldi	r17, 0x64	; 100
     e28:	02 c0       	rjmp	.+4      	; 0xe2e <_VmTrapJump40>

00000e2a <_VmTrapJump30>:
     e2a:	01 ea       	ldi	r16, 0xA1	; 161
     e2c:	14 e6       	ldi	r17, 0x64	; 100

00000e2e <_VmTrapJump40>:
     e2e:	2d b5       	in	r18, 0x2d	; 45
     e30:	27 ff       	sbrs	r18, 7
     e32:	fd cf       	rjmp	.-6      	; 0xe2e <_VmTrapJump40>
     e34:	29 9a       	sbi	0x05, 1	; 5
     e36:	24 e0       	ldi	r18, 0x04	; 4
     e38:	f8 94       	cli
     e3a:	2e bf       	out	0x3e, r18	; 62
     e3c:	2f ef       	ldi	r18, 0xFF	; 255
     e3e:	2d bf       	out	0x3d, r18	; 61
     e40:	78 94       	sei
     e42:	6e 01       	movw	r12, r28
     e44:	af ef       	ldi	r26, 0xFF	; 255
     e46:	b3 e0       	ldi	r27, 0x03	; 3
     e48:	87 ea       	ldi	r24, 0xA7	; 167
     e4a:	94 e6       	ldi	r25, 0x64	; 100
     e4c:	b0 c0       	rjmp	.+352    	; 0xfae <_VM10>

00000e4e <__cmoveC>:
     e4e:	29 9a       	sbi	0x05, 1	; 5
     e50:	8e bd       	out	0x2e, r24	; 46
     e52:	08 95       	ret

00000e54 <__cmoveRev>:
     e54:	6c 0c       	add	r6, r12
     e56:	7d 1c       	adc	r7, r13
     e58:	8c 0c       	add	r8, r12
     e5a:	9d 1c       	adc	r9, r13

00000e5c <__cmove20>:
     e5c:	a6 01       	movw	r20, r12
     e5e:	48 30       	cpi	r20, 0x08	; 8
     e60:	51 05       	cpc	r21, r1
     e62:	08 f0       	brcs	.+2      	; 0xe66 <__cmove21>
     e64:	48 e0       	ldi	r20, 0x08	; 8

00000e66 <__cmove21>:
     e66:	64 1a       	sub	r6, r20
     e68:	71 08       	sbc	r7, r1
     e6a:	84 1a       	sub	r8, r20
     e6c:	91 08       	sbc	r9, r1
     e6e:	a4 2e       	mov	r10, r20
     e70:	50 e0       	ldi	r21, 0x00	; 0
     e72:	c3 01       	movw	r24, r6
     e74:	69 e0       	ldi	r22, 0x09	; 9
     e76:	71 e0       	ldi	r23, 0x01	; 1

00000e78 <__cmove22>:
     e78:	50 df       	rcall	.-352    	; 0xd1a <_VmBulkRead>
     e7a:	c4 01       	movw	r24, r8
     e7c:	69 e0       	ldi	r22, 0x09	; 9
     e7e:	71 e0       	ldi	r23, 0x01	; 1
     e80:	4a 2d       	mov	r20, r10
     e82:	50 e0       	ldi	r21, 0x00	; 0
     e84:	19 df       	rcall	.-462    	; 0xcb8 <WriteMem>
     e86:	ca 18       	sub	r12, r10
     e88:	d1 08       	sbc	r13, r1
     e8a:	41 f7       	brne	.-48     	; 0xe5c <__cmove20>
     e8c:	2c c0       	rjmp	.+88     	; 0xee6 <__cmove15>

00000e8e <__cmove>:
     e8e:	41 15       	cp	r20, r1
     e90:	51 05       	cpc	r21, r1
     e92:	81 f1       	breq	.+96     	; 0xef4 <__cmoveEnd>
     e94:	90 31       	cpi	r25, 0x10	; 16
     e96:	78 f1       	brcs	.+94     	; 0xef6 <__cmoveIntRamSrc>
     e98:	70 31       	cpi	r23, 0x10	; 16
     e9a:	98 f1       	brcs	.+102    	; 0xf02 <__cmoveIntRamDst>
     e9c:	df 92       	push	r13
     e9e:	cf 92       	push	r12
     ea0:	af 92       	push	r10
     ea2:	9f 92       	push	r9
     ea4:	8f 92       	push	r8
     ea6:	7f 92       	push	r7
     ea8:	6f 92       	push	r6
     eaa:	6a 01       	movw	r12, r20
     eac:	3c 01       	movw	r6, r24
     eae:	4b 01       	movw	r8, r22
     eb0:	86 17       	cp	r24, r22
     eb2:	97 07       	cpc	r25, r23
     eb4:	78 f2       	brcs	.-98     	; 0xe54 <__cmoveRev>

00000eb6 <__cmove10>:
     eb6:	a6 01       	movw	r20, r12
     eb8:	48 30       	cpi	r20, 0x08	; 8
     eba:	51 05       	cpc	r21, r1
     ebc:	08 f0       	brcs	.+2      	; 0xec0 <__cmove11>
     ebe:	48 e0       	ldi	r20, 0x08	; 8

00000ec0 <__cmove11>:
     ec0:	a4 2e       	mov	r10, r20
     ec2:	50 e0       	ldi	r21, 0x00	; 0
     ec4:	c3 01       	movw	r24, r6
     ec6:	69 e0       	ldi	r22, 0x09	; 9
     ec8:	71 e0       	ldi	r23, 0x01	; 1

00000eca <__cmove12>:
     eca:	27 df       	rcall	.-434    	; 0xd1a <_VmBulkRead>
     ecc:	c4 01       	movw	r24, r8
     ece:	69 e0       	ldi	r22, 0x09	; 9
     ed0:	71 e0       	ldi	r23, 0x01	; 1
     ed2:	4a 2d       	mov	r20, r10
     ed4:	50 e0       	ldi	r21, 0x00	; 0
     ed6:	f0 de       	rcall	.-544    	; 0xcb8 <WriteMem>
     ed8:	6a 0c       	add	r6, r10
     eda:	71 1c       	adc	r7, r1
     edc:	8a 0c       	add	r8, r10
     ede:	91 1c       	adc	r9, r1
     ee0:	ca 18       	sub	r12, r10
     ee2:	d1 08       	sbc	r13, r1
     ee4:	41 f7       	brne	.-48     	; 0xeb6 <__cmove10>

00000ee6 <__cmove15>:
     ee6:	6f 90       	pop	r6
     ee8:	7f 90       	pop	r7
     eea:	8f 90       	pop	r8
     eec:	9f 90       	pop	r9
     eee:	af 90       	pop	r10
     ef0:	cf 90       	pop	r12
     ef2:	df 90       	pop	r13

00000ef4 <__cmoveEnd>:
     ef4:	08 95       	ret

00000ef6 <__cmoveIntRamSrc>:
     ef6:	70 31       	cpi	r23, 0x10	; 16
     ef8:	30 f0       	brcs	.+12     	; 0xf06 <__cmoveIntRamSrcDst>
     efa:	fc 01       	movw	r30, r24
     efc:	cb 01       	movw	r24, r22
     efe:	bf 01       	movw	r22, r30
     f00:	db ce       	rjmp	.-586    	; 0xcb8 <WriteMem>

00000f02 <__cmoveIntRamDst>:
     f02:	0b df       	rcall	.-490    	; 0xd1a <_VmBulkRead>
     f04:	08 95       	ret

00000f06 <__cmoveIntRamSrcDst>:
     f06:	fc 01       	movw	r30, r24
     f08:	db 01       	movw	r26, r22
     f0a:	ca 01       	movw	r24, r20
     f0c:	ea 17       	cp	r30, r26
     f0e:	fb 07       	cpc	r31, r27
     f10:	28 f0       	brcs	.+10     	; 0xf1c <__cmoveIntRamSrcDst2>

00000f12 <__cmoveIntRamSrcDst1>:
     f12:	61 91       	ld	r22, Z+
     f14:	6d 93       	st	X+, r22
     f16:	01 97       	sbiw	r24, 0x01	; 1
     f18:	e1 f7       	brne	.-8      	; 0xf12 <__cmoveIntRamSrcDst1>
     f1a:	08 95       	ret

00000f1c <__cmoveIntRamSrcDst2>:
     f1c:	e8 0f       	add	r30, r24
     f1e:	f9 1f       	adc	r31, r25
     f20:	a8 0f       	add	r26, r24
     f22:	b9 1f       	adc	r27, r25

00000f24 <__cmoveIntRamSrcDst5>:
     f24:	62 91       	ld	r22, -Z
     f26:	6e 93       	st	-X, r22
     f28:	01 97       	sbiw	r24, 0x01	; 1
     f2a:	e1 f7       	brne	.-8      	; 0xf24 <__cmoveIntRamSrcDst5>
     f2c:	08 95       	ret

00000f2e <__fillC>:
     f2e:	29 98       	cbi	0x05, 1	; 5
     f30:	8e bd       	out	0x2e, r24	; 46
     f32:	05 d0       	rcall	.+10     	; 0xf3e <__fill>
     f34:	8d b5       	in	r24, 0x2d	; 45
     f36:	87 ff       	sbrs	r24, 7
     f38:	fd cf       	rjmp	.-6      	; 0xf34 <__fillC+0x6>
     f3a:	29 9a       	sbi	0x05, 1	; 5
     f3c:	08 95       	ret

00000f3e <__fill>:
     f3e:	61 15       	cp	r22, r1
     f40:	71 05       	cpc	r23, r1
     f42:	29 f1       	breq	.+74     	; 0xf8e <__fillEnd>
     f44:	90 31       	cpi	r25, 0x10	; 16
     f46:	20 f1       	brcs	.+72     	; 0xf90 <__fillInt>
     f48:	df 92       	push	r13
     f4a:	cf 92       	push	r12
     f4c:	bf 92       	push	r11
     f4e:	af 92       	push	r10
     f50:	6c 01       	movw	r12, r24
     f52:	5b 01       	movw	r10, r22
     f54:	68 30       	cpi	r22, 0x08	; 8
     f56:	71 05       	cpc	r23, r1
     f58:	08 f0       	brcs	.+2      	; 0xf5c <__fill01>
     f5a:	68 e0       	ldi	r22, 0x08	; 8

00000f5c <__fill01>:
     f5c:	70 e0       	ldi	r23, 0x00	; 0
     f5e:	a9 e0       	ldi	r26, 0x09	; 9
     f60:	b1 e0       	ldi	r27, 0x01	; 1
     f62:	17 d0       	rcall	.+46     	; 0xf92 <__fillInt0>

00000f64 <__fill02>:
     f64:	c6 01       	movw	r24, r12
     f66:	48 e0       	ldi	r20, 0x08	; 8
     f68:	50 e0       	ldi	r21, 0x00	; 0
     f6a:	a4 16       	cp	r10, r20
     f6c:	b5 06       	cpc	r11, r21
     f6e:	08 f4       	brcc	.+2      	; 0xf72 <__fill03>
     f70:	a5 01       	movw	r20, r10

00000f72 <__fill03>:
     f72:	a4 1a       	sub	r10, r20
     f74:	b5 0a       	sbc	r11, r21
     f76:	c4 0e       	add	r12, r20
     f78:	d5 1e       	adc	r13, r21
     f7a:	69 e0       	ldi	r22, 0x09	; 9
     f7c:	71 e0       	ldi	r23, 0x01	; 1
     f7e:	9c de       	rcall	.-712    	; 0xcb8 <WriteMem>
     f80:	a1 14       	cp	r10, r1
     f82:	b1 04       	cpc	r11, r1
     f84:	79 f7       	brne	.-34     	; 0xf64 <__fill02>
     f86:	af 90       	pop	r10
     f88:	bf 90       	pop	r11
     f8a:	cf 90       	pop	r12
     f8c:	df 90       	pop	r13

00000f8e <__fillEnd>:
     f8e:	08 95       	ret

00000f90 <__fillInt>:
     f90:	dc 01       	movw	r26, r24

00000f92 <__fillInt0>:
     f92:	cb 01       	movw	r24, r22

00000f94 <__fillInt1>:
     f94:	4d 93       	st	X+, r20
     f96:	01 97       	sbiw	r24, 0x01	; 1
     f98:	e9 f7       	brne	.-6      	; 0xf94 <__fillInt1>
     f9a:	08 95       	ret

00000f9c <VMWaitAndDisableRam>:
     f9c:	0d b4       	in	r0, 0x2d	; 45
     f9e:	07 fe       	sbrs	r0, 7
     fa0:	fd cf       	rjmp	.-6      	; 0xf9c <VMWaitAndDisableRam>
     fa2:	29 9a       	sbi	0x05, 1	; 5
     fa4:	08 95       	ret

00000fa6 <_VM>:
     fa6:	0e 94 13 03 	call	0x626	; 0x626 <ForthBoot>
     faa:	af ef       	ldi	r26, 0xFF	; 255
     fac:	b3 e0       	ldi	r27, 0x03	; 3

00000fae <_VM10>:
     fae:	ec 01       	movw	r28, r24
     fb0:	44 24       	eor	r4, r4
     fb2:	55 24       	eor	r5, r5
     fb4:	80 e0       	ldi	r24, 0x00	; 0
     fb6:	90 e0       	ldi	r25, 0x00	; 0
     fb8:	29 98       	cbi	0x05, 1	; 5
     fba:	0e 94 b0 02 	call	0x560	; 0x560 <SramAbsBeginRd>
     fbe:	8d e3       	ldi	r24, 0x3D	; 61
     fc0:	9a e0       	ldi	r25, 0x0A	; 10
     fc2:	3c 01       	movw	r6, r24

00000fc4 <_VMNextIntJump>:
     fc4:	d7 ff       	sbrs	r29, 7
     fc6:	52 c0       	rjmp	.+164    	; 0x106c <_VMNextRom>

00000fc8 <_VMNextIntJump10>:
     fc8:	8d b5       	in	r24, 0x2d	; 45
     fca:	87 ff       	sbrs	r24, 7
     fcc:	fd cf       	rjmp	.-6      	; 0xfc8 <_VMNextIntJump10>
     fce:	29 9a       	sbi	0x05, 1	; 5
     fd0:	23 e0       	ldi	r18, 0x03	; 3
     fd2:	29 98       	cbi	0x05, 1	; 5
     fd4:	f9 de       	rcall	.-526    	; 0xdc8 <_VmTrapJump>
     fd6:	32 c0       	rjmp	.+100    	; 0x103c <_VMNextRam>

00000fd8 <_VMNextJump>:
     fd8:	d7 ff       	sbrs	r29, 7
     fda:	27 c0       	rjmp	.+78     	; 0x102a <_VMNextJumpRom>

00000fdc <_VMNextJumpRam>:
     fdc:	8d b5       	in	r24, 0x2d	; 45
     fde:	87 ff       	sbrs	r24, 7
     fe0:	fd cf       	rjmp	.-6      	; 0xfdc <_VMNextJumpRam>
     fe2:	8e b5       	in	r24, 0x2e	; 46
     fe4:	29 9a       	sbi	0x05, 1	; 5
     fe6:	c8 0f       	add	r28, r24
     fe8:	d1 1d       	adc	r29, r1
     fea:	87 ff       	sbrs	r24, 7
     fec:	11 c0       	rjmp	.+34     	; 0x1010 <_VMNextJumpRam10>
     fee:	da 95       	dec	r29
     ff0:	c4 15       	cp	r28, r4
     ff2:	d5 05       	cpc	r29, r5
     ff4:	31 f4       	brne	.+12     	; 0x1002 <_VMNextJumpRam05>
     ff6:	21 96       	adiw	r28, 0x01	; 1
     ff8:	23 e0       	ldi	r18, 0x03	; 3
     ffa:	29 98       	cbi	0x05, 1	; 5
     ffc:	b7 de       	rcall	.-658    	; 0xd6c <_VmTrapJumpCached>
     ffe:	83 2d       	mov	r24, r3
    1000:	23 c0       	rjmp	.+70     	; 0x1048 <_VMNextRamCached>

00001002 <_VMNextJumpRam05>:
    1002:	2e 01       	movw	r4, r28
    1004:	23 e0       	ldi	r18, 0x03	; 3
    1006:	29 98       	cbi	0x05, 1	; 5
    1008:	df de       	rcall	.-578    	; 0xdc8 <_VmTrapJump>
    100a:	49 de       	rcall	.-878    	; 0xc9e <_VMSeqReadIP>
    100c:	38 2e       	mov	r3, r24
    100e:	1c c0       	rjmp	.+56     	; 0x1048 <_VMNextRamCached>

00001010 <_VMNextJumpRam10>:
    1010:	23 e0       	ldi	r18, 0x03	; 3
    1012:	29 98       	cbi	0x05, 1	; 5
    1014:	d9 de       	rcall	.-590    	; 0xdc8 <_VmTrapJump>
    1016:	12 c0       	rjmp	.+36     	; 0x103c <_VMNextRam>

00001018 <_VMNextWordRam>:
    1018:	cd b5       	in	r28, 0x2d	; 45
    101a:	c7 ff       	sbrs	r28, 7
    101c:	fd cf       	rjmp	.-6      	; 0x1018 <_VMNextWordRam>
    101e:	ce b5       	in	r28, 0x2e	; 46
    1020:	29 9a       	sbi	0x05, 1	; 5
    1022:	23 e0       	ldi	r18, 0x03	; 3
    1024:	29 98       	cbi	0x05, 1	; 5
    1026:	d0 de       	rcall	.-608    	; 0xdc8 <_VmTrapJump>
    1028:	09 c0       	rjmp	.+18     	; 0x103c <_VMNextRam>

0000102a <_VMNextJumpRom>:
    102a:	fe 01       	movw	r30, r28
    102c:	84 91       	lpm	r24, Z
    102e:	87 fd       	sbrc	r24, 7
    1030:	da 95       	dec	r29
    1032:	c8 0f       	add	r28, r24
    1034:	d1 1d       	adc	r29, r1
    1036:	1a c0       	rjmp	.+52     	; 0x106c <_VMNextRom>

00001038 <_VMNext>:
    1038:	d7 ff       	sbrs	r29, 7
    103a:	18 c0       	rjmp	.+48     	; 0x106c <_VMNextRom>

0000103c <_VMNextRam>:
    103c:	21 96       	adiw	r28, 0x01	; 1
    103e:	8d b5       	in	r24, 0x2d	; 45
    1040:	87 ff       	sbrs	r24, 7
    1042:	fd cf       	rjmp	.-6      	; 0x103e <_VMNextRam+0x2>
    1044:	8e b5       	in	r24, 0x2e	; 46
    1046:	8e bd       	out	0x2e, r24	; 46

00001048 <_VMNextRamCached>:
    1048:	8a 34       	cpi	r24, 0x4A	; 74
    104a:	20 f4       	brcc	.+8      	; 0x1054 <_VMNextWord>
    104c:	f3 01       	movw	r30, r6
    104e:	e8 0f       	add	r30, r24
    1050:	f1 1d       	adc	r31, r1
    1052:	09 94       	ijmp

00001054 <_VMNextWord>:
    1054:	21 96       	adiw	r28, 0x01	; 1
    1056:	df 93       	push	r29
    1058:	cf 93       	push	r28
    105a:	d8 2f       	mov	r29, r24
    105c:	87 fd       	sbrc	r24, 7
    105e:	dc cf       	rjmp	.-72     	; 0x1018 <_VMNextWordRam>
    1060:	cd b5       	in	r28, 0x2d	; 45
    1062:	c7 ff       	sbrs	r28, 7
    1064:	fd cf       	rjmp	.-6      	; 0x1060 <_VMNextWord+0xc>
    1066:	ce b5       	in	r28, 0x2e	; 46
    1068:	29 9a       	sbi	0x05, 1	; 5
    106a:	ce bd       	out	0x2e, r28	; 46

0000106c <_VMNextRom>:
    106c:	fe 01       	movw	r30, r28
    106e:	85 91       	lpm	r24, Z+
    1070:	21 96       	adiw	r28, 0x01	; 1

00001072 <_VMNext2>:
    1072:	8a 34       	cpi	r24, 0x4A	; 74
    1074:	20 f4       	brcc	.+8      	; 0x107e <_VMNextRomWord>

00001076 <_VMNextExecute>:
    1076:	f3 01       	movw	r30, r6
    1078:	e8 0f       	add	r30, r24
    107a:	f1 1d       	adc	r31, r1
    107c:	09 94       	ijmp

0000107e <_VMNextRomWord>:
    107e:	21 96       	adiw	r28, 0x01	; 1
    1080:	df 93       	push	r29
    1082:	cf 93       	push	r28
    1084:	d8 2f       	mov	r29, r24
    1086:	c5 91       	lpm	r28, Z+
    1088:	f1 cf       	rjmp	.-30     	; 0x106c <_VMNextRom>

0000108a <_VMkFigExecute>:
    108a:	c8 01       	movw	r24, r16
    108c:	1e 91       	ld	r17, -X
    108e:	0e 91       	ld	r16, -X
    1090:	8a 34       	cpi	r24, 0x4A	; 74
    1092:	91 05       	cpc	r25, r1
    1094:	80 f3       	brcs	.-32     	; 0x1076 <_VMNextExecute>

00001096 <_VMkFigExecute1>:
    1096:	df 93       	push	r29
    1098:	cf 93       	push	r28
    109a:	ec 01       	movw	r28, r24
    109c:	93 cf       	rjmp	.-218    	; 0xfc4 <_VMNextIntJump>

0000109e <_VMkFigZero>:
    109e:	0d 93       	st	X+, r16
    10a0:	1d 93       	st	X+, r17
    10a2:	10 e0       	ldi	r17, 0x00	; 0
    10a4:	00 e0       	ldi	r16, 0x00	; 0
    10a6:	c8 cf       	rjmp	.-112    	; 0x1038 <_VMNext>

000010a8 <_VMkFigLitC>:
    10a8:	90 e0       	ldi	r25, 0x00	; 0
    10aa:	02 c0       	rjmp	.+4      	; 0x10b0 <_VMkFigLit00>

000010ac <_VMkFigLit>:
    10ac:	f8 dd       	rcall	.-1040   	; 0xc9e <_VMSeqReadIP>
    10ae:	98 2f       	mov	r25, r24

000010b0 <_VMkFigLit00>:
    10b0:	0d 93       	st	X+, r16
    10b2:	1d 93       	st	X+, r17
    10b4:	f4 dd       	rcall	.-1048   	; 0xc9e <_VMSeqReadIP>
    10b6:	8c 01       	movw	r16, r24
    10b8:	bf cf       	rjmp	.-130    	; 0x1038 <_VMNext>

000010ba <_VMkFigDrop>:
    10ba:	1e 91       	ld	r17, -X
    10bc:	0e 91       	ld	r16, -X
    10be:	bc cf       	rjmp	.-136    	; 0x1038 <_VMNext>

000010c0 <_VMkFigOBranch>:
    10c0:	01 2b       	or	r16, r17
    10c2:	1e 91       	ld	r17, -X
    10c4:	0e 91       	ld	r16, -X
    10c6:	61 f4       	brne	.+24     	; 0x10e0 <_VMkFigSkipBranch>

000010c8 <_VMkFigBranch>:
    10c8:	87 cf       	rjmp	.-242    	; 0xfd8 <_VMNextJump>

000010ca <_VMkFigLoop>:
    10ca:	f6 01       	movw	r30, r12
    10cc:	31 96       	adiw	r30, 0x01	; 1
    10ce:	6f 01       	movw	r12, r30
    10d0:	ca 14       	cp	r12, r10
    10d2:	db 04       	cpc	r13, r11
    10d4:	0a f4       	brpl	.+2      	; 0x10d8 <_VMkFigLoop2>

000010d6 <_VMkFigLoop1>:
    10d6:	80 cf       	rjmp	.-256    	; 0xfd8 <_VMNextJump>

000010d8 <_VMkFigLoop2>:
    10d8:	cf 90       	pop	r12
    10da:	df 90       	pop	r13
    10dc:	af 90       	pop	r10
    10de:	bf 90       	pop	r11

000010e0 <_VMkFigSkipBranch>:
    10e0:	de dd       	rcall	.-1092   	; 0xc9e <_VMSeqReadIP>
    10e2:	aa cf       	rjmp	.-172    	; 0x1038 <_VMNext>

000010e4 <_VMkFigPlusLoop>:
    10e4:	f6 01       	movw	r30, r12
    10e6:	e0 0f       	add	r30, r16
    10e8:	f1 1f       	adc	r31, r17
    10ea:	6f 01       	movw	r12, r30
    10ec:	ea 19       	sub	r30, r10
    10ee:	fb 09       	sbc	r31, r11
    10f0:	f1 27       	eor	r31, r17
    10f2:	1e 91       	ld	r17, -X
    10f4:	0e 91       	ld	r16, -X
    10f6:	f7 fd       	sbrc	r31, 7
    10f8:	ee cf       	rjmp	.-36     	; 0x10d6 <_VMkFigLoop1>
    10fa:	ee cf       	rjmp	.-36     	; 0x10d8 <_VMkFigLoop2>

000010fc <_VMkFigDo>:
    10fc:	bf 92       	push	r11
    10fe:	af 92       	push	r10
    1100:	df 92       	push	r13
    1102:	cf 92       	push	r12
    1104:	68 01       	movw	r12, r16
    1106:	be 90       	ld	r11, -X
    1108:	ae 90       	ld	r10, -X
    110a:	1e 91       	ld	r17, -X
    110c:	0e 91       	ld	r16, -X
    110e:	94 cf       	rjmp	.-216    	; 0x1038 <_VMNext>

00001110 <_VMkFigUMult>:
    1110:	7e 91       	ld	r23, -X
    1112:	6e 91       	ld	r22, -X
    1114:	44 27       	eor	r20, r20
    1116:	06 9f       	mul	r16, r22
    1118:	40 01       	movw	r8, r0
    111a:	16 9f       	mul	r17, r22
    111c:	61 2d       	mov	r22, r1
    111e:	90 0c       	add	r9, r0
    1120:	64 1f       	adc	r22, r20
    1122:	07 9f       	mul	r16, r23
    1124:	90 0c       	add	r9, r0
    1126:	61 1d       	adc	r22, r1
    1128:	17 9f       	mul	r17, r23
    112a:	71 2d       	mov	r23, r1
    112c:	60 0d       	add	r22, r0
    112e:	74 1f       	adc	r23, r20
    1130:	8b 01       	movw	r16, r22
    1132:	8d 92       	st	X+, r8
    1134:	9d 92       	st	X+, r9
    1136:	11 24       	eor	r1, r1
    1138:	7f cf       	rjmp	.-258    	; 0x1038 <_VMNext>

0000113a <_VMkFigPortMod>:
    113a:	11 97       	sbiw	r26, 0x01	; 1
    113c:	8e 91       	ld	r24, -X
    113e:	11 97       	sbiw	r26, 0x01	; 1
    1140:	6e 91       	ld	r22, -X
    1142:	f8 01       	movw	r30, r16
    1144:	f8 94       	cli
    1146:	00 81       	ld	r16, Z
    1148:	80 23       	and	r24, r16
    114a:	86 2b       	or	r24, r22
    114c:	80 83       	st	Z, r24
    114e:	78 94       	sei
    1150:	11 27       	eor	r17, r17
    1152:	72 cf       	rjmp	.-284    	; 0x1038 <_VMNext>

00001154 <_VMkFigUDivMod>:
    1154:	9e 91       	ld	r25, -X
    1156:	8e 91       	ld	r24, -X
    1158:	7e 91       	ld	r23, -X
    115a:	6e 91       	ld	r22, -X
    115c:	80 17       	cp	r24, r16
    115e:	91 07       	cpc	r25, r17
    1160:	98 f4       	brcc	.+38     	; 0x1188 <_VMkFigUDivMod30>
    1162:	41 e1       	ldi	r20, 0x11	; 17
    1164:	07 c0       	rjmp	.+14     	; 0x1174 <_VMkFigUDivMod20>

00001166 <_VMkFigUDivMod10>:
    1166:	88 1f       	adc	r24, r24
    1168:	99 1f       	adc	r25, r25
    116a:	80 17       	cp	r24, r16
    116c:	91 07       	cpc	r25, r17
    116e:	10 f0       	brcs	.+4      	; 0x1174 <_VMkFigUDivMod20>
    1170:	80 1b       	sub	r24, r16
    1172:	91 0b       	sbc	r25, r17

00001174 <_VMkFigUDivMod20>:
    1174:	66 1f       	adc	r22, r22
    1176:	77 1f       	adc	r23, r23
    1178:	4a 95       	dec	r20
    117a:	a9 f7       	brne	.-22     	; 0x1166 <_VMkFigUDivMod10>
    117c:	60 95       	com	r22
    117e:	70 95       	com	r23

00001180 <_VMkFigUDivMod25>:
    1180:	8d 93       	st	X+, r24
    1182:	9d 93       	st	X+, r25
    1184:	8b 01       	movw	r16, r22
    1186:	58 cf       	rjmp	.-336    	; 0x1038 <_VMNext>

00001188 <_VMkFigUDivMod30>:
    1188:	8f ef       	ldi	r24, 0xFF	; 255
    118a:	9f ef       	ldi	r25, 0xFF	; 255
    118c:	f9 cf       	rjmp	.-14     	; 0x1180 <_VMkFigUDivMod25>

0000118e <_VMkFigOpAnd>:
    118e:	9e 91       	ld	r25, -X
    1190:	8e 91       	ld	r24, -X
    1192:	08 23       	and	r16, r24
    1194:	19 23       	and	r17, r25
    1196:	50 cf       	rjmp	.-352    	; 0x1038 <_VMNext>

00001198 <_VMkFigOpOr>:
    1198:	9e 91       	ld	r25, -X
    119a:	8e 91       	ld	r24, -X
    119c:	08 2b       	or	r16, r24
    119e:	19 2b       	or	r17, r25
    11a0:	4b cf       	rjmp	.-362    	; 0x1038 <_VMNext>

000011a2 <_VMkFigOpXor>:
    11a2:	9e 91       	ld	r25, -X
    11a4:	8e 91       	ld	r24, -X
    11a6:	08 27       	eor	r16, r24
    11a8:	19 27       	eor	r17, r25
    11aa:	46 cf       	rjmp	.-372    	; 0x1038 <_VMNext>

000011ac <_VMkFigLeave>:
    11ac:	65 01       	movw	r12, r10
    11ae:	44 cf       	rjmp	.-376    	; 0x1038 <_VMNext>

000011b0 <_VMkFigDoes>:
    11b0:	0d 93       	st	X+, r16
    11b2:	1d 93       	st	X+, r17
    11b4:	0f 91       	pop	r16
    11b6:	1f 91       	pop	r17
    11b8:	3f cf       	rjmp	.-386    	; 0x1038 <_VMNext>

000011ba <_VMkFigRFetch>:
    11ba:	0d 93       	st	X+, r16
    11bc:	1d 93       	st	X+, r17
    11be:	ed b7       	in	r30, 0x3d	; 61
    11c0:	fe b7       	in	r31, 0x3e	; 62
    11c2:	01 81       	ldd	r16, Z+1	; 0x01
    11c4:	12 81       	ldd	r17, Z+2	; 0x02
    11c6:	38 cf       	rjmp	.-400    	; 0x1038 <_VMNext>

000011c8 <_VMkFigToR>:
    11c8:	1f 93       	push	r17
    11ca:	0f 93       	push	r16
    11cc:	1e 91       	ld	r17, -X
    11ce:	0e 91       	ld	r16, -X
    11d0:	33 cf       	rjmp	.-410    	; 0x1038 <_VMNext>

000011d2 <_VMkFigZeroEq>:
    11d2:	01 2b       	or	r16, r17
    11d4:	09 f0       	breq	.+2      	; 0x11d8 <_VMkFigZeroEq1>
    11d6:	0f ef       	ldi	r16, 0xFF	; 255

000011d8 <_VMkFigZeroEq1>:
    11d8:	00 95       	com	r16
    11da:	10 2f       	mov	r17, r16
    11dc:	2d cf       	rjmp	.-422    	; 0x1038 <_VMNext>

000011de <_VMkFigZeroLt>:
    11de:	00 27       	eor	r16, r16
    11e0:	17 fd       	sbrc	r17, 7
    11e2:	00 95       	com	r16
    11e4:	10 2f       	mov	r17, r16
    11e6:	28 cf       	rjmp	.-432    	; 0x1038 <_VMNext>

000011e8 <_VMkFigOpSub>:
    11e8:	10 95       	com	r17
    11ea:	01 95       	neg	r16
    11ec:	1f 4f       	sbci	r17, 0xFF	; 255

000011ee <_VMkFigPlus>:
    11ee:	9e 91       	ld	r25, -X
    11f0:	8e 91       	ld	r24, -X
    11f2:	08 0f       	add	r16, r24
    11f4:	19 1f       	adc	r17, r25
    11f6:	20 cf       	rjmp	.-448    	; 0x1038 <_VMNext>

000011f8 <_VMkFigDPlus>:
    11f8:	9e 91       	ld	r25, -X
    11fa:	8e 91       	ld	r24, -X
    11fc:	7e 91       	ld	r23, -X
    11fe:	6e 91       	ld	r22, -X
    1200:	5e 91       	ld	r21, -X
    1202:	4e 91       	ld	r20, -X
    1204:	84 0f       	add	r24, r20
    1206:	95 1f       	adc	r25, r21
    1208:	06 1f       	adc	r16, r22
    120a:	17 1f       	adc	r17, r23
    120c:	8d 93       	st	X+, r24
    120e:	9d 93       	st	X+, r25
    1210:	13 cf       	rjmp	.-474    	; 0x1038 <_VMNext>

00001212 <_VMkFigMinus>:
    1212:	10 95       	com	r17
    1214:	01 95       	neg	r16
    1216:	1f 4f       	sbci	r17, 0xFF	; 255
    1218:	0f cf       	rjmp	.-482    	; 0x1038 <_VMNext>

0000121a <_VMkFigDMinus>:
    121a:	9e 91       	ld	r25, -X
    121c:	8e 91       	ld	r24, -X
    121e:	90 95       	com	r25
    1220:	00 95       	com	r16
    1222:	10 95       	com	r17
    1224:	81 95       	neg	r24
    1226:	9f 4f       	sbci	r25, 0xFF	; 255
    1228:	0f 4f       	sbci	r16, 0xFF	; 255
    122a:	1f 4f       	sbci	r17, 0xFF	; 255
    122c:	8d 93       	st	X+, r24
    122e:	9d 93       	st	X+, r25
    1230:	03 cf       	rjmp	.-506    	; 0x1038 <_VMNext>

00001232 <_VMkFigOver>:
    1232:	9e 91       	ld	r25, -X
    1234:	8e 91       	ld	r24, -X
    1236:	12 96       	adiw	r26, 0x02	; 2
    1238:	0d 93       	st	X+, r16
    123a:	1d 93       	st	X+, r17
    123c:	8c 01       	movw	r16, r24
    123e:	fc ce       	rjmp	.-520    	; 0x1038 <_VMNext>

00001240 <_VMkFig2Over>:
    1240:	0d 93       	st	X+, r16
    1242:	1d 93       	st	X+, r17
    1244:	fd 01       	movw	r30, r26
    1246:	38 97       	sbiw	r30, 0x08	; 8
    1248:	00 80       	ld	r0, Z
    124a:	0d 92       	st	X+, r0
    124c:	01 80       	ldd	r0, Z+1	; 0x01
    124e:	0d 92       	st	X+, r0
    1250:	02 81       	ldd	r16, Z+2	; 0x02
    1252:	13 81       	ldd	r17, Z+3	; 0x03
    1254:	f1 ce       	rjmp	.-542    	; 0x1038 <_VMNext>

00001256 <_VMkFigSwap>:
    1256:	9e 91       	ld	r25, -X
    1258:	8e 91       	ld	r24, -X
    125a:	0d 93       	st	X+, r16
    125c:	1d 93       	st	X+, r17
    125e:	8c 01       	movw	r16, r24
    1260:	eb ce       	rjmp	.-554    	; 0x1038 <_VMNext>

00001262 <_VMkFig2Swap>:
    1262:	fd 01       	movw	r30, r26
    1264:	36 97       	sbiw	r30, 0x06	; 6
    1266:	82 81       	ldd	r24, Z+2	; 0x02
    1268:	93 81       	ldd	r25, Z+3	; 0x03
    126a:	02 83       	std	Z+2, r16	; 0x02
    126c:	13 83       	std	Z+3, r17	; 0x03
    126e:	8c 01       	movw	r16, r24
    1270:	80 81       	ld	r24, Z
    1272:	94 81       	ldd	r25, Z+4	; 0x04
    1274:	84 83       	std	Z+4, r24	; 0x04
    1276:	90 83       	st	Z, r25
    1278:	81 81       	ldd	r24, Z+1	; 0x01
    127a:	95 81       	ldd	r25, Z+5	; 0x05
    127c:	85 83       	std	Z+5, r24	; 0x05
    127e:	91 83       	std	Z+1, r25	; 0x01
    1280:	db ce       	rjmp	.-586    	; 0x1038 <_VMNext>

00001282 <_VMkFigDup>:
    1282:	0d 93       	st	X+, r16
    1284:	1d 93       	st	X+, r17
    1286:	d8 ce       	rjmp	.-592    	; 0x1038 <_VMNext>

00001288 <_VMkFigFetch>:
    1288:	42 e0       	ldi	r20, 0x02	; 2
    128a:	68 e0       	ldi	r22, 0x08	; 8
    128c:	03 c0       	rjmp	.+6      	; 0x1294 <_VMkFigFetch1>

0000128e <_VMkFigCFetch>:
    128e:	41 e0       	ldi	r20, 0x01	; 1
    1290:	69 e0       	ldi	r22, 0x09	; 9
    1292:	88 24       	eor	r8, r8

00001294 <_VMkFigFetch1>:
    1294:	3e dd       	rcall	.-1412   	; 0xd12 <_VmBulkReadForthFetch>
    1296:	d7 01       	movw	r26, r14
    1298:	09 2d       	mov	r16, r9
    129a:	18 2d       	mov	r17, r8
    129c:	93 ce       	rjmp	.-730    	; 0xfc4 <_VMNextIntJump>

0000129e <_VMkFigDFetch>:
    129e:	60 e1       	ldi	r22, 0x10	; 16
    12a0:	44 e0       	ldi	r20, 0x04	; 4
    12a2:	37 dd       	rcall	.-1426   	; 0xd12 <_VmBulkReadForthFetch>
    12a4:	d7 01       	movw	r26, r14
    12a6:	1d 93       	st	X+, r17
    12a8:	0d 93       	st	X+, r16
    12aa:	03 2f       	mov	r16, r19
    12ac:	12 2f       	mov	r17, r18
    12ae:	8a ce       	rjmp	.-748    	; 0xfc4 <_VMNextIntJump>

000012b0 <_VMkFigCPling>:
    12b0:	41 e0       	ldi	r20, 0x01	; 1
    12b2:	c8 01       	movw	r24, r16
    12b4:	1e 91       	ld	r17, -X
    12b6:	0e 91       	ld	r16, -X
    12b8:	08 c0       	rjmp	.+16     	; 0x12ca <_VMkFigCPling1>

000012ba <_VMkFigDStore>:
    12ba:	2e 91       	ld	r18, -X
    12bc:	3e 91       	ld	r19, -X
    12be:	44 e0       	ldi	r20, 0x04	; 4
    12c0:	01 c0       	rjmp	.+2      	; 0x12c4 <_VMkFigDPling1>

000012c2 <_VMkFigPling>:
    12c2:	42 e0       	ldi	r20, 0x02	; 2

000012c4 <_VMkFigDPling1>:
    12c4:	c8 01       	movw	r24, r16
    12c6:	0e 91       	ld	r16, -X
    12c8:	1e 91       	ld	r17, -X

000012ca <_VMkFigCPling1>:
    12ca:	60 e1       	ldi	r22, 0x10	; 16
    12cc:	70 e0       	ldi	r23, 0x00	; 0
    12ce:	50 e0       	ldi	r21, 0x00	; 0
    12d0:	f3 dc       	rcall	.-1562   	; 0xcb8 <WriteMem>
    12d2:	1e 91       	ld	r17, -X
    12d4:	0e 91       	ld	r16, -X
    12d6:	0d b4       	in	r0, 0x2d	; 45
    12d8:	07 fe       	sbrs	r0, 7
    12da:	fd cf       	rjmp	.-6      	; 0x12d6 <_VMkFigCPling1+0xc>
    12dc:	29 9a       	sbi	0x05, 1	; 5
    12de:	ce bd       	out	0x2e, r28	; 46
    12e0:	71 ce       	rjmp	.-798    	; 0xfc4 <_VMNextIntJump>

000012e2 <_VMkFigGetI>:
    12e2:	0d 93       	st	X+, r16
    12e4:	1d 93       	st	X+, r17
    12e6:	86 01       	movw	r16, r12
    12e8:	a7 ce       	rjmp	.-690    	; 0x1038 <_VMNext>

000012ea <_VMkFigInc>:
    12ea:	0f 5f       	subi	r16, 0xFF	; 255
    12ec:	1f 4f       	sbci	r17, 0xFF	; 255
    12ee:	a4 ce       	rjmp	.-696    	; 0x1038 <_VMNext>

000012f0 <_VMkFigNative>:
    12f0:	fe 01       	movw	r30, r28
    12f2:	31 96       	adiw	r30, 0x01	; 1
    12f4:	f6 95       	lsr	r31
    12f6:	e7 95       	ror	r30
    12f8:	09 94       	ijmp

000012fa <_VMkFigIntCFetch>:
    12fa:	f8 01       	movw	r30, r16
    12fc:	00 81       	ld	r16, Z
    12fe:	11 27       	eor	r17, r17
    1300:	9b ce       	rjmp	.-714    	; 0x1038 <_VMNext>

00001302 <_VMkFigIntCStore>:
    1302:	11 97       	sbiw	r26, 0x01	; 1
    1304:	8e 91       	ld	r24, -X
    1306:	f8 01       	movw	r30, r16
    1308:	1e 91       	ld	r17, -X
    130a:	0e 91       	ld	r16, -X
    130c:	80 83       	st	Z, r24
    130e:	94 ce       	rjmp	.-728    	; 0x1038 <_VMNext>

00001310 <_VMkFigIndexStackFrame>:
    1310:	0d 93       	st	X+, r16
    1312:	1d 93       	st	X+, r17

00001314 <_VMkFigIndexStackFrame10>:
    1314:	00 91 12 01 	lds	r16, 0x0112
    1318:	10 91 13 01 	lds	r17, 0x0113
    131c:	08 0f       	add	r16, r24
    131e:	11 1d       	adc	r17, r1
    1320:	08 95       	ret

00001322 <_VMkFigSFGet>:
    1322:	bd dc       	rcall	.-1670   	; 0xc9e <_VMSeqReadIP>
    1324:	f5 df       	rcall	.-22     	; 0x1310 <_VMkFigIndexStackFrame>

00001326 <_VMkFigIntFetch>:
    1326:	f8 01       	movw	r30, r16
    1328:	f8 94       	cli
    132a:	01 91       	ld	r16, Z+
    132c:	10 81       	ld	r17, Z
    132e:	78 94       	sei
    1330:	83 ce       	rjmp	.-762    	; 0x1038 <_VMNext>

00001332 <_VMkFigSFPut>:
    1332:	b5 dc       	rcall	.-1686   	; 0xc9e <_VMSeqReadIP>
    1334:	ed df       	rcall	.-38     	; 0x1310 <_VMkFigIndexStackFrame>

00001336 <_VMkFigIntStore>:
    1336:	9e 91       	ld	r25, -X
    1338:	8e 91       	ld	r24, -X
    133a:	f8 01       	movw	r30, r16
    133c:	1e 91       	ld	r17, -X
    133e:	0e 91       	ld	r16, -X
    1340:	f8 94       	cli
    1342:	81 93       	st	Z+, r24
    1344:	90 83       	st	Z, r25
    1346:	78 94       	sei
    1348:	77 ce       	rjmp	.-786    	; 0x1038 <_VMNext>

0000134a <_VMkFigEmit>:
    134a:	c8 01       	movw	r24, r16
    134c:	7d 01       	movw	r14, r26
    134e:	0e 94 a7 01 	call	0x34e	; 0x34e <EmitW>
    1352:	d7 01       	movw	r26, r14
    1354:	f0 9b       	sbis	0x1e, 0	; 30
    1356:	b1 ce       	rjmp	.-670    	; 0x10ba <_VMkFigDrop>
    1358:	60 c0       	rjmp	.+192    	; 0x141a <_VMDropIntJump>

0000135a <_VMkFigDotHex>:
    135a:	c8 01       	movw	r24, r16
    135c:	7d 01       	movw	r14, r26
    135e:	0e 94 dd 01 	call	0x3ba	; 0x3ba <DotHex>
    1362:	d7 01       	movw	r26, r14
    1364:	f0 9b       	sbis	0x1e, 0	; 30
    1366:	a9 ce       	rjmp	.-686    	; 0x10ba <_VMkFigDrop>
    1368:	58 c0       	rjmp	.+176    	; 0x141a <_VMDropIntJump>

0000136a <_VMkFigAt>:
    136a:	ea e4       	ldi	r30, 0x4A	; 74
    136c:	f1 e0       	ldi	r31, 0x01	; 1

0000136e <_VMCallCvoidFnP2>:
    136e:	b8 01       	movw	r22, r16
    1370:	4f c0       	rjmp	.+158    	; 0x1410 <_VMCallCvoidFnP2b>

00001372 <_VMkFigExit>:
    1372:	cf 91       	pop	r28
    1374:	df 91       	pop	r29
    1376:	26 ce       	rjmp	.-948    	; 0xfc4 <_VMNextIntJump>

00001378 <_VMkFigDec>:
    1378:	01 50       	subi	r16, 0x01	; 1
    137a:	10 40       	sbci	r17, 0x00	; 0
    137c:	5d ce       	rjmp	.-838    	; 0x1038 <_VMNext>

0000137e <_VMkFigFill>:
    137e:	ef e9       	ldi	r30, 0x9F	; 159
    1380:	f7 e0       	ldi	r31, 0x07	; 7
    1382:	43 c0       	rjmp	.+134    	; 0x140a <_VMCallCVoidFnP3>

00001384 <_VMkFigLsr>:
    1384:	9e 91       	ld	r25, -X
    1386:	8e 91       	ld	r24, -X
    1388:	04 c0       	rjmp	.+8      	; 0x1392 <_VMkFigLsr2>

0000138a <_VMkFigLsr1>:
    138a:	89 2f       	mov	r24, r25
    138c:	99 27       	eor	r25, r25
    138e:	08 50       	subi	r16, 0x08	; 8
    1390:	10 40       	sbci	r17, 0x00	; 0

00001392 <_VMkFigLsr2>:
    1392:	08 30       	cpi	r16, 0x08	; 8
    1394:	11 05       	cpc	r17, r1
    1396:	c8 f7       	brcc	.-14     	; 0x138a <_VMkFigLsr1>
    1398:	02 c0       	rjmp	.+4      	; 0x139e <_VMkFigLsr4>

0000139a <_VMkFigLsr3>:
    139a:	96 95       	lsr	r25
    139c:	87 95       	ror	r24

0000139e <_VMkFigLsr4>:
    139e:	0a 95       	dec	r16
    13a0:	e2 f7       	brpl	.-8      	; 0x139a <_VMkFigLsr3>
    13a2:	8c 01       	movw	r16, r24
    13a4:	49 ce       	rjmp	.-878    	; 0x1038 <_VMNext>

000013a6 <_VMkFigLsl>:
    13a6:	9e 91       	ld	r25, -X
    13a8:	8e 91       	ld	r24, -X
    13aa:	04 c0       	rjmp	.+8      	; 0x13b4 <_VMkFigLsl2>

000013ac <_VMkFigLsl1>:
    13ac:	98 2f       	mov	r25, r24
    13ae:	88 27       	eor	r24, r24
    13b0:	08 50       	subi	r16, 0x08	; 8
    13b2:	10 40       	sbci	r17, 0x00	; 0

000013b4 <_VMkFigLsl2>:
    13b4:	08 30       	cpi	r16, 0x08	; 8
    13b6:	11 05       	cpc	r17, r1
    13b8:	c8 f7       	brcc	.-14     	; 0x13ac <_VMkFigLsl1>
    13ba:	02 c0       	rjmp	.+4      	; 0x13c0 <_VMkFigLsl4>

000013bc <_VMkFigLsl3>:
    13bc:	88 0f       	add	r24, r24
    13be:	99 1f       	adc	r25, r25

000013c0 <_VMkFigLsl4>:
    13c0:	0a 95       	dec	r16
    13c2:	e2 f7       	brpl	.-8      	; 0x13bc <_VMkFigLsl3>
    13c4:	8c 01       	movw	r16, r24
    13c6:	38 ce       	rjmp	.-912    	; 0x1038 <_VMNext>

000013c8 <_VMkFigSerialFlashReadBlock>:
    13c8:	eb ef       	ldi	r30, 0xFB	; 251
    13ca:	f0 e0       	ldi	r31, 0x00	; 0

000013cc <_VMkFigSerialFlashPrepCallP2>:
    13cc:	b8 01       	movw	r22, r16
    13ce:	9e 91       	ld	r25, -X
    13d0:	8e 91       	ld	r24, -X

000013d2 <_VMkFigSerialFlashPrepCallP1>:
    13d2:	7d 01       	movw	r14, r26
    13d4:	e3 dd       	rcall	.-1082   	; 0xf9c <VMWaitAndDisableRam>
    13d6:	09 95       	icall
    13d8:	29 98       	cbi	0x05, 1	; 5
    13da:	85 e0       	ldi	r24, 0x05	; 5
    13dc:	8e bd       	out	0x2e, r24	; 46
    13de:	1c c0       	rjmp	.+56     	; 0x1418 <_VMCallCvoidFnDone>

000013e0 <_VMkFigSerialFlashWriteBlock>:
    13e0:	e2 e1       	ldi	r30, 0x12	; 18
    13e2:	f1 e0       	ldi	r31, 0x01	; 1
    13e4:	f3 cf       	rjmp	.-26     	; 0x13cc <_VMkFigSerialFlashPrepCallP2>

000013e6 <_VMkFigSerialFlashEraseSector>:
    13e6:	ec ed       	ldi	r30, 0xDC	; 220
    13e8:	f0 e0       	ldi	r31, 0x00	; 0
    13ea:	c8 01       	movw	r24, r16
    13ec:	f2 cf       	rjmp	.-28     	; 0x13d2 <_VMkFigSerialFlashPrepCallP1>

000013ee <_VMkFigSerialFlashID>:
    13ee:	7d 01       	movw	r14, r26
    13f0:	d5 dd       	rcall	.-1110   	; 0xf9c <VMWaitAndDisableRam>
    13f2:	0e 94 9e 00 	call	0x13c	; 0x13c <SerialFlashID>
    13f6:	d7 01       	movw	r26, r14
    13f8:	0d 93       	st	X+, r16
    13fa:	1d 93       	st	X+, r17
    13fc:	8c 01       	movw	r16, r24
    13fe:	29 98       	cbi	0x05, 1	; 5
    1400:	85 e0       	ldi	r24, 0x05	; 5
    1402:	8e bd       	out	0x2e, r24	; 46
    1404:	df cd       	rjmp	.-1090   	; 0xfc4 <_VMNextIntJump>

00001406 <_VMkFigCMove>:
    1406:	e7 e4       	ldi	r30, 0x47	; 71
    1408:	f7 e0       	ldi	r31, 0x07	; 7

0000140a <_VMCallCVoidFnP3>:
    140a:	a8 01       	movw	r20, r16

0000140c <_VMCallCVoidFnP3b>:
    140c:	7e 91       	ld	r23, -X
    140e:	6e 91       	ld	r22, -X

00001410 <_VMCallCvoidFnP2b>:
    1410:	9e 91       	ld	r25, -X
    1412:	8e 91       	ld	r24, -X

00001414 <_VMCallCvoidFn>:
    1414:	7d 01       	movw	r14, r26
    1416:	09 95       	icall

00001418 <_VMCallCvoidFnDone>:
    1418:	d7 01       	movw	r26, r14

0000141a <_VMDropIntJump>:
    141a:	1e 91       	ld	r17, -X
    141c:	0e 91       	ld	r16, -X
    141e:	d2 cd       	rjmp	.-1116   	; 0xfc4 <_VMNextIntJump>

00001420 <_VMkFigPlot>:
    1420:	ef e9       	ldi	r30, 0x9F	; 159
    1422:	f2 e0       	ldi	r31, 0x02	; 2
    1424:	a4 cf       	rjmp	.-184    	; 0x136e <_VMCallCvoidFnP2>

00001426 <_VMkFigSpi>:
    1426:	c8 01       	movw	r24, r16
    1428:	7d 01       	movw	r14, r26
    142a:	0e 94 d8 02 	call	0x5b0	; 0x5b0 <SpiDrv>

0000142e <_VMkRestoreDPDropIntJump>:
    142e:	d7 01       	movw	r26, r14
    1430:	f4 cf       	rjmp	.-24     	; 0x141a <_VMDropIntJump>

00001432 <_VMkFigTrace>:
    1432:	02 ce       	rjmp	.-1020   	; 0x1038 <_VMNext>

00001434 <_VMkFigDumpDict>:
    1434:	c8 01       	movw	r24, r16
    1436:	41 ce       	rjmp	.-894    	; 0x10ba <_VMkFigDrop>

00001438 <_VMkFigVarDoes>:
    1438:	0d 93       	st	X+, r16
    143a:	1d 93       	st	X+, r17
    143c:	8e 01       	movw	r16, r28
    143e:	99 cf       	rjmp	.-206    	; 0x1372 <_VMkFigExit>

00001440 <_VMkFigDConstDoes>:
    1440:	02 d0       	rcall	.+4      	; 0x1446 <_VMConstWord>

00001442 <_VMkFigConstDoes>:
    1442:	01 d0       	rcall	.+2      	; 0x1446 <_VMConstWord>
    1444:	96 cf       	rjmp	.-212    	; 0x1372 <_VMkFigExit>

00001446 <_VMConstWord>:
    1446:	0d 93       	st	X+, r16
    1448:	1d 93       	st	X+, r17
    144a:	29 dc       	rcall	.-1966   	; 0xc9e <_VMSeqReadIP>
    144c:	18 2f       	mov	r17, r24
    144e:	27 dc       	rcall	.-1970   	; 0xc9e <_VMSeqReadIP>
    1450:	08 2f       	mov	r16, r24
    1452:	08 95       	ret

00001454 <_VMkkFigTile>:
    1454:	ef e7       	ldi	r30, 0x7F	; 127
    1456:	f4 e0       	ldi	r31, 0x04	; 4
    1458:	d8 cf       	rjmp	.-80     	; 0x140a <_VMCallCVoidFnP3>

0000145a <_VMkkFigBlt>:
    145a:	e4 eb       	ldi	r30, 0xB4	; 180
    145c:	f5 e0       	ldi	r31, 0x05	; 5
    145e:	87 cf       	rjmp	.-242    	; 0x136e <_VMCallCvoidFnP2>

00001460 <_VMkkFig2Blt>:
    1460:	0e 94 ba 05 	call	0xb74	; 0xb74 <Blit2Blt>
    1464:	e4 cf       	rjmp	.-56     	; 0x142e <_VMkRestoreDPDropIntJump>

00001466 <_VMkkFigBlts>:
    1466:	e7 ed       	ldi	r30, 0xD7	; 215
    1468:	f5 e0       	ldi	r31, 0x05	; 5

0000146a <_VMCallCVoidFnP4>:
    146a:	98 01       	movw	r18, r16
    146c:	5e 91       	ld	r21, -X
    146e:	4e 91       	ld	r20, -X
    1470:	cd cf       	rjmp	.-102    	; 0x140c <_VMCallCVoidFnP3b>

00001472 <_VMkkFigClip>:
    1472:	ef e8       	ldi	r30, 0x8F	; 143
    1474:	f4 e0       	ldi	r31, 0x04	; 4
    1476:	7b cf       	rjmp	.-266    	; 0x136e <_VMCallCvoidFnP2>

00001478 <_VMkFigUndefined>:
    1478:	96 cd       	rjmp	.-1236   	; 0xfa6 <_VM>

0000147a <_VMVecBase>:
    147a:	de cd       	rjmp	.-1092   	; 0x1038 <_VMNext>
    147c:	17 ce       	rjmp	.-978    	; 0x10ac <_VMkFigLit>
    147e:	05 ce       	rjmp	.-1014   	; 0x108a <_VMkFigExecute>
    1480:	1c ce       	rjmp	.-968    	; 0x10ba <_VMkFigDrop>
    1482:	1e ce       	rjmp	.-964    	; 0x10c0 <_VMkFigOBranch>
    1484:	21 ce       	rjmp	.-958    	; 0x10c8 <_VMkFigBranch>
    1486:	21 ce       	rjmp	.-958    	; 0x10ca <_VMkFigLoop>
    1488:	2d ce       	rjmp	.-934    	; 0x10e4 <_VMkFigPlusLoop>
    148a:	38 ce       	rjmp	.-912    	; 0x10fc <_VMkFigDo>
    148c:	41 ce       	rjmp	.-894    	; 0x1110 <_VMkFigUMult>
    148e:	55 ce       	rjmp	.-854    	; 0x113a <_VMkFigPortMod>
    1490:	61 ce       	rjmp	.-830    	; 0x1154 <_VMkFigUDivMod>
    1492:	7d ce       	rjmp	.-774    	; 0x118e <_VMkFigOpAnd>
    1494:	81 ce       	rjmp	.-766    	; 0x1198 <_VMkFigOpOr>
    1496:	85 ce       	rjmp	.-758    	; 0x11a2 <_VMkFigOpXor>
    1498:	89 ce       	rjmp	.-750    	; 0x11ac <_VMkFigLeave>
    149a:	8a ce       	rjmp	.-748    	; 0x11b0 <_VMkFigDoes>
    149c:	89 ce       	rjmp	.-750    	; 0x11b0 <_VMkFigDoes>
    149e:	8d ce       	rjmp	.-742    	; 0x11ba <_VMkFigRFetch>
    14a0:	93 ce       	rjmp	.-730    	; 0x11c8 <_VMkFigToR>
    14a2:	97 ce       	rjmp	.-722    	; 0x11d2 <_VMkFigZeroEq>
    14a4:	9c ce       	rjmp	.-712    	; 0x11de <_VMkFigZeroLt>
    14a6:	a3 ce       	rjmp	.-698    	; 0x11ee <_VMkFigPlus>
    14a8:	a7 ce       	rjmp	.-690    	; 0x11f8 <_VMkFigDPlus>
    14aa:	b3 ce       	rjmp	.-666    	; 0x1212 <_VMkFigMinus>
    14ac:	b6 ce       	rjmp	.-660    	; 0x121a <_VMkFigDMinus>
    14ae:	c1 ce       	rjmp	.-638    	; 0x1232 <_VMkFigOver>
    14b0:	d2 ce       	rjmp	.-604    	; 0x1256 <_VMkFigSwap>
    14b2:	e7 ce       	rjmp	.-562    	; 0x1282 <_VMkFigDup>
    14b4:	e9 ce       	rjmp	.-558    	; 0x1288 <_VMkFigFetch>
    14b6:	eb ce       	rjmp	.-554    	; 0x128e <_VMkFigCFetch>
    14b8:	fb ce       	rjmp	.-522    	; 0x12b0 <_VMkFigCPling>
    14ba:	03 cf       	rjmp	.-506    	; 0x12c2 <_VMkFigPling>
    14bc:	12 cf       	rjmp	.-476    	; 0x12e2 <_VMkFigGetI>
    14be:	15 cf       	rjmp	.-470    	; 0x12ea <_VMkFigInc>
    14c0:	17 cf       	rjmp	.-466    	; 0x12f0 <_VMkFigNative>
    14c2:	1b cf       	rjmp	.-458    	; 0x12fa <_VMkFigIntCFetch>
    14c4:	1e cf       	rjmp	.-452    	; 0x1302 <_VMkFigIntCStore>
    14c6:	2f cf       	rjmp	.-418    	; 0x1326 <_VMkFigIntFetch>
    14c8:	36 cf       	rjmp	.-404    	; 0x1336 <_VMkFigIntStore>
    14ca:	3f cf       	rjmp	.-386    	; 0x134a <_VMkFigEmit>
    14cc:	2a cf       	rjmp	.-428    	; 0x1322 <_VMkFigSFGet>
    14ce:	45 cf       	rjmp	.-374    	; 0x135a <_VMkFigDotHex>
    14d0:	e6 cd       	rjmp	.-1076   	; 0x109e <_VMkFigZero>
    14d2:	ea cd       	rjmp	.-1068   	; 0x10a8 <_VMkFigLitC>
    14d4:	4a cf       	rjmp	.-364    	; 0x136a <_VMkFigAt>
    14d6:	4d cf       	rjmp	.-358    	; 0x1372 <_VMkFigExit>
    14d8:	4f cf       	rjmp	.-354    	; 0x1378 <_VMkFigDec>
    14da:	51 cf       	rjmp	.-350    	; 0x137e <_VMkFigFill>
    14dc:	2a cf       	rjmp	.-428    	; 0x1332 <_VMkFigSFPut>
    14de:	52 cf       	rjmp	.-348    	; 0x1384 <_VMkFigLsr>
    14e0:	62 cf       	rjmp	.-316    	; 0x13a6 <_VMkFigLsl>
    14e2:	72 cf       	rjmp	.-284    	; 0x13c8 <_VMkFigSerialFlashReadBlock>
    14e4:	7d cf       	rjmp	.-262    	; 0x13e0 <_VMkFigSerialFlashWriteBlock>
    14e6:	8f cf       	rjmp	.-226    	; 0x1406 <_VMkFigCMove>
    14e8:	9b cf       	rjmp	.-202    	; 0x1420 <_VMkFigPlot>
    14ea:	9d cf       	rjmp	.-198    	; 0x1426 <_VMkFigSpi>
    14ec:	a2 cf       	rjmp	.-188    	; 0x1432 <_VMkFigTrace>
    14ee:	a2 cf       	rjmp	.-188    	; 0x1434 <_VMkFigDumpDict>
    14f0:	a3 cf       	rjmp	.-186    	; 0x1438 <_VMkFigVarDoes>
    14f2:	a7 cf       	rjmp	.-178    	; 0x1442 <_VMkFigConstDoes>
    14f4:	af cf       	rjmp	.-162    	; 0x1454 <_VMkkFigTile>
    14f6:	b1 cf       	rjmp	.-158    	; 0x145a <_VMkkFigBlt>
    14f8:	b3 cf       	rjmp	.-154    	; 0x1460 <_VMkkFig2Blt>
    14fa:	b5 cf       	rjmp	.-150    	; 0x1466 <_VMkkFigBlts>
    14fc:	ba cf       	rjmp	.-140    	; 0x1472 <_VMkkFigClip>
    14fe:	74 ce       	rjmp	.-792    	; 0x11e8 <_VMkFigOpSub>
    1500:	72 cf       	rjmp	.-284    	; 0x13e6 <_VMkFigSerialFlashEraseSector>
    1502:	75 cf       	rjmp	.-278    	; 0x13ee <_VMkFigSerialFlashID>
    1504:	cc ce       	rjmp	.-616    	; 0x129e <_VMkFigDFetch>
    1506:	d9 ce       	rjmp	.-590    	; 0x12ba <_VMkFigDStore>
    1508:	9b cf       	rjmp	.-202    	; 0x1440 <_VMkFigDConstDoes>
    150a:	9a ce       	rjmp	.-716    	; 0x1240 <_VMkFig2Over>
    150c:	aa ce       	rjmp	.-684    	; 0x1262 <_VMkFig2Swap>

0000150e <VideoScan>:
    150e:	0f 92       	push	r0
    1510:	1f 92       	push	r1
    1512:	ef 93       	push	r30
    1514:	ff 93       	push	r31
    1516:	0f 93       	push	r16
    1518:	af 93       	push	r26
    151a:	bf 93       	push	r27
    151c:	cf 93       	push	r28
    151e:	df 93       	push	r29
    1520:	e4 e8       	ldi	r30, 0x84	; 132
    1522:	f0 e0       	ldi	r31, 0x00	; 0
    1524:	00 80       	ld	r0, Z
    1526:	10 80       	ld	r1, Z
    1528:	c0 81       	ld	r28, Z
    152a:	d0 81       	ld	r29, Z
    152c:	03 94       	inc	r0
    152e:	00 81       	ld	r16, Z
    1530:	a0 81       	ld	r26, Z
    1532:	b0 81       	ld	r27, Z
    1534:	e0 81       	ld	r30, Z
    1536:	c0 15       	cp	r28, r0
    1538:	29 f0       	breq	.+10     	; 0x1544 <VideoScanSync10>
    153a:	d0 15       	cp	r29, r0
    153c:	41 f0       	breq	.+16     	; 0x154e <VideoScanSync20>
    153e:	e0 15       	cp	r30, r0
    1540:	79 f4       	brne	.+30     	; 0x1560 <VideoScanSyncDone>
    1542:	0e c0       	rjmp	.+28     	; 0x1560 <VideoScanSyncDone>

00001544 <VideoScanSync10>:
    1544:	10 14       	cp	r1, r0
    1546:	31 f0       	breq	.+12     	; 0x1554 <VideoScanSync14>
    1548:	a0 15       	cp	r26, r0
    154a:	41 f4       	brne	.+16     	; 0x155c <VideoScanSyncDone3>
    154c:	07 c0       	rjmp	.+14     	; 0x155c <VideoScanSyncDone3>

0000154e <VideoScanSync20>:
    154e:	b0 15       	cp	r27, r0
    1550:	21 f4       	brne	.+8      	; 0x155a <VideoScanSyncDone5>
    1552:	03 c0       	rjmp	.+6      	; 0x155a <VideoScanSyncDone5>

00001554 <VideoScanSync14>:
    1554:	00 15       	cp	r16, r0
    1556:	21 f4       	brne	.+8      	; 0x1560 <VideoScanSyncDone>
    1558:	03 c0       	rjmp	.+6      	; 0x1560 <VideoScanSyncDone>

0000155a <VideoScanSyncDone5>:
    155a:	00 c0       	rjmp	.+0      	; 0x155c <VideoScanSyncDone3>

0000155c <VideoScanSyncDone3>:
    155c:	00 00       	nop
    155e:	00 c0       	rjmp	.+0      	; 0x1560 <VideoScanSyncDone>

00001560 <VideoScanSyncDone>:
    1560:	00 91 88 00 	lds	r16, 0x0088
    1564:	02 5f       	subi	r16, 0xF2	; 242

00001566 <VideoScanSyncDone90>:
    1566:	a0 91 84 00 	lds	r26, 0x0084
    156a:	00 c0       	rjmp	.+0      	; 0x156c <VideoScanSyncDone91>

0000156c <VideoScanSyncDone91>:
    156c:	00 00       	nop
    156e:	a0 17       	cp	r26, r16
    1570:	d2 f3       	brmi	.-12     	; 0x1566 <VideoScanSyncDone90>
    1572:	d0 91 23 01 	lds	r29, 0x0123
    1576:	d0 3c       	cpi	r29, 0xC0	; 192
    1578:	a0 f5       	brcc	.+104    	; 0x15e2 <VideoScanPrompt>
    157a:	f3 99       	sbic	0x1e, 3	; 30
    157c:	93 c0       	rjmp	.+294    	; 0x16a4 <VideoBMScan>
    157e:	a9 e1       	ldi	r26, 0x19	; 25
    1580:	bd 2f       	mov	r27, r29
    1582:	b6 95       	lsr	r27
    1584:	b6 95       	lsr	r27
    1586:	b6 95       	lsr	r27
    1588:	ab 9f       	mul	r26, r27
    158a:	a7 e2       	ldi	r26, 0x27	; 39
    158c:	b1 e0       	ldi	r27, 0x01	; 1
    158e:	a0 0d       	add	r26, r0
    1590:	b1 1d       	adc	r27, r1
    1592:	d7 70       	andi	r29, 0x07	; 7
    1594:	1f 93       	push	r17
    1596:	18 e1       	ldi	r17, 0x18	; 24
    1598:	08 e0       	ldi	r16, 0x08	; 8
    159a:	f0 e0       	ldi	r31, 0x00	; 0
    159c:	e8 e0       	ldi	r30, 0x08	; 8
    159e:	f0 93 c6 00 	sts	0x00C6, r31
    15a2:	e0 93 c1 00 	sts	0x00C1, r30

000015a6 <VideoScan00>:
    15a6:	ed 91       	ld	r30, X+
    15a8:	ce 2f       	mov	r28, r30
    15aa:	ef 77       	andi	r30, 0x7F	; 127
    15ac:	0e 9f       	mul	r16, r30
    15ae:	0d 0e       	add	r0, r29
    15b0:	e0 31       	cpi	r30, 0x10	; 16
    15b2:	30 f0       	brcs	.+12     	; 0x15c0 <VideoScan01>
    15b4:	e6 e3       	ldi	r30, 0x36	; 54
    15b6:	fa e1       	ldi	r31, 0x1A	; 26
    15b8:	e0 0d       	add	r30, r0
    15ba:	f1 1d       	adc	r31, r1
    15bc:	e4 91       	lpm	r30, Z
    15be:	06 c0       	rjmp	.+12     	; 0x15cc <VideoScan02>

000015c0 <VideoScan01>:
    15c0:	ef e7       	ldi	r30, 0x7F	; 127
    15c2:	f3 e0       	ldi	r31, 0x03	; 3
    15c4:	e0 0d       	add	r30, r0
    15c6:	f1 1d       	adc	r31, r1
    15c8:	e0 81       	ld	r30, Z
    15ca:	00 c0       	rjmp	.+0      	; 0x15cc <VideoScan02>

000015cc <VideoScan02>:
    15cc:	c7 fd       	sbrc	r28, 7
    15ce:	e0 95       	com	r30

000015d0 <VideoScan03>:
    15d0:	f0 91 c0 00 	lds	r31, 0x00C0
    15d4:	f5 ff       	sbrs	r31, 5
    15d6:	fc cf       	rjmp	.-8      	; 0x15d0 <VideoScan03>
    15d8:	e0 93 c6 00 	sts	0x00C6, r30
    15dc:	11 50       	subi	r17, 0x01	; 1
    15de:	1a f7       	brpl	.-58     	; 0x15a6 <VideoScan00>
    15e0:	37 c0       	rjmp	.+110    	; 0x1650 <VideoScanEnd>

000015e2 <VideoScanPrompt>:
    15e2:	1f 93       	push	r17
    15e4:	f0 91 03 01 	lds	r31, 0x0103
    15e8:	a9 e0       	ldi	r26, 0x09	; 9
    15ea:	fa 9f       	mul	r31, r26
    15ec:	e0 2d       	mov	r30, r0
    15ee:	f0 e0       	ldi	r31, 0x00	; 0
    15f0:	d3 fd       	sbrc	r29, 3
    15f2:	ec 5f       	subi	r30, 0xFC	; 252
    15f4:	a9 e6       	ldi	r26, 0x69	; 105
    15f6:	b0 e0       	ldi	r27, 0x00	; 0
    15f8:	ae 0f       	add	r26, r30
    15fa:	bf 1f       	adc	r27, r31
    15fc:	e6 e3       	ldi	r30, 0x36	; 54
    15fe:	fa e1       	ldi	r31, 0x1A	; 26
    1600:	cd 2f       	mov	r28, r29
    1602:	c7 70       	andi	r28, 0x07	; 7
    1604:	d0 e0       	ldi	r29, 0x00	; 0
    1606:	ce 0f       	add	r28, r30
    1608:	df 1f       	adc	r29, r31
    160a:	10 e0       	ldi	r17, 0x00	; 0
    160c:	e8 e0       	ldi	r30, 0x08	; 8
    160e:	e0 93 c1 00 	sts	0x00C1, r30

00001612 <VideoScanPrompt01>:
    1612:	fd 01       	movw	r30, r26
    1614:	04 91       	lpm	r16, Z
    1616:	00 31       	cpi	r16, 0x10	; 16
    1618:	08 f4       	brcc	.+2      	; 0x161c <VideoScanPrompt02>
    161a:	00 e2       	ldi	r16, 0x20	; 32

0000161c <VideoScanPrompt02>:
    161c:	e8 e0       	ldi	r30, 0x08	; 8
    161e:	f0 2f       	mov	r31, r16
    1620:	ff 77       	andi	r31, 0x7F	; 127
    1622:	ef 9f       	mul	r30, r31
    1624:	fe 01       	movw	r30, r28
    1626:	e0 0d       	add	r30, r0
    1628:	f1 1d       	adc	r31, r1
    162a:	04 90       	lpm	r0, Z
    162c:	07 ff       	sbrs	r16, 7
    162e:	00 94       	com	r0

00001630 <VideoScanPrompt03>:
    1630:	f0 91 c0 00 	lds	r31, 0x00C0
    1634:	f5 ff       	sbrs	r31, 5
    1636:	fc cf       	rjmp	.-8      	; 0x1630 <VideoScanPrompt03>
    1638:	00 92 c6 00 	sts	0x00C6, r0
    163c:	11 96       	adiw	r26, 0x01	; 1
    163e:	1f 5f       	subi	r17, 0xFF	; 255
    1640:	14 30       	cpi	r17, 0x04	; 4
    1642:	38 f3       	brcs	.-50     	; 0x1612 <VideoScanPrompt01>
    1644:	d0 91 23 01 	lds	r29, 0x0123
    1648:	df 5f       	subi	r29, 0xFF	; 255
    164a:	d0 3d       	cpi	r29, 0xD0	; 208
    164c:	48 f4       	brcc	.+18     	; 0x1660 <VideoScanEnd1b>
    164e:	09 c0       	rjmp	.+18     	; 0x1662 <VideoScanEnd2>

00001650 <VideoScanEnd>:
    1650:	d0 91 23 01 	lds	r29, 0x0123

00001654 <VideoScanEnd1a>:
    1654:	df 5f       	subi	r29, 0xFF	; 255
    1656:	d0 3c       	cpi	r29, 0xC0	; 192
    1658:	20 f0       	brcs	.+8      	; 0x1662 <VideoScanEnd2>
    165a:	f0 91 22 01 	lds	r31, 0x0122
    165e:	f7 ff       	sbrs	r31, 7

00001660 <VideoScanEnd1b>:
    1660:	d0 e0       	ldi	r29, 0x00	; 0

00001662 <VideoScanEnd2>:
    1662:	f0 91 c0 00 	lds	r31, 0x00C0
    1666:	f5 ff       	sbrs	r31, 5
    1668:	fc cf       	rjmp	.-8      	; 0x1662 <VideoScanEnd2>
    166a:	a0 e0       	ldi	r26, 0x00	; 0
    166c:	a0 93 c1 00 	sts	0x00C1, r26
    1670:	d0 3c       	cpi	r29, 0xC0	; 192
    1672:	51 f4       	brne	.+20     	; 0x1688 <VideoScanEnd3>
    1674:	e0 91 88 00 	lds	r30, 0x0088
    1678:	f0 91 89 00 	lds	r31, 0x0089
    167c:	e8 5d       	subi	r30, 0xD8	; 216
    167e:	ff 4f       	sbci	r31, 0xFF	; 255
    1680:	f0 93 89 00 	sts	0x0089, r31
    1684:	e0 93 88 00 	sts	0x0088, r30

00001688 <VideoScanEnd3>:
    1688:	d0 93 23 01 	sts	0x0123, r29
    168c:	1f 91       	pop	r17
    168e:	df 91       	pop	r29
    1690:	cf 91       	pop	r28
    1692:	bf 91       	pop	r27
    1694:	af 91       	pop	r26
    1696:	0f 91       	pop	r16
    1698:	ff 91       	pop	r31
    169a:	ef 91       	pop	r30
    169c:	1f 90       	pop	r1
    169e:	0f 90       	pop	r0

000016a0 <VideoScan99>:
    16a0:	08 95       	ret
	...

000016a4 <VideoBMScan>:
    16a4:	1f 93       	push	r17
    16a6:	f4 9b       	sbis	0x1e, 4	; 30
    16a8:	3d c0       	rjmp	.+122    	; 0x1724 <VideoBMScanHang>
    16aa:	a7 e2       	ldi	r26, 0x27	; 39
    16ac:	b1 e0       	ldi	r27, 0x01	; 1
    16ae:	07 ec       	ldi	r16, 0xC7	; 199
    16b0:	11 e0       	ldi	r17, 0x01	; 1
    16b2:	f8 01       	movw	r30, r16
    16b4:	d3 fd       	sbrc	r29, 3
    16b6:	8d 01       	movw	r16, r26
    16b8:	d3 fd       	sbrc	r29, 3
    16ba:	df 01       	movw	r26, r30
    16bc:	f0 e0       	ldi	r31, 0x00	; 0
    16be:	d7 70       	andi	r29, 0x07	; 7
    16c0:	ad 0f       	add	r26, r29
    16c2:	bf 1f       	adc	r27, r31
    16c4:	e4 e1       	ldi	r30, 0x14	; 20
    16c6:	de 9f       	mul	r29, r30
    16c8:	e8 01       	movw	r28, r16
    16ca:	c0 0d       	add	r28, r0
    16cc:	d1 1d       	adc	r29, r1
    16ce:	14 e1       	ldi	r17, 0x14	; 20
    16d0:	e8 e0       	ldi	r30, 0x08	; 8
    16d2:	f0 93 c6 00 	sts	0x00C6, r31
    16d6:	e0 93 c1 00 	sts	0x00C1, r30

000016da <VideoBMScan10>:
    16da:	0d b5       	in	r16, 0x2d	; 45
    16dc:	07 ff       	sbrs	r16, 7
    16de:	fd cf       	rjmp	.-6      	; 0x16da <VideoBMScan10>
    16e0:	0e b5       	in	r16, 0x2e	; 46
    16e2:	0e bd       	out	0x2e, r16	; 46
    16e4:	09 93       	st	Y+, r16
    16e6:	ec 91       	ld	r30, X
    16e8:	18 96       	adiw	r26, 0x08	; 8

000016ea <VideoBMScan11>:
    16ea:	00 91 c0 00 	lds	r16, 0x00C0
    16ee:	05 ff       	sbrs	r16, 5
    16f0:	fc cf       	rjmp	.-8      	; 0x16ea <VideoBMScan11>
    16f2:	e0 93 c6 00 	sts	0x00C6, r30
    16f6:	1a 95       	dec	r17
    16f8:	81 f7       	brne	.-32     	; 0x16da <VideoBMScan10>
    16fa:	d0 91 23 01 	lds	r29, 0x0123
    16fe:	df 3a       	cpi	r29, 0xAF	; 175
    1700:	08 f4       	brcc	.+2      	; 0x1704 <VideoBMScan20>
    1702:	a6 cf       	rjmp	.-180    	; 0x1650 <VideoScanEnd>

00001704 <VideoBMScan20>:
    1704:	0d b5       	in	r16, 0x2d	; 45
    1706:	07 ff       	sbrs	r16, 7
    1708:	fd cf       	rjmp	.-6      	; 0x1704 <VideoBMScan20>
    170a:	f2 9b       	sbis	0x1e, 2	; 30
    170c:	0e b5       	in	r16, 0x2e	; 46

0000170e <VideoBMScan24>:
    170e:	d0 5f       	subi	r29, 0xF0	; 240
    1710:	29 9a       	sbi	0x05, 1	; 5
    1712:	f4 9b       	sbis	0x1e, 4	; 30
    1714:	05 c0       	rjmp	.+10     	; 0x1720 <VideoBMScanHang2Hz>

00001716 <VideoBMScan25>:
    1716:	9e cf       	rjmp	.-196    	; 0x1654 <VideoScanEnd1a>

00001718 <VideoBMScanHang0_5Hz>:
    1718:	c0 e4       	ldi	r28, 0x40	; 64
    171a:	05 c0       	rjmp	.+10     	; 0x1726 <VideoBMScanHang00>

0000171c <VideoBMScanHang1Hz>:
    171c:	c0 e2       	ldi	r28, 0x20	; 32
    171e:	03 c0       	rjmp	.+6      	; 0x1726 <VideoBMScanHang00>

00001720 <VideoBMScanHang2Hz>:
    1720:	c0 e1       	ldi	r28, 0x10	; 16
    1722:	01 c0       	rjmp	.+2      	; 0x1726 <VideoBMScanHang00>

00001724 <VideoBMScanHang>:
    1724:	c8 e0       	ldi	r28, 0x08	; 8

00001726 <VideoBMScanHang00>:
    1726:	dc 2f       	mov	r29, r28

00001728 <VideoBMScanHang01>:
    1728:	b0 9b       	sbis	0x16, 0	; 22
    172a:	fe cf       	rjmp	.-4      	; 0x1728 <VideoBMScanHang01>
    172c:	b0 9a       	sbi	0x16, 0	; 22
    172e:	da 95       	dec	r29
    1730:	d9 f7       	brne	.-10     	; 0x1728 <VideoBMScanHang01>
    1732:	34 9a       	sbi	0x06, 4	; 6
    1734:	f8 cf       	rjmp	.-16     	; 0x1726 <VideoBMScanHang00>

00001736 <__vector_3>:
    1736:	0f 93       	push	r16
    1738:	0f b7       	in	r16, 0x3f	; 63
    173a:	0f 93       	push	r16
    173c:	00 91 23 01 	lds	r16, 0x0123
    1740:	00 31       	cpi	r16, 0x10	; 16
    1742:	09 f0       	breq	.+2      	; 0x1746 <__vector_3_00>
    1744:	eb cf       	rjmp	.-42     	; 0x171c <VideoBMScanHang1Hz>

00001746 <__vector_3_00>:
    1746:	f4 99       	sbic	0x1e, 4	; 30
    1748:	e7 cf       	rjmp	.-50     	; 0x1718 <VideoBMScanHang0_5Hz>
    174a:	f1 98       	cbi	0x1e, 1	; 30
    174c:	29 99       	sbic	0x05, 1	; 5
    174e:	f1 9a       	sbi	0x1e, 1	; 30
    1750:	00 91 6b 00 	lds	r16, 0x006B
    1754:	0d 7f       	andi	r16, 0xFD	; 253
    1756:	00 93 6b 00 	sts	0x006B, r16
    175a:	1f 93       	push	r17
    175c:	af 93       	push	r26
    175e:	bf 93       	push	r27
    1760:	1f 92       	push	r1
    1762:	11 24       	eor	r1, r1
    1764:	0d b5       	in	r16, 0x2d	; 45
    1766:	f2 98       	cbi	0x1e, 2	; 30
    1768:	07 fd       	sbrc	r16, 7
    176a:	f2 9a       	sbi	0x1e, 2	; 30
    176c:	29 9a       	sbi	0x05, 1	; 5
    176e:	f3 9a       	sbi	0x1e, 3	; 30
    1770:	f4 9a       	sbi	0x1e, 4	; 30
    1772:	a0 e8       	ldi	r26, 0x80	; 128
    1774:	b3 e7       	ldi	r27, 0x73	; 115
    1776:	1b d0       	rcall	.+54     	; 0x17ae <SramAbsBeginRd_Asm>
    1778:	00 ea       	ldi	r16, 0xA0	; 160
    177a:	a7 e2       	ldi	r26, 0x27	; 39
    177c:	b1 e0       	ldi	r27, 0x01	; 1

0000177e <VideoBMPrefetch00>:
    177e:	1d b5       	in	r17, 0x2d	; 45
    1780:	17 ff       	sbrs	r17, 7
    1782:	fd cf       	rjmp	.-6      	; 0x177e <VideoBMPrefetch00>
    1784:	1e b5       	in	r17, 0x2e	; 46
    1786:	0e bd       	out	0x2e, r16	; 46
    1788:	1d 93       	st	X+, r17
    178a:	0a 95       	dec	r16
    178c:	c1 f7       	brne	.-16     	; 0x177e <VideoBMPrefetch00>
    178e:	d8 9a       	sbi	0x1b, 0	; 27
    1790:	78 94       	sei

00001792 <VideoBMPrefetch20>:
    1792:	29 9b       	sbis	0x05, 1	; 5
    1794:	fe cf       	rjmp	.-4      	; 0x1792 <VideoBMPrefetch20>
    1796:	f1 9b       	sbis	0x1e, 1	; 30
    1798:	29 98       	cbi	0x05, 1	; 5
    179a:	f3 98       	cbi	0x1e, 3	; 30
    179c:	f4 98       	cbi	0x1e, 4	; 30
    179e:	1f 90       	pop	r1
    17a0:	bf 91       	pop	r27
    17a2:	af 91       	pop	r26
    17a4:	1f 91       	pop	r17

000017a6 <VideoBMPrefetchTestAbort>:
    17a6:	0f 91       	pop	r16
    17a8:	0f bf       	out	0x3f, r16	; 63
    17aa:	0f 91       	pop	r16
    17ac:	18 95       	reti

000017ae <SramAbsBeginRd_Asm>:
    17ae:	29 98       	cbi	0x05, 1	; 5
    17b0:	03 e0       	ldi	r16, 0x03	; 3
    17b2:	0e bd       	out	0x2e, r16	; 46
    17b4:	0d b5       	in	r16, 0x2d	; 45
    17b6:	07 ff       	sbrs	r16, 7
    17b8:	fd cf       	rjmp	.-6      	; 0x17b4 <SramAbsBeginRd_Asm+0x6>
    17ba:	be bd       	out	0x2e, r27	; 46
    17bc:	0d b5       	in	r16, 0x2d	; 45
    17be:	07 ff       	sbrs	r16, 7
    17c0:	fd cf       	rjmp	.-6      	; 0x17bc <SramAbsBeginRd_Asm+0xe>
    17c2:	ae bd       	out	0x2e, r26	; 46
    17c4:	0d b5       	in	r16, 0x2d	; 45
    17c6:	07 ff       	sbrs	r16, 7
    17c8:	fd cf       	rjmp	.-6      	; 0x17c4 <SramAbsBeginRd_Asm+0x16>
    17ca:	0e bd       	out	0x2e, r16	; 46
    17cc:	08 95       	ret

000017ce <Log2>:
    17ce:	98 2f       	mov	r25, r24
    17d0:	90 7f       	andi	r25, 0xF0	; 240
    17d2:	19 f0       	breq	.+6      	; 0x17da <Log2+0xc>
    17d4:	82 95       	swap	r24
    17d6:	94 e0       	ldi	r25, 0x04	; 4
    17d8:	01 c0       	rjmp	.+2      	; 0x17dc <Log2+0xe>
    17da:	90 e0       	ldi	r25, 0x00	; 0
    17dc:	82 ff       	sbrs	r24, 2
    17de:	02 c0       	rjmp	.+4      	; 0x17e4 <Log2+0x16>
    17e0:	92 60       	ori	r25, 0x02	; 2
    17e2:	02 c0       	rjmp	.+4      	; 0x17e8 <Log2+0x1a>
    17e4:	81 fd       	sbrc	r24, 1
    17e6:	91 60       	ori	r25, 0x01	; 1
    17e8:	83 fd       	sbrc	r24, 3
    17ea:	93 60       	ori	r25, 0x03	; 3
    17ec:	89 2f       	mov	r24, r25
    17ee:	08 95       	ret

000017f0 <IndexKey>:
    17f0:	90 e0       	ldi	r25, 0x00	; 0
    17f2:	fc 01       	movw	r30, r24
    17f4:	23 e0       	ldi	r18, 0x03	; 3
    17f6:	ee 0f       	add	r30, r30
    17f8:	ff 1f       	adc	r31, r31
    17fa:	2a 95       	dec	r18
    17fc:	e1 f7       	brne	.-8      	; 0x17f6 <IndexKey+0x6>
    17fe:	e8 0f       	add	r30, r24
    1800:	f9 1f       	adc	r31, r25
    1802:	e6 0f       	add	r30, r22
    1804:	f1 1d       	adc	r31, r1
    1806:	e8 59       	subi	r30, 0x98	; 152
    1808:	ff 4f       	sbci	r31, 0xFF	; 255
    180a:	84 91       	lpm	r24, Z
    180c:	08 95       	ret

0000180e <IntKey>:
    180e:	cf 93       	push	r28
    1810:	df 93       	push	r29
    1812:	d0 91 02 01 	lds	r29, 0x0102
    1816:	c0 91 03 01 	lds	r28, 0x0103
    181a:	90 91 11 01 	lds	r25, 0x0111
    181e:	89 17       	cp	r24, r25
    1820:	c1 f4       	brne	.+48     	; 0x1852 <IntKey+0x44>
    1822:	20 91 22 01 	lds	r18, 0x0122
    1826:	8d 2f       	mov	r24, r29
    1828:	90 e0       	ldi	r25, 0x00	; 0
    182a:	83 70       	andi	r24, 0x03	; 3
    182c:	90 70       	andi	r25, 0x00	; 0
    182e:	82 30       	cpi	r24, 0x02	; 2
    1830:	91 05       	cpc	r25, r1
    1832:	14 f0       	brlt	.+4      	; 0x1838 <IntKey+0x2a>
    1834:	27 ff       	sbrs	r18, 7
    1836:	04 c0       	rjmp	.+8      	; 0x1840 <IntKey+0x32>
    1838:	d1 30       	cpi	r29, 0x01	; 1
    183a:	41 f4       	brne	.+16     	; 0x184c <IntKey+0x3e>
    183c:	26 30       	cpi	r18, 0x06	; 6
    183e:	14 f0       	brlt	.+4      	; 0x1844 <IntKey+0x36>
    1840:	21 50       	subi	r18, 0x01	; 1
    1842:	04 c0       	rjmp	.+8      	; 0x184c <IntKey+0x3e>
    1844:	85 e0       	ldi	r24, 0x05	; 5
    1846:	80 93 02 01 	sts	0x0102, r24
    184a:	26 e0       	ldi	r18, 0x06	; 6
    184c:	20 93 22 01 	sts	0x0122, r18
    1850:	4c c0       	rjmp	.+152    	; 0x18ea <IntKey+0xdc>
    1852:	80 93 11 01 	sts	0x0111, r24
    1856:	d1 30       	cpi	r29, 0x01	; 1
    1858:	39 f0       	breq	.+14     	; 0x1868 <IntKey+0x5a>
    185a:	d1 30       	cpi	r29, 0x01	; 1
    185c:	38 f0       	brcs	.+14     	; 0x186c <IntKey+0x5e>
    185e:	d2 30       	cpi	r29, 0x02	; 2
    1860:	59 f0       	breq	.+22     	; 0x1878 <IntKey+0x6a>
    1862:	d3 30       	cpi	r29, 0x03	; 3
    1864:	c1 f5       	brne	.+112    	; 0x18d6 <IntKey+0xc8>
    1866:	1e c0       	rjmp	.+60     	; 0x18a4 <IntKey+0x96>
    1868:	88 23       	and	r24, r24
    186a:	e9 f1       	breq	.+122    	; 0x18e6 <IntKey+0xd8>
    186c:	0e 94 e7 0b 	call	0x17ce	; 0x17ce <Log2>
    1870:	c8 7f       	andi	r28, 0xF8	; 248
    1872:	c8 2b       	or	r28, r24
    1874:	de 5f       	subi	r29, 0xFE	; 254
    1876:	2f c0       	rjmp	.+94     	; 0x18d6 <IntKey+0xc8>
    1878:	88 23       	and	r24, r24
    187a:	b1 f4       	brne	.+44     	; 0x18a8 <IntKey+0x9a>
    187c:	80 91 22 01 	lds	r24, 0x0122
    1880:	87 fd       	sbrc	r24, 7
    1882:	31 c0       	rjmp	.+98     	; 0x18e6 <IntKey+0xd8>
    1884:	8c 2f       	mov	r24, r28
    1886:	87 70       	andi	r24, 0x07	; 7
    1888:	84 30       	cpi	r24, 0x04	; 4
    188a:	19 f4       	brne	.+6      	; 0x1892 <IntKey+0x84>
    188c:	88 e0       	ldi	r24, 0x08	; 8
    188e:	c8 27       	eor	r28, r24
    1890:	2a c0       	rjmp	.+84     	; 0x18e6 <IntKey+0xd8>
    1892:	8c 2f       	mov	r24, r28
    1894:	60 e0       	ldi	r22, 0x00	; 0
    1896:	0e 94 f8 0b 	call	0x17f0	; 0x17f0 <IndexKey>
    189a:	80 93 21 01 	sts	0x0121, r24
    189e:	c0 e0       	ldi	r28, 0x00	; 0
    18a0:	d4 e0       	ldi	r29, 0x04	; 4
    18a2:	19 c0       	rjmp	.+50     	; 0x18d6 <IntKey+0xc8>
    18a4:	88 23       	and	r24, r24
    18a6:	f9 f0       	breq	.+62     	; 0x18e6 <IntKey+0xd8>
    18a8:	9c 2f       	mov	r25, r28
    18aa:	97 70       	andi	r25, 0x07	; 7
    18ac:	21 e0       	ldi	r18, 0x01	; 1
    18ae:	30 e0       	ldi	r19, 0x00	; 0
    18b0:	02 c0       	rjmp	.+4      	; 0x18b6 <IntKey+0xa8>
    18b2:	22 0f       	add	r18, r18
    18b4:	33 1f       	adc	r19, r19
    18b6:	9a 95       	dec	r25
    18b8:	e2 f7       	brpl	.-8      	; 0x18b2 <IntKey+0xa4>
    18ba:	82 1b       	sub	r24, r18
    18bc:	0e 94 e7 0b 	call	0x17ce	; 0x17ce <Log2>
    18c0:	68 2f       	mov	r22, r24
    18c2:	6f 5f       	subi	r22, 0xFF	; 255
    18c4:	8c 2f       	mov	r24, r28
    18c6:	0e 94 f8 0b 	call	0x17f0	; 0x17f0 <IndexKey>
    18ca:	82 3d       	cpi	r24, 0xD2	; 210
    18cc:	19 f0       	breq	.+6      	; 0x18d4 <IntKey+0xc6>
    18ce:	80 93 21 01 	sts	0x0121, r24
    18d2:	c7 7f       	andi	r28, 0xF7	; 247
    18d4:	d5 e0       	ldi	r29, 0x05	; 5
    18d6:	c0 93 03 01 	sts	0x0103, r28
    18da:	80 e1       	ldi	r24, 0x10	; 16
    18dc:	80 93 22 01 	sts	0x0122, r24
    18e0:	d0 93 02 01 	sts	0x0102, r29
    18e4:	02 c0       	rjmp	.+4      	; 0x18ea <IntKey+0xdc>
    18e6:	d0 e0       	ldi	r29, 0x00	; 0
    18e8:	f6 cf       	rjmp	.-20     	; 0x18d6 <IntKey+0xc8>
    18ea:	df 91       	pop	r29
    18ec:	cf 91       	pop	r28
    18ee:	08 95       	ret

000018f0 <KeyInit>:
    18f0:	87 b1       	in	r24, 0x07	; 7
    18f2:	80 7f       	andi	r24, 0xF0	; 240
    18f4:	87 b9       	out	0x07, r24	; 7
    18f6:	88 b1       	in	r24, 0x08	; 8
    18f8:	8f 60       	ori	r24, 0x0F	; 15
    18fa:	88 b9       	out	0x08, r24	; 8
    18fc:	57 98       	cbi	0x0a, 7	; 10
    18fe:	5f 9a       	sbi	0x0b, 7	; 11
    1900:	20 98       	cbi	0x04, 0	; 4
    1902:	28 9a       	sbi	0x05, 0	; 5
    1904:	08 95       	ret

00001906 <KeyScanRaw>:
    1906:	80 91 22 01 	lds	r24, 0x0122
    190a:	85 fd       	sbrc	r24, 5
    190c:	0a c0       	rjmp	.+20     	; 0x1922 <KeyScanRaw+0x1c>
    190e:	86 b1       	in	r24, 0x06	; 6
    1910:	80 95       	com	r24
    1912:	8f 70       	andi	r24, 0x0F	; 15
    1914:	80 93 00 01 	sts	0x0100, r24
    1918:	20 98       	cbi	0x04, 0	; 4
    191a:	28 9a       	sbi	0x05, 0	; 5
    191c:	57 9a       	sbi	0x0a, 7	; 10
    191e:	5f 98       	cbi	0x0b, 7	; 11
    1920:	0e c0       	rjmp	.+28     	; 0x193e <KeyScanRaw+0x38>
    1922:	96 b1       	in	r25, 0x06	; 6
    1924:	90 95       	com	r25
    1926:	9f 70       	andi	r25, 0x0F	; 15
    1928:	80 91 00 01 	lds	r24, 0x0100
    192c:	82 95       	swap	r24
    192e:	80 7f       	andi	r24, 0xF0	; 240
    1930:	89 2b       	or	r24, r25
    1932:	80 93 00 01 	sts	0x0100, r24
    1936:	57 98       	cbi	0x0a, 7	; 10
    1938:	5f 9a       	sbi	0x0b, 7	; 11
    193a:	20 9a       	sbi	0x04, 0	; 4
    193c:	28 98       	cbi	0x05, 0	; 5
    193e:	80 91 22 01 	lds	r24, 0x0122
    1942:	90 e2       	ldi	r25, 0x20	; 32
    1944:	89 27       	eor	r24, r25
    1946:	80 93 22 01 	sts	0x0122, r24
    194a:	80 91 00 01 	lds	r24, 0x0100
    194e:	08 95       	ret

00001950 <KeyScan>:
    1950:	2f 93       	push	r18
    1952:	3f 93       	push	r19
    1954:	6f 93       	push	r22
    1956:	8f 93       	push	r24
    1958:	9f 93       	push	r25
    195a:	ef 93       	push	r30
    195c:	ff 93       	push	r31
    195e:	0e 94 83 0c 	call	0x1906	; 0x1906 <KeyScanRaw>
    1962:	90 91 22 01 	lds	r25, 0x0122
    1966:	95 fd       	sbrc	r25, 5
    1968:	09 c0       	rjmp	.+18     	; 0x197c <KeyScan+0x2c>
    196a:	90 91 01 01 	lds	r25, 0x0101
    196e:	89 17       	cp	r24, r25
    1970:	19 f4       	brne	.+6      	; 0x1978 <KeyScan+0x28>
    1972:	0e 94 07 0c 	call	0x180e	; 0x180e <IntKey>
    1976:	02 c0       	rjmp	.+4      	; 0x197c <KeyScan+0x2c>
    1978:	80 93 01 01 	sts	0x0101, r24
    197c:	ff 91       	pop	r31
    197e:	ef 91       	pop	r30
    1980:	9f 91       	pop	r25
    1982:	8f 91       	pop	r24
    1984:	6f 91       	pop	r22
    1986:	3f 91       	pop	r19
    1988:	2f 91       	pop	r18
    198a:	08 95       	ret

0000198c <KeyP>:
    198c:	90 91 02 01 	lds	r25, 0x0102
    1990:	92 ff       	sbrs	r25, 2
    1992:	06 c0       	rjmp	.+12     	; 0x19a0 <KeyP+0x14>
    1994:	80 91 21 01 	lds	r24, 0x0121
    1998:	9b 7f       	andi	r25, 0xFB	; 251
    199a:	90 93 02 01 	sts	0x0102, r25
    199e:	08 95       	ret
    19a0:	80 e0       	ldi	r24, 0x00	; 0
    19a2:	08 95       	ret

000019a4 <main>:
    19a4:	0e 94 2f 01 	call	0x25e	; 0x25e <FignitionInit>
    19a8:	8f ef       	ldi	r24, 0xFF	; 255
    19aa:	8d bf       	out	0x3d, r24	; 61
    19ac:	0c 94 d3 07 	jmp	0xfa6	; 0xfa6 <_VM>
    19b0:	08 95       	ret

000019b2 <gInitPkt>:
    19b2:	e3 00       	.word	0x00e3	; ????
    19b4:	27 01       	movw	r4, r14
    19b6:	00 00       	nop
    19b8:	02 00       	.word	0x0002	; ????
    19ba:	27 01       	movw	r4, r14
    19bc:	27 01       	movw	r4, r14
    19be:	00 00       	nop
	...

000019c1 <kStartupImage>:
    19c1:	03 10       	cpse	r0, r3
    19c3:	05 05       	cpc	r16, r5
    19c5:	0e 01       	movw	r0, r28
    19c7:	05 0b       	sbc	r16, r21
    19c9:	64 84       	ldd	r6, Z+12	; 0x0c
    19cb:	84 84       	ldd	r8, Z+12	; 0x0c
    19cd:	06 07       	cpc	r16, r22
    19cf:	84 84       	ldd	r8, Z+12	; 0x0c
    19d1:	84 84       	ldd	r8, Z+12	; 0x0c
    19d3:	84 84       	ldd	r8, Z+12	; 0x0c
    19d5:	84 06       	cpc	r8, r20
    19d7:	84 84       	ldd	r8, Z+12	; 0x0c
    19d9:	84 84       	ldd	r8, Z+12	; 0x0c
    19db:	07 84       	ldd	r0, Z+15	; 0x0f
    19dd:	84 84       	ldd	r8, Z+12	; 0x0c
    19df:	84 84       	ldd	r8, Z+12	; 0x0c
    19e1:	84 84       	ldd	r8, Z+12	; 0x0c
    19e3:	a0 20       	and	r10, r0
    19e5:	20 15       	cp	r18, r0
    19e7:	95 00       	.word	0x0095	; ????
    19e9:	a0 01       	movw	r20, r0
    19eb:	15 a0       	lds	r17, 0x85
    19ed:	a0 01       	movw	r20, r0
    19ef:	15 95       	asr	r17
    19f1:	a0 20       	and	r10, r0
    19f3:	15 95       	asr	r17
    19f5:	00 a0       	lds	r16, 0x00
    19f7:	01 15       	cp	r16, r1
    19f9:	a0 a0       	lds	r26, 0x00
    19fb:	01 a0       	lds	r16, 0x81
    19fd:	20 20       	and	r2, r0
    19ff:	15 95       	asr	r17
    1a01:	a0 20       	and	r10, r0
    1a03:	a0 15       	cp	r26, r0
    1a05:	95 20       	and	r9, r5
    1a07:	a0 15       	cp	r26, r0
    1a09:	95 a0       	lds	r25, 0x85
    1a0b:	20 15       	cp	r18, r0
    1a0d:	95 a0       	lds	r25, 0x85
    1a0f:	20 a0       	lds	r18, 0x00
    1a11:	15 95       	asr	r17
    1a13:	20 a0       	lds	r18, 0x00
    1a15:	a0 20       	and	r10, r0
    1a17:	20 15       	cp	r18, r0
    1a19:	95 02       	muls	r25, r21
    1a1b:	a0 a0       	lds	r26, 0x00
    1a1d:	15 95       	asr	r17
    1a1f:	20 a0       	lds	r18, 0x00
    1a21:	15 95       	asr	r17
    1a23:	02 a0       	lds	r16, 0x82
    1a25:	15 95       	asr	r17
    1a27:	02 a0       	lds	r16, 0x82
    1a29:	03 15       	cp	r16, r3
    1a2b:	95 20       	and	r9, r5
    1a2d:	a0 6b       	ori	r26, 0xB0	; 176
    1a2f:	01 a0       	lds	r16, 0x81
    1a31:	18 02       	muls	r17, r24
    1a33:	a0 03       	fmuls	r18, r16
	...

00001a36 <kChrSet>:
    1a36:	3f 7f       	andi	r19, 0xFF	; 255
    1a38:	ff ff       	.word	0xffff	; ????
    1a3a:	ff ff       	.word	0xffff	; ????
    1a3c:	ff ff       	.word	0xffff	; ????
    1a3e:	fc fe       	.word	0xfefc	; ????
    1a40:	ff ff       	.word	0xffff	; ????
    1a42:	ff ff       	.word	0xffff	; ????
    1a44:	ff ff       	.word	0xffff	; ????
    1a46:	ff ff       	.word	0xffff	; ????
    1a48:	ff ff       	.word	0xffff	; ????
    1a4a:	ff ff       	.word	0xffff	; ????
    1a4c:	7f 3f       	cpi	r23, 0xFF	; 255
    1a4e:	ff ff       	.word	0xffff	; ????
    1a50:	ff ff       	.word	0xffff	; ????
    1a52:	ff ff       	.word	0xffff	; ????
    1a54:	fe fc       	.word	0xfcfe	; ????
    1a56:	00 ff       	sbrs	r16, 0
    1a58:	00 ff       	sbrs	r16, 0
    1a5a:	00 ff       	sbrs	r16, 0
    1a5c:	00 ff       	sbrs	r16, 0
    1a5e:	ff ff       	.word	0xffff	; ????
    1a60:	ff ff       	.word	0xffff	; ????
    1a62:	ff ff       	.word	0xffff	; ????
    1a64:	ff 00       	.word	0x00ff	; ????
    1a66:	0f 0f       	add	r16, r31
    1a68:	0f 0f       	add	r16, r31
    1a6a:	0f 0f       	add	r16, r31
    1a6c:	0f 00       	.word	0x000f	; ????
    1a6e:	f0 f0       	brcs	.+60     	; 0x1aac <kChrSet+0x76>
    1a70:	f0 f0       	brcs	.+60     	; 0x1aae <kChrSet+0x78>
    1a72:	f0 f0       	brcs	.+60     	; 0x1ab0 <kChrSet+0x7a>
    1a74:	f0 00       	.word	0x00f0	; ????
    1a76:	ff 80       	ldd	r15, Y+7	; 0x07
    1a78:	80 80       	ld	r8, Z
    1a7a:	80 80       	ld	r8, Z
    1a7c:	80 80       	ld	r8, Z
    1a7e:	ff 00       	.word	0x00ff	; ????
    1a80:	00 00       	nop
    1a82:	00 00       	nop
    1a84:	00 00       	nop
    1a86:	ff 01       	movw	r30, r30
    1a88:	01 01       	movw	r0, r2
    1a8a:	01 01       	movw	r0, r2
    1a8c:	01 01       	movw	r0, r2
    1a8e:	80 80       	ld	r8, Z
    1a90:	80 80       	ld	r8, Z
    1a92:	80 80       	ld	r8, Z
    1a94:	80 80       	ld	r8, Z
    1a96:	01 01       	movw	r0, r2
    1a98:	01 01       	movw	r0, r2
    1a9a:	01 01       	movw	r0, r2
    1a9c:	01 01       	movw	r0, r2
    1a9e:	80 80       	ld	r8, Z
    1aa0:	80 80       	ld	r8, Z
    1aa2:	80 80       	ld	r8, Z
    1aa4:	80 ff       	sbrs	r24, 0
    1aa6:	00 00       	nop
    1aa8:	00 00       	nop
    1aaa:	00 00       	nop
    1aac:	00 ff       	sbrs	r16, 0
    1aae:	01 01       	movw	r0, r2
    1ab0:	01 01       	movw	r0, r2
    1ab2:	01 01       	movw	r0, r2
    1ab4:	01 ff       	sbrs	r16, 1
    1ab6:	3f 7f       	andi	r19, 0xFF	; 255
    1ab8:	ff ff       	.word	0xffff	; ????
    1aba:	ff ff       	.word	0xffff	; ????
    1abc:	ff 00       	.word	0x00ff	; ????
    1abe:	0f 0f       	add	r16, r31
    1ac0:	0f 0f       	add	r16, r31
    1ac2:	00 00       	nop
    1ac4:	00 00       	nop
    1ac6:	f0 f0       	brcs	.+60     	; 0x1b04 <kChrSet+0xce>
    1ac8:	f0 f0       	brcs	.+60     	; 0x1b06 <kChrSet+0xd0>
    1aca:	00 00       	nop
    1acc:	00 00       	nop
    1ace:	ff ff       	.word	0xffff	; ????
    1ad0:	ff ff       	.word	0xffff	; ????
	...
    1ada:	0f 0f       	add	r16, r31
    1adc:	0f 0f       	add	r16, r31
    1ade:	0f 0f       	add	r16, r31
    1ae0:	0f 0f       	add	r16, r31
    1ae2:	0f 0f       	add	r16, r31
    1ae4:	0f 0f       	add	r16, r31
    1ae6:	f0 f0       	brcs	.+60     	; 0x1b24 <kChrSet+0xee>
    1ae8:	f0 f0       	brcs	.+60     	; 0x1b26 <kChrSet+0xf0>
    1aea:	0f 0f       	add	r16, r31
    1aec:	0f 0f       	add	r16, r31
    1aee:	ff ff       	.word	0xffff	; ????
    1af0:	ff ff       	.word	0xffff	; ????
    1af2:	0f 0f       	add	r16, r31
    1af4:	0f 0f       	add	r16, r31
    1af6:	00 00       	nop
    1af8:	00 00       	nop
    1afa:	55 aa       	sts	0x95, r21
    1afc:	55 aa       	sts	0x95, r21
    1afe:	55 aa       	sts	0x95, r21
    1b00:	55 aa       	sts	0x95, r21
    1b02:	00 00       	nop
    1b04:	00 00       	nop
    1b06:	50 50       	subi	r21, 0x00	; 0
    1b08:	50 50       	subi	r21, 0x00	; 0
    1b0a:	50 50       	subi	r21, 0x00	; 0
    1b0c:	50 50       	subi	r21, 0x00	; 0
    1b0e:	55 aa       	sts	0x95, r21
    1b10:	55 aa       	sts	0x95, r21
    1b12:	55 aa       	sts	0x95, r21
    1b14:	55 aa       	sts	0x95, r21
    1b16:	00 00       	nop
    1b18:	18 3c       	cpi	r17, 0xC8	; 200
    1b1a:	3c 18       	sub	r3, r12
    1b1c:	00 00       	nop
    1b1e:	3c 7e       	andi	r19, 0xEC	; 236
    1b20:	ff ff       	.word	0xffff	; ????
    1b22:	ff ff       	.word	0xffff	; ????
    1b24:	7e 3c       	cpi	r23, 0xCE	; 206
    1b26:	3e 41       	sbci	r19, 0x1E	; 30
    1b28:	9c ac       	sts	0xac, r25
    1b2a:	9f 40       	sbci	r25, 0x0F	; 15
    1b2c:	3f 00       	.word	0x003f	; ????
    1b2e:	00 00       	nop
    1b30:	8e 95 26 c8 	call	0x61904c	; 0x61904c <_UpgradeSpm+0x61105e>
    1b34:	f0 00       	.word	0x00f0	; ????
	...
    1b3e:	00 10       	cpse	r0, r0
    1b40:	10 10       	cpse	r1, r0
    1b42:	10 00       	.word	0x0010	; ????
    1b44:	10 00       	.word	0x0010	; ????
    1b46:	00 24       	eor	r0, r0
    1b48:	24 00       	.word	0x0024	; ????
    1b4a:	00 00       	nop
    1b4c:	00 00       	nop
    1b4e:	00 24       	eor	r0, r0
    1b50:	7e 24       	eor	r7, r14
    1b52:	24 7e       	andi	r18, 0xE4	; 228
    1b54:	24 00       	.word	0x0024	; ????
    1b56:	00 08       	sbc	r0, r0
    1b58:	1e 28       	or	r1, r14
    1b5a:	1c 0a       	sbc	r1, r28
    1b5c:	3c 08       	sbc	r3, r12
    1b5e:	00 62       	ori	r16, 0x20	; 32
    1b60:	64 08       	sbc	r6, r4
    1b62:	10 26       	eor	r1, r16
    1b64:	46 00       	.word	0x0046	; ????
    1b66:	00 10       	cpse	r0, r0
    1b68:	28 10       	cpse	r2, r8
    1b6a:	2a 44       	sbci	r18, 0x4A	; 74
    1b6c:	3a 00       	.word	0x003a	; ????
    1b6e:	00 08       	sbc	r0, r0
    1b70:	10 00       	.word	0x0010	; ????
    1b72:	00 00       	nop
    1b74:	00 00       	nop
    1b76:	00 04       	cpc	r0, r0
    1b78:	08 08       	sbc	r0, r8
    1b7a:	08 08       	sbc	r0, r8
    1b7c:	04 00       	.word	0x0004	; ????
    1b7e:	00 20       	and	r0, r0
    1b80:	10 10       	cpse	r1, r0
    1b82:	10 10       	cpse	r1, r0
    1b84:	20 00       	.word	0x0020	; ????
    1b86:	00 00       	nop
    1b88:	14 08       	sbc	r1, r4
    1b8a:	3e 08       	sbc	r3, r14
    1b8c:	14 00       	.word	0x0014	; ????
    1b8e:	00 00       	nop
    1b90:	08 08       	sbc	r0, r8
    1b92:	3e 08       	sbc	r3, r14
    1b94:	08 00       	.word	0x0008	; ????
    1b96:	00 00       	nop
    1b98:	00 00       	nop
    1b9a:	00 08       	sbc	r0, r0
    1b9c:	08 10       	cpse	r0, r8
    1b9e:	00 00       	nop
    1ba0:	00 00       	nop
    1ba2:	3e 00       	.word	0x003e	; ????
    1ba4:	00 00       	nop
    1ba6:	00 00       	nop
    1ba8:	00 00       	nop
    1baa:	00 18       	sub	r0, r0
    1bac:	18 00       	.word	0x0018	; ????
    1bae:	00 00       	nop
    1bb0:	02 04       	cpc	r0, r2
    1bb2:	08 10       	cpse	r0, r8
    1bb4:	20 00       	.word	0x0020	; ????
    1bb6:	00 3c       	cpi	r16, 0xC0	; 192
    1bb8:	46 4a       	sbci	r20, 0xA6	; 166
    1bba:	52 62       	ori	r21, 0x22	; 34
    1bbc:	3c 00       	.word	0x003c	; ????
    1bbe:	00 18       	sub	r0, r0
    1bc0:	28 08       	sbc	r2, r8
    1bc2:	08 08       	sbc	r0, r8
    1bc4:	3e 00       	.word	0x003e	; ????
    1bc6:	00 3c       	cpi	r16, 0xC0	; 192
    1bc8:	42 02       	muls	r20, r18
    1bca:	3c 40       	sbci	r19, 0x0C	; 12
    1bcc:	7e 00       	.word	0x007e	; ????
    1bce:	00 3c       	cpi	r16, 0xC0	; 192
    1bd0:	42 0c       	add	r4, r2
    1bd2:	02 42       	sbci	r16, 0x22	; 34
    1bd4:	3c 00       	.word	0x003c	; ????
    1bd6:	00 08       	sbc	r0, r0
    1bd8:	18 28       	or	r1, r8
    1bda:	48 7e       	andi	r20, 0xE8	; 232
    1bdc:	08 00       	.word	0x0008	; ????
    1bde:	00 7e       	andi	r16, 0xE0	; 224
    1be0:	40 7c       	andi	r20, 0xC0	; 192
    1be2:	02 42       	sbci	r16, 0x22	; 34
    1be4:	3c 00       	.word	0x003c	; ????
    1be6:	00 3c       	cpi	r16, 0xC0	; 192
    1be8:	40 7c       	andi	r20, 0xC0	; 192
    1bea:	42 42       	sbci	r20, 0x22	; 34
    1bec:	3c 00       	.word	0x003c	; ????
    1bee:	00 7e       	andi	r16, 0xE0	; 224
    1bf0:	02 04       	cpc	r0, r2
    1bf2:	08 10       	cpse	r0, r8
    1bf4:	10 00       	.word	0x0010	; ????
    1bf6:	00 3c       	cpi	r16, 0xC0	; 192
    1bf8:	42 3c       	cpi	r20, 0xC2	; 194
    1bfa:	42 42       	sbci	r20, 0x22	; 34
    1bfc:	3c 00       	.word	0x003c	; ????
    1bfe:	00 3c       	cpi	r16, 0xC0	; 192
    1c00:	42 42       	sbci	r20, 0x22	; 34
    1c02:	3e 02       	muls	r19, r30
    1c04:	3c 00       	.word	0x003c	; ????
    1c06:	00 00       	nop
    1c08:	00 10       	cpse	r0, r0
    1c0a:	00 00       	nop
    1c0c:	10 00       	.word	0x0010	; ????
    1c0e:	00 00       	nop
    1c10:	10 00       	.word	0x0010	; ????
    1c12:	00 10       	cpse	r0, r0
    1c14:	10 20       	and	r1, r0
    1c16:	00 00       	nop
    1c18:	04 08       	sbc	r0, r4
    1c1a:	10 08       	sbc	r1, r0
    1c1c:	04 00       	.word	0x0004	; ????
    1c1e:	00 00       	nop
    1c20:	00 3e       	cpi	r16, 0xE0	; 224
    1c22:	00 3e       	cpi	r16, 0xE0	; 224
    1c24:	00 00       	nop
    1c26:	00 00       	nop
    1c28:	10 08       	sbc	r1, r0
    1c2a:	04 08       	sbc	r0, r4
    1c2c:	10 00       	.word	0x0010	; ????
    1c2e:	00 3c       	cpi	r16, 0xC0	; 192
    1c30:	42 04       	cpc	r4, r2
    1c32:	08 00       	.word	0x0008	; ????
    1c34:	08 00       	.word	0x0008	; ????
    1c36:	00 3c       	cpi	r16, 0xC0	; 192
    1c38:	4a 56       	subi	r20, 0x6A	; 106
    1c3a:	5e 40       	sbci	r21, 0x0E	; 14
    1c3c:	3c 00       	.word	0x003c	; ????
    1c3e:	00 3c       	cpi	r16, 0xC0	; 192
    1c40:	42 42       	sbci	r20, 0x22	; 34
    1c42:	7e 42       	sbci	r23, 0x2E	; 46
    1c44:	42 00       	.word	0x0042	; ????
    1c46:	00 7c       	andi	r16, 0xC0	; 192
    1c48:	42 7c       	andi	r20, 0xC2	; 194
    1c4a:	42 42       	sbci	r20, 0x22	; 34
    1c4c:	7c 00       	.word	0x007c	; ????
    1c4e:	00 3c       	cpi	r16, 0xC0	; 192
    1c50:	42 40       	sbci	r20, 0x02	; 2
    1c52:	40 42       	sbci	r20, 0x20	; 32
    1c54:	3c 00       	.word	0x003c	; ????
    1c56:	00 78       	andi	r16, 0x80	; 128
    1c58:	44 42       	sbci	r20, 0x24	; 36
    1c5a:	42 44       	sbci	r20, 0x42	; 66
    1c5c:	78 00       	.word	0x0078	; ????
    1c5e:	00 7e       	andi	r16, 0xE0	; 224
    1c60:	40 7c       	andi	r20, 0xC0	; 192
    1c62:	40 40       	sbci	r20, 0x00	; 0
    1c64:	7e 00       	.word	0x007e	; ????
    1c66:	00 7e       	andi	r16, 0xE0	; 224
    1c68:	40 7c       	andi	r20, 0xC0	; 192
    1c6a:	40 40       	sbci	r20, 0x00	; 0
    1c6c:	40 00       	.word	0x0040	; ????
    1c6e:	00 3c       	cpi	r16, 0xC0	; 192
    1c70:	42 40       	sbci	r20, 0x02	; 2
    1c72:	4e 42       	sbci	r20, 0x2E	; 46
    1c74:	3c 00       	.word	0x003c	; ????
    1c76:	00 42       	sbci	r16, 0x20	; 32
    1c78:	42 7e       	andi	r20, 0xE2	; 226
    1c7a:	42 42       	sbci	r20, 0x22	; 34
    1c7c:	42 00       	.word	0x0042	; ????
    1c7e:	00 3e       	cpi	r16, 0xE0	; 224
    1c80:	08 08       	sbc	r0, r8
    1c82:	08 08       	sbc	r0, r8
    1c84:	3e 00       	.word	0x003e	; ????
    1c86:	00 02       	muls	r16, r16
    1c88:	02 02       	muls	r16, r18
    1c8a:	42 42       	sbci	r20, 0x22	; 34
    1c8c:	3c 00       	.word	0x003c	; ????
    1c8e:	00 44       	sbci	r16, 0x40	; 64
    1c90:	48 70       	andi	r20, 0x08	; 8
    1c92:	48 44       	sbci	r20, 0x48	; 72
    1c94:	42 00       	.word	0x0042	; ????
    1c96:	00 40       	sbci	r16, 0x00	; 0
    1c98:	40 40       	sbci	r20, 0x00	; 0
    1c9a:	40 40       	sbci	r20, 0x00	; 0
    1c9c:	7e 00       	.word	0x007e	; ????
    1c9e:	00 42       	sbci	r16, 0x20	; 32
    1ca0:	66 5a       	subi	r22, 0xA6	; 166
    1ca2:	42 42       	sbci	r20, 0x22	; 34
    1ca4:	42 00       	.word	0x0042	; ????
    1ca6:	00 42       	sbci	r16, 0x20	; 32
    1ca8:	62 52       	subi	r22, 0x22	; 34
    1caa:	4a 46       	sbci	r20, 0x6A	; 106
    1cac:	42 00       	.word	0x0042	; ????
    1cae:	00 3c       	cpi	r16, 0xC0	; 192
    1cb0:	42 42       	sbci	r20, 0x22	; 34
    1cb2:	42 42       	sbci	r20, 0x22	; 34
    1cb4:	3c 00       	.word	0x003c	; ????
    1cb6:	00 7c       	andi	r16, 0xC0	; 192
    1cb8:	42 42       	sbci	r20, 0x22	; 34
    1cba:	7c 40       	sbci	r23, 0x0C	; 12
    1cbc:	40 00       	.word	0x0040	; ????
    1cbe:	00 3c       	cpi	r16, 0xC0	; 192
    1cc0:	42 42       	sbci	r20, 0x22	; 34
    1cc2:	52 4a       	sbci	r21, 0xA2	; 162
    1cc4:	3c 00       	.word	0x003c	; ????
    1cc6:	00 7c       	andi	r16, 0xC0	; 192
    1cc8:	42 42       	sbci	r20, 0x22	; 34
    1cca:	7c 44       	sbci	r23, 0x4C	; 76
    1ccc:	42 00       	.word	0x0042	; ????
    1cce:	00 3c       	cpi	r16, 0xC0	; 192
    1cd0:	40 3c       	cpi	r20, 0xC0	; 192
    1cd2:	02 42       	sbci	r16, 0x22	; 34
    1cd4:	3c 00       	.word	0x003c	; ????
    1cd6:	00 fe       	sbrs	r0, 0
    1cd8:	10 10       	cpse	r1, r0
    1cda:	10 10       	cpse	r1, r0
    1cdc:	10 00       	.word	0x0010	; ????
    1cde:	00 42       	sbci	r16, 0x20	; 32
    1ce0:	42 42       	sbci	r20, 0x22	; 34
    1ce2:	42 42       	sbci	r20, 0x22	; 34
    1ce4:	3c 00       	.word	0x003c	; ????
    1ce6:	00 42       	sbci	r16, 0x20	; 32
    1ce8:	42 42       	sbci	r20, 0x22	; 34
    1cea:	42 24       	eor	r4, r2
    1cec:	18 00       	.word	0x0018	; ????
    1cee:	00 41       	sbci	r16, 0x10	; 16
    1cf0:	41 2a       	or	r4, r17
    1cf2:	2a 14       	cp	r2, r10
    1cf4:	14 00       	.word	0x0014	; ????
    1cf6:	00 42       	sbci	r16, 0x20	; 32
    1cf8:	24 18       	sub	r2, r4
    1cfa:	18 24       	eor	r1, r8
    1cfc:	42 00       	.word	0x0042	; ????
    1cfe:	00 82       	st	Z, r0
    1d00:	44 28       	or	r4, r4
    1d02:	10 10       	cpse	r1, r0
    1d04:	10 00       	.word	0x0010	; ????
    1d06:	00 7e       	andi	r16, 0xE0	; 224
    1d08:	04 08       	sbc	r0, r4
    1d0a:	10 20       	and	r1, r0
    1d0c:	7e 00       	.word	0x007e	; ????
    1d0e:	00 0e       	add	r0, r16
    1d10:	08 08       	sbc	r0, r8
    1d12:	08 08       	sbc	r0, r8
    1d14:	0e 00       	.word	0x000e	; ????
    1d16:	00 00       	nop
    1d18:	40 20       	and	r4, r0
    1d1a:	10 08       	sbc	r1, r0
    1d1c:	04 00       	.word	0x0004	; ????
    1d1e:	00 70       	andi	r16, 0x00	; 0
    1d20:	10 10       	cpse	r1, r0
    1d22:	10 10       	cpse	r1, r0
    1d24:	70 00       	.word	0x0070	; ????
    1d26:	00 10       	cpse	r0, r0
    1d28:	28 44       	sbci	r18, 0x48	; 72
	...
    1d32:	00 00       	nop
    1d34:	00 ff       	sbrs	r16, 0
    1d36:	00 1c       	adc	r0, r0
    1d38:	22 78       	andi	r18, 0x82	; 130
    1d3a:	20 20       	and	r2, r0
    1d3c:	7e 00       	.word	0x007e	; ????
    1d3e:	00 00       	nop
    1d40:	38 04       	cpc	r3, r8
    1d42:	3c 44       	sbci	r19, 0x4C	; 76
    1d44:	3c 00       	.word	0x003c	; ????
    1d46:	00 20       	and	r0, r0
    1d48:	20 3c       	cpi	r18, 0xC0	; 192
    1d4a:	22 22       	and	r2, r18
    1d4c:	3c 00       	.word	0x003c	; ????
    1d4e:	00 00       	nop
    1d50:	1c 20       	and	r1, r12
    1d52:	20 20       	and	r2, r0
    1d54:	1c 00       	.word	0x001c	; ????
    1d56:	00 04       	cpc	r0, r0
    1d58:	04 3c       	cpi	r16, 0xC4	; 196
    1d5a:	44 44       	sbci	r20, 0x44	; 68
    1d5c:	3c 00       	.word	0x003c	; ????
    1d5e:	00 00       	nop
    1d60:	38 44       	sbci	r19, 0x48	; 72
    1d62:	78 40       	sbci	r23, 0x08	; 8
    1d64:	3c 00       	.word	0x003c	; ????
    1d66:	00 0c       	add	r0, r0
    1d68:	10 18       	sub	r1, r0
    1d6a:	10 10       	cpse	r1, r0
    1d6c:	10 00       	.word	0x0010	; ????
    1d6e:	00 00       	nop
    1d70:	3c 44       	sbci	r19, 0x4C	; 76
    1d72:	44 3c       	cpi	r20, 0xC4	; 196
    1d74:	04 38       	cpi	r16, 0x84	; 132
    1d76:	00 40       	sbci	r16, 0x00	; 0
    1d78:	40 78       	andi	r20, 0x80	; 128
    1d7a:	44 44       	sbci	r20, 0x44	; 68
    1d7c:	44 00       	.word	0x0044	; ????
    1d7e:	00 10       	cpse	r0, r0
    1d80:	00 30       	cpi	r16, 0x00	; 0
    1d82:	10 10       	cpse	r1, r0
    1d84:	38 00       	.word	0x0038	; ????
    1d86:	00 04       	cpc	r0, r0
    1d88:	00 04       	cpc	r0, r0
    1d8a:	04 04       	cpc	r0, r4
    1d8c:	24 18       	sub	r2, r4
    1d8e:	00 20       	and	r0, r0
    1d90:	28 30       	cpi	r18, 0x08	; 8
    1d92:	30 28       	or	r3, r0
    1d94:	24 00       	.word	0x0024	; ????
    1d96:	00 10       	cpse	r0, r0
    1d98:	10 10       	cpse	r1, r0
    1d9a:	10 10       	cpse	r1, r0
    1d9c:	0c 00       	.word	0x000c	; ????
    1d9e:	00 00       	nop
    1da0:	68 54       	subi	r22, 0x48	; 72
    1da2:	54 54       	subi	r21, 0x44	; 68
    1da4:	54 00       	.word	0x0054	; ????
    1da6:	00 00       	nop
    1da8:	78 44       	sbci	r23, 0x48	; 72
    1daa:	44 44       	sbci	r20, 0x44	; 68
    1dac:	44 00       	.word	0x0044	; ????
    1dae:	00 00       	nop
    1db0:	38 44       	sbci	r19, 0x48	; 72
    1db2:	44 44       	sbci	r20, 0x44	; 68
    1db4:	38 00       	.word	0x0038	; ????
    1db6:	00 00       	nop
    1db8:	78 44       	sbci	r23, 0x48	; 72
    1dba:	44 78       	andi	r20, 0x84	; 132
    1dbc:	40 40       	sbci	r20, 0x00	; 0
    1dbe:	00 00       	nop
    1dc0:	3c 44       	sbci	r19, 0x4C	; 76
    1dc2:	44 3c       	cpi	r20, 0xC4	; 196
    1dc4:	04 06       	cpc	r0, r20
    1dc6:	00 00       	nop
    1dc8:	1c 20       	and	r1, r12
    1dca:	20 20       	and	r2, r0
    1dcc:	20 00       	.word	0x0020	; ????
    1dce:	00 00       	nop
    1dd0:	38 40       	sbci	r19, 0x08	; 8
    1dd2:	38 04       	cpc	r3, r8
    1dd4:	78 00       	.word	0x0078	; ????
    1dd6:	00 10       	cpse	r0, r0
    1dd8:	38 10       	cpse	r3, r8
    1dda:	10 10       	cpse	r1, r0
    1ddc:	0c 00       	.word	0x000c	; ????
    1dde:	00 00       	nop
    1de0:	44 44       	sbci	r20, 0x44	; 68
    1de2:	44 44       	sbci	r20, 0x44	; 68
    1de4:	38 00       	.word	0x0038	; ????
    1de6:	00 00       	nop
    1de8:	44 44       	sbci	r20, 0x44	; 68
    1dea:	28 28       	or	r2, r8
    1dec:	10 00       	.word	0x0010	; ????
    1dee:	00 00       	nop
    1df0:	44 54       	subi	r20, 0x44	; 68
    1df2:	54 54       	subi	r21, 0x44	; 68
    1df4:	28 00       	.word	0x0028	; ????
    1df6:	00 00       	nop
    1df8:	44 28       	or	r4, r4
    1dfa:	10 28       	or	r1, r0
    1dfc:	44 00       	.word	0x0044	; ????
    1dfe:	00 00       	nop
    1e00:	44 44       	sbci	r20, 0x44	; 68
    1e02:	44 3c       	cpi	r20, 0xC4	; 196
    1e04:	04 38       	cpi	r16, 0x84	; 132
    1e06:	00 00       	nop
    1e08:	7c 08       	sbc	r7, r12
    1e0a:	10 20       	and	r1, r0
    1e0c:	7c 00       	.word	0x007c	; ????
    1e0e:	04 08       	sbc	r0, r4
    1e10:	08 30       	cpi	r16, 0x08	; 8
    1e12:	08 08       	sbc	r0, r8
    1e14:	04 00       	.word	0x0004	; ????
    1e16:	00 08       	sbc	r0, r0
    1e18:	08 08       	sbc	r0, r8
    1e1a:	08 08       	sbc	r0, r8
    1e1c:	08 00       	.word	0x0008	; ????
    1e1e:	20 10       	cpse	r2, r0
    1e20:	10 0c       	add	r1, r0
    1e22:	10 10       	cpse	r1, r0
    1e24:	20 00       	.word	0x0020	; ????
    1e26:	00 14       	cp	r0, r0
    1e28:	28 00       	.word	0x0028	; ????
    1e2a:	00 00       	nop
    1e2c:	00 00       	nop
    1e2e:	3c 42       	sbci	r19, 0x2C	; 44
    1e30:	99 a1       	lds	r25, 0x49
    1e32:	a1 99       	sbic	0x14, 1	; 20
    1e34:	42 3c       	cpi	r20, 0xC2	; 194

00001e36 <__stop_program>:
    1e36:	ff cf       	rjmp	.-2      	; 0x1e36 <__stop_program>

Disassembly of section .fth:

00005e38 <_fthROM>:
    5e38:	9b 6a       	ori	r25, 0xAB	; 171
    5e3a:	00 00       	nop
    5e3c:	00 6b       	ori	r16, 0xB0	; 176
    5e3e:	65 72       	andi	r22, 0x25	; 37
    5e40:	6e 00       	.word	0x006e	; ????

00005e42 <_FigRomKern>:
    5e42:	1c 16       	cp	r1, r28
    5e44:	1c de       	rcall	.-968    	; 0x5a7e <__data_load_end+0x2288>
    5e46:	6a 01       	movw	r12, r20
    5e48:	5a 5e       	subi	r21, 0xEA	; 234
    5e4a:	16 1d       	adc	r17, r6
    5e4c:	1b 15       	cp	r17, r11
    5e4e:	04 0a       	sbc	r0, r20
    5e50:	1c 2c       	mov	r1, r12
    5e52:	08 32       	cpi	r16, 0x28	; 40
    5e54:	1b 2c       	mov	r1, r11
    5e56:	08 33       	cpi	r16, 0x38	; 56
    5e58:	0d 2e       	mov	r0, r29

00005e59 <_FigRomKern_1>:
    5e59:	2e 36       	cpi	r18, 0x6E	; 110

00005e5a <KernVecs>:
    5e5a:	36 1a       	sub	r3, r22
    5e5c:	01 01       	movw	r0, r2
    5e5e:	70 61       	ori	r23, 0x10	; 16
    5e60:	04 63       	ori	r16, 0x34	; 52
    5e62:	10 66       	ori	r17, 0x60	; 96
    5e64:	35 66       	ori	r19, 0x65	; 101
    5e66:	e7 6d       	ori	r30, 0xD7	; 215
    5e68:	00 72       	andi	r16, 0x20	; 32
    5e6a:	9e 61       	ori	r25, 0x1E	; 30
    5e6c:	4e 60       	ori	r20, 0x0E	; 14
    5e6e:	bd 63       	ori	r27, 0x3D	; 61
    5e70:	27 76       	andi	r18, 0x67	; 103
    5e72:	a2 7b       	andi	r26, 0xB2	; 178
    5e74:	b6 7c       	andi	r27, 0xC6	; 198
    5e76:	52 7c       	andi	r21, 0xC2	; 194
    5e78:	62 7b       	andi	r22, 0xB2	; 178
    5e7a:	bc 7b       	andi	r27, 0xBC	; 188
    5e7c:	51 7b       	andi	r21, 0xB1	; 177
    5e7e:	8e 7c       	andi	r24, 0xCE	; 206
    5e80:	7f 03       	fmul	r23, r23
    5e82:	3a 5e       	subi	r19, 0xEA	; 234
    5e84:	80 65       	ori	r24, 0x50	; 80
    5e86:	78 65       	ori	r23, 0x58	; 88
    5e88:	63 00       	.word	0x0063	; ????
    5e8a:	82 82       	std	Z+2, r8	; 0x02
    5e8c:	5e 80       	ldd	r5, Y+6	; 0x06
    5e8e:	69 00       	.word	0x0069	; ????
    5e90:	a1 8b       	std	Z+17, r26	; 0x11
    5e92:	5e 80       	ldd	r5, Y+6	; 0x06
    5e94:	6c 65       	ori	r22, 0x5C	; 92
    5e96:	61 76       	andi	r22, 0x61	; 97
    5e98:	65 00       	.word	0x0065	; ????
    5e9a:	8f 91       	pop	r24
    5e9c:	5e 80       	ldd	r5, Y+6	; 0x06
    5e9e:	61 6e       	ori	r22, 0xE1	; 225
    5ea0:	64 00       	.word	0x0064	; ????
    5ea2:	8c 9b       	sbis	0x11, 4	; 17
    5ea4:	5e 80       	ldd	r5, Y+6	; 0x06
    5ea6:	6f 72       	andi	r22, 0x2F	; 47
    5ea8:	00 8d       	ldd	r16, Z+24	; 0x18
    5eaa:	a3 5e       	subi	r26, 0xE3	; 227
    5eac:	80 78       	andi	r24, 0x80	; 128
    5eae:	6f 72       	andi	r22, 0x2F	; 47
    5eb0:	00 8e       	std	Z+24, r0	; 0x18
    5eb2:	aa 5e       	subi	r26, 0xEA	; 234
    5eb4:	80 3e       	cpi	r24, 0xE0	; 224
    5eb6:	3e 00       	.word	0x003e	; ????
    5eb8:	b2 b2       	in	r11, 0x12	; 18
    5eba:	5e 80       	ldd	r5, Y+6	; 0x06
    5ebc:	3c 3c       	cpi	r19, 0xCC	; 204
    5ebe:	00 b3       	in	r16, 0x10	; 16
    5ec0:	b9 5e       	subi	r27, 0xE9	; 233
    5ec2:	80 3b       	cpi	r24, 0xB0	; 176
    5ec4:	73 00       	.word	0x0073	; ????
    5ec6:	ae c0       	rjmp	.+348    	; 0x6024 <KernVecs+0x1ca>
    5ec8:	5e 80       	ldd	r5, Y+6	; 0x06
    5eca:	72 3e       	cpi	r23, 0xE2	; 226
    5ecc:	00 91 c7 5e 	lds	r16, 0x5EC7
    5ed0:	80 3e       	cpi	r24, 0xE0	; 224
    5ed2:	72 00       	.word	0x0072	; ????
    5ed4:	93 ce       	rjmp	.-730    	; 0x5bfc <__data_load_end+0x2406>
    5ed6:	5e 80       	ldd	r5, Y+6	; 0x06
    5ed8:	72 00       	.word	0x0072	; ????
    5eda:	92 d5       	rcall	.+2852   	; 0x6a00 <_FigRomAbort+0xc>
    5edc:	5e 80       	ldd	r5, Y+6	; 0x06
    5ede:	30 3d       	cpi	r19, 0xD0	; 208
    5ee0:	00 94       	com	r0
    5ee2:	db 5e       	subi	r29, 0xEB	; 235
    5ee4:	80 30       	cpi	r24, 0x00	; 0
    5ee6:	3c 00       	.word	0x003c	; ????
    5ee8:	95 e2       	ldi	r25, 0x25	; 37
    5eea:	5e 80       	ldd	r5, Y+6	; 0x06
    5eec:	2b 00       	.word	0x002b	; ????
    5eee:	96 e9       	ldi	r25, 0x96	; 150
    5ef0:	5e 80       	ldd	r5, Y+6	; 0x06
    5ef2:	2d 00       	.word	0x002d	; ????
    5ef4:	c2 ef       	ldi	r28, 0xF2	; 242
    5ef6:	5e 80       	ldd	r5, Y+6	; 0x06
    5ef8:	64 2b       	or	r22, r20
    5efa:	00 97       	sbiw	r24, 0x00	; 0
    5efc:	f5 5e       	subi	r31, 0xE5	; 229
    5efe:	80 6e       	ori	r24, 0xE0	; 224
    5f00:	65 67       	ori	r22, 0x75	; 117
    5f02:	00 98       	cbi	0x00, 0	; 0
    5f04:	fc 5e       	subi	r31, 0xEC	; 236
    5f06:	80 64       	ori	r24, 0x40	; 64
    5f08:	6e 65       	ori	r22, 0x5E	; 94
    5f0a:	67 00       	.word	0x0067	; ????
    5f0c:	99 04       	cpc	r9, r9
    5f0e:	5f 80       	ldd	r5, Y+7	; 0x07
    5f10:	6f 76       	andi	r22, 0x6F	; 111
    5f12:	65 72       	andi	r22, 0x25	; 37
    5f14:	00 9a       	sbi	0x00, 0	; 0
    5f16:	0d 5f       	subi	r16, 0xFD	; 253
    5f18:	80 64       	ori	r24, 0x40	; 64
    5f1a:	72 6f       	ori	r23, 0xF2	; 242
    5f1c:	70 00       	.word	0x0070	; ????
    5f1e:	83 16       	cp	r8, r19
    5f20:	5f 80       	ldd	r5, Y+7	; 0x07
    5f22:	73 77       	andi	r23, 0x73	; 115
    5f24:	61 70       	andi	r22, 0x01	; 1
    5f26:	00 9b       	sbis	0x00, 0	; 0
    5f28:	1f 5f       	subi	r17, 0xFF	; 255
    5f2a:	80 64       	ori	r24, 0x40	; 64
    5f2c:	75 70       	andi	r23, 0x05	; 5
    5f2e:	00 9c       	mul	r0, r0
    5f30:	28 5f       	subi	r18, 0xF8	; 248
    5f32:	80 40       	sbci	r24, 0x00	; 0
    5f34:	00 9d       	mul	r16, r0
    5f36:	30 5f       	subi	r19, 0xF0	; 240
    5f38:	80 63       	ori	r24, 0x30	; 48
    5f3a:	40 00       	.word	0x0040	; ????
    5f3c:	9e 36       	cpi	r25, 0x6E	; 110
    5f3e:	5f 80       	ldd	r5, Y+7	; 0x07
    5f40:	21 00       	.word	0x0021	; ????
    5f42:	a0 3d       	cpi	r26, 0xD0	; 208
    5f44:	5f 80       	ldd	r5, Y+7	; 0x07
    5f46:	63 21       	and	r22, r3
    5f48:	00 9f       	mul	r16, r16
    5f4a:	43 5f       	subi	r20, 0xF3	; 243
    5f4c:	80 64       	ori	r24, 0x40	; 64
    5f4e:	40 00       	.word	0x0040	; ????
    5f50:	c5 4a       	sbci	r28, 0xA5	; 165
    5f52:	5f 80       	ldd	r5, Y+7	; 0x07
    5f54:	64 21       	and	r22, r4
    5f56:	00 c6       	rjmp	.+3072   	; 0x6b58 <_FigRomMSlash+0x15>
    5f58:	51 5f       	subi	r21, 0xF1	; 241
    5f5a:	80 75       	andi	r24, 0x50	; 80
    5f5c:	2a 00       	.word	0x002a	; ????
    5f5e:	89 58       	subi	r24, 0x89	; 137
    5f60:	5f 80       	ldd	r5, Y+7	; 0x07
    5f62:	75 2f       	mov	r23, r21
    5f64:	00 8b       	std	Z+16, r16	; 0x10
    5f66:	5f 5f       	subi	r21, 0xFF	; 255
    5f68:	80 65       	ori	r24, 0x50	; 80
    5f6a:	6d 69       	ori	r22, 0x9D	; 157
    5f6c:	74 00       	.word	0x0074	; ????
    5f6e:	a8 66       	ori	r26, 0x68	; 104
    5f70:	5f 80       	ldd	r5, Y+7	; 0x07
    5f72:	70 6c       	ori	r23, 0xC0	; 192
    5f74:	6f 74       	andi	r22, 0x4F	; 79
    5f76:	00 b7       	in	r16, 0x30	; 48
    5f78:	6f 5f       	subi	r22, 0xFF	; 255
    5f7a:	80 31       	cpi	r24, 0x10	; 16
    5f7c:	2b 00       	.word	0x002b	; ????
    5f7e:	a2 78       	andi	r26, 0x82	; 130
    5f80:	5f 80       	ldd	r5, Y+7	; 0x07
    5f82:	63 6d       	ori	r22, 0xD3	; 211
    5f84:	6f 76       	andi	r22, 0x6F	; 111
    5f86:	65 00       	.word	0x0065	; ????
    5f88:	b6 7f       	andi	r27, 0xF6	; 246
    5f8a:	5f 80       	ldd	r5, Y+7	; 0x07
    5f8c:	66 69       	ori	r22, 0x96	; 150
    5f8e:	6c 6c       	ori	r22, 0xCC	; 204
    5f90:	00 b0       	in	r0, 0x00	; 0
    5f92:	89 5f       	subi	r24, 0xF9	; 249
    5f94:	80 69       	ori	r24, 0x90	; 144
    5f96:	63 40       	sbci	r22, 0x03	; 3
    5f98:	00 a4       	lds	r16, 0xa0
    5f9a:	92 5f       	subi	r25, 0xF2	; 242
    5f9c:	80 69       	ori	r24, 0x90	; 144
    5f9e:	63 21       	and	r22, r3
    5fa0:	00 a5       	lds	r16, 0x60
    5fa2:	9a 5f       	subi	r25, 0xFA	; 250
    5fa4:	80 69       	ori	r24, 0x90	; 144
    5fa6:	40 00       	.word	0x0040	; ????
    5fa8:	a6 a2       	lds	r26, 0x96
    5faa:	5f 80       	ldd	r5, Y+7	; 0x07
    5fac:	69 21       	and	r22, r9
    5fae:	00 a7       	lds	r16, 0x70
    5fb0:	a9 5f       	subi	r26, 0xF9	; 249
    5fb2:	80 3e       	cpi	r24, 0xE0	; 224
    5fb4:	70 6f       	ori	r23, 0xF0	; 240
    5fb6:	72 74       	andi	r23, 0x42	; 66
    5fb8:	3e 00       	.word	0x003e	; ????
    5fba:	8a b0       	in	r8, 0x0a	; 10
    5fbc:	5f 80       	ldd	r5, Y+7	; 0x07
    5fbe:	73 70       	andi	r23, 0x03	; 3
    5fc0:	69 00       	.word	0x0069	; ????
    5fc2:	b8 bb       	out	0x18, r27	; 24
    5fc4:	5f 80       	ldd	r5, Y+7	; 0x07
    5fc6:	31 2d       	mov	r19, r1
    5fc8:	00 af       	sts	0x70, r16
    5fca:	c3 5f       	subi	r28, 0xF3	; 243
    5fcc:	80 61       	ori	r24, 0x10	; 16
    5fce:	74 00       	.word	0x0074	; ????
    5fd0:	ad ca       	rjmp	.-2726   	; 0x552c <__data_load_end+0x1d36>
    5fd2:	5f 80       	ldd	r5, Y+7	; 0x07
    5fd4:	2e 68       	ori	r18, 0x8E	; 142
    5fd6:	65 78       	andi	r22, 0x85	; 133
    5fd8:	00 aa       	sts	0x90, r16
    5fda:	d1 5f       	subi	r29, 0xF1	; 241
    5fdc:	80 74       	andi	r24, 0x40	; 64
    5fde:	69 6c       	ori	r22, 0xC9	; 201
    5fe0:	65 00       	.word	0x0065	; ????
    5fe2:	bd da       	rcall	.-2694   	; 0x555e <__data_load_end+0x1d68>
    5fe4:	5f 80       	ldd	r5, Y+7	; 0x07
    5fe6:	62 6c       	ori	r22, 0xC2	; 194
    5fe8:	74 00       	.word	0x0074	; ????
    5fea:	be e3       	ldi	r27, 0x3E	; 62
    5fec:	5f 80       	ldd	r5, Y+7	; 0x07
    5fee:	32 62       	ori	r19, 0x22	; 34
    5ff0:	6c 74       	andi	r22, 0x4C	; 76
    5ff2:	00 bf       	out	0x30, r16	; 48
    5ff4:	eb 5f       	subi	r30, 0xFB	; 251
    5ff6:	80 62       	ori	r24, 0x20	; 32
    5ff8:	6c 74       	andi	r22, 0x4C	; 76
    5ffa:	73 00       	.word	0x0073	; ????
    5ffc:	c0 f4       	brcc	.+48     	; 0x602e <KernVecs+0x1d4>
    5ffe:	5f 80       	ldd	r5, Y+7	; 0x07
    6000:	63 6c       	ori	r22, 0xC3	; 195
    6002:	69 70       	andi	r22, 0x09	; 9
    6004:	00 c1       	rjmp	.+512    	; 0x6206 <_FigRomClock+0x1>
    6006:	fd 5f       	subi	r31, 0xFD	; 253
    6008:	80 2a       	or	r8, r16
    600a:	00 03       	mulsu	r16, r16
    600c:	09 06       	cpc	r0, r25
    600e:	60 80       	ld	r6, Z
    6010:	32 2b       	or	r19, r18
    6012:	00 22       	and	r0, r16
    6014:	22 0d       	add	r18, r2
    6016:	60 80       	ld	r6, Z
    6018:	73 2d       	mov	r23, r3
    601a:	3e 64       	ori	r19, 0x4E	; 78
    601c:	00 15       	cp	r16, r0
    601e:	1c 15       	cp	r17, r12
    6020:	60 80       	ld	r6, Z
    6022:	2d 31       	cpi	r18, 0x1D	; 29
    6024:	00 2f       	mov	r16, r16
    6026:	2b 1f       	adc	r18, r27
    6028:	60 80       	ld	r6, Z
    602a:	32 2a       	or	r3, r18
    602c:	00 16       	cp	r0, r16
    602e:	1c 27       	eor	r17, r28
    6030:	60 00       	.word	0x0060	; ????
    6032:	6c 6f       	ori	r22, 0xFC	; 252
    6034:	63 73       	andi	r22, 0x33	; 51
	...

00006037 <_FigRomLocs>:
    6037:	11 1b       	sub	r17, r17
    6039:	25 62       	ori	r18, 0x25	; 37
    603b:	26 1b       	sub	r18, r22
    603d:	18 1a       	sub	r1, r24
    603f:	16 1c       	adc	r1, r6
    6041:	25 62       	ori	r18, 0x25	; 37
    6043:	27 1c       	adc	r2, r7
    6045:	62 26       	eor	r6, r18
    6047:	13 1c       	adc	r1, r3
    6049:	62 27       	eor	r22, r18
    604b:	13 13       	cpse	r17, r19
    604d:	2e 11       	cpse	r18, r14

0000604e <_FigRomOpenlocSemiClose>:
    604e:	11 11       	cpse	r17, r1
    6050:	11 1c       	adc	r1, r1
    6052:	62 27       	eor	r22, r18
    6054:	25 62       	ori	r18, 0x25	; 37
    6056:	27 03       	mulsu	r18, r23
    6058:	2e 2f       	mov	r18, r30
    605a:	60 40       	sbci	r22, 0x00	; 0
    605c:	6c 6f       	ori	r22, 0xFC	; 252
    605e:	63 3b       	cpi	r22, 0xB3	; 179
	...

00006061 <_FigRomLocSemi>:
    6061:	66 65       	ori	r22, 0x56	; 86
    6063:	4e 60       	ori	r20, 0x0E	; 14
    6065:	76 65       	ori	r23, 0x56	; 86
    6067:	2e 37       	cpi	r18, 0x7E	; 126

00006068 <_FigRomOpenindexSfClose>:
    6068:	37 63       	ori	r19, 0x37	; 55
    606a:	c7 62       	ori	r28, 0x27	; 39
    606c:	1d 76       	andi	r17, 0x6D	; 109
    606e:	65 2e       	mov	r6, r21
    6070:	62 26       	eor	r6, r18
    6072:	13 13       	cpse	r17, r19
    6074:	01 69       	ori	r16, 0x91	; 145
    6076:	11 c7       	rjmp	.+3618   	; 0x6e9a <_FigRomSyncInit+0x23>
    6078:	62 20       	and	r6, r2
    607a:	2e 62       	ori	r18, 0x2E	; 46
    607c:	26 11       	cpse	r18, r6
    607e:	42 01       	movw	r8, r4
    6080:	81 64       	ori	r24, 0x41	; 65
    6082:	c5 64       	ori	r28, 0x45	; 69
    6084:	37 63       	ori	r19, 0x37	; 55
    6086:	2e 59       	subi	r18, 0x9E	; 158
    6088:	60 40       	sbci	r22, 0x00	; 0
    608a:	6c 3e       	cpi	r22, 0xEC	; 236
	...

0000608d <_FigRomLFrom>:
    608d:	2c 29       	or	r18, r12
    608f:	68 60       	ori	r22, 0x08	; 8
    6091:	2e 87       	std	Y+14, r18	; 0x0e
    6093:	60 40       	sbci	r22, 0x00	; 0
    6095:	3e 6c       	ori	r19, 0xCE	; 206
	...

00006098 <_FigRomTol>:
    6098:	2c 31       	cpi	r18, 0x1C	; 28
    609a:	68 60       	ori	r22, 0x08	; 8
    609c:	2e 92       	st	-X, r2
    609e:	60 00       	.word	0x0060	; ????
    60a0:	6b 65       	ori	r22, 0x5B	; 91
    60a2:	79 00       	.word	0x0079	; ????

000060a4 <_FigRomKey>:
    60a4:	01 bc       	out	0x21, r0	; 33
    60a6:	60 13       	cpse	r22, r16
    60a8:	62 1c       	adc	r6, r2
    60aa:	26 1b       	sub	r18, r22
    60ac:	22 22       	and	r2, r18
    60ae:	24 16       	cp	r2, r20
    60b0:	8b 70       	andi	r24, 0x0B	; 11
    60b2:	2e 9d       	mul	r18, r14
    60b4:	60 00       	.word	0x0060	; ????
    60b6:	69 6e       	ori	r22, 0xE9	; 233
    60b8:	6b 65       	ori	r22, 0x5B	; 91
    60ba:	79 00       	.word	0x0079	; ????

000060bc <_FigRomInkey>:
    60bc:	23 00       	.word	0x0023	; ????
    60be:	7d 01       	movw	r14, r26
    60c0:	0e 94 c6 0c 	call	0x198c	; 0x198c <KeyP>
    60c4:	99 27       	eor	r25, r25
    60c6:	d7 01       	movw	r26, r14

000060c8 <RomPushWordRet>:
    60c8:	0d 93       	st	X+, r16
    60ca:	1d 93       	st	X+, r17
    60cc:	8c 01       	movw	r16, r24

000060ce <Rom_VMkFigExit>:
    60ce:	cf 91       	pop	r28
    60d0:	df 91       	pop	r29
    60d2:	0e 94 e4 06 	call	0xdc8	; 0xdc8 <_VmTrapJump>
    60d6:	0c 94 e2 07 	jmp	0xfc4	; 0xfc4 <_VMNextIntJump>

000060da <_FigRomHiresQury>:
    60da:	01 3e       	cpi	r16, 0xE1	; 225
    60dc:	00 24       	eor	r0, r0
    60de:	2c 01       	movw	r4, r24
    60e0:	0c 2e       	mov	r0, r28
    60e2:	b3 60       	ori	r27, 0x03	; 3
    60e4:	00 63       	ori	r16, 0x30	; 48
    60e6:	6c 73       	andi	r22, 0x3C	; 60
	...

000060e9 <_FigRomCls>:
    60e9:	2b 2b       	or	r18, r27
    60eb:	2d da       	rcall	.-2982   	; 0x5547 <__data_load_end+0x1d51>
    60ed:	60 04       	cpc	r6, r0
    60ef:	0f 2c       	mov	r0, r15
    60f1:	a0 2c       	mov	r10, r0
    60f3:	a0 41       	sbci	r26, 0x10	; 16
    60f5:	01 80       	ldd	r0, Z+1	; 0x01
    60f7:	f3 01       	movw	r30, r6
    60f9:	80 0c       	add	r8, r0
    60fb:	2b 05       	cpc	r18, r11
    60fd:	08 f9       	.word	0xf908	; ????

000060fe <_FigRomCls_1>:
    60fe:	f9 61       	ori	r31, 0x19	; 25
    6100:	01 58       	subi	r16, 0x81	; 129
    6102:	02 2c       	mov	r0, r2
    6104:	20 30       	cpi	r18, 0x00	; 0

00006105 <_FigRomCls_2>:
    6105:	30 2e       	mov	r3, r16
    6107:	e2 60       	ori	r30, 0x02	; 2
    6109:	00 69       	ori	r16, 0x90	; 144
    610b:	27 00       	.word	0x0027	; ????

0000610d <_FigRomITick>:
    610d:	23 c5       	rjmp	.+2630   	; 0x6b55 <_FigRomMSlash+0x12>
    610f:	01 db       	rcall	.-2558   	; 0x5713 <__data_load_end+0x1f1d>
    6111:	cf 07       	cpc	r28, r31
    6113:	61 00       	.word	0x0061	; ????
    6115:	63 72       	andi	r22, 0x23	; 35
	...

00006118 <_FigRomCr>:
    6118:	2c 0d       	add	r18, r12
    611a:	28 2e       	mov	r2, r24
    611c:	12 61       	ori	r17, 0x12	; 18
    611e:	00 74       	andi	r16, 0x40	; 64
    6120:	79 70       	andi	r23, 0x09	; 9
    6122:	65 00       	.word	0x0065	; ????

00006124 <_FigRomType>:
    6124:	74 63       	ori	r23, 0x34	; 52
    6126:	04 0c       	add	r0, r4
    6128:	1a 16       	cp	r1, r26
    612a:	1b 08       	sbc	r1, r11

0000612c <_FigRomType_2>:
    612c:	21 1e       	adc	r2, r17
    612e:	28 06       	cpc	r2, r24
    6130:	fc 05       	cpc	r31, r12
    6132:	02 03       	mulsu	r16, r18

00006133 <_FigRomType_1>:
    6133:	03 2e       	mov	r0, r19

00006134 <_FigRomType_3>:
    6134:	2e 1c       	adc	r2, r14
    6136:	61 00       	.word	0x0061	; ????
    6138:	73 70       	andi	r23, 0x03	; 3
    613a:	61 63       	ori	r22, 0x31	; 49
    613c:	65 00       	.word	0x0065	; ????

0000613e <_FigRomSpace>:
    613e:	ee 61       	ori	r30, 0x1E	; 30
    6140:	28 2e       	mov	r2, r24
    6142:	35 61       	ori	r19, 0x15	; 21
    6144:	00 73       	andi	r16, 0x30	; 48
    6146:	70 61       	ori	r23, 0x10	; 16
    6148:	63 65       	ori	r22, 0x53	; 83
    614a:	73 00       	.word	0x0073	; ????

0000614c <_FigRomSpaces>:
    614c:	2b 05       	cpc	r18, r11
    614e:	6b 74       	andi	r22, 0x4B	; 75
    6150:	63 04       	cpc	r6, r3
    6152:	07 2b       	or	r16, r23
    6154:	08 3e       	cpi	r16, 0xE8	; 232

00006155 <_FigRomSpaces_2>:
    6155:	3e 61       	ori	r19, 0x1E	; 30
    6157:	06 fd       	sbrc	r16, 6

00006159 <_FigRomSpaces_1>:
    6159:	2e 05       	cpc	r18, r14

0000615a <_FigRomOpenQuoteDotClose>:
    615a:	05 03       	mulsu	r16, r21

0000615c <_FigRomOpenQuoteDotClose_2>:
    615c:	28 22       	and	r2, r24

0000615e <_FigRomOpenQuoteDotClose_1>:
    615e:	1c 1e       	adc	r1, r28
    6160:	1c 14       	cp	r1, r12
    6162:	04 f9       	bld	r16, 4
    6164:	03 2e       	mov	r0, r19
    6166:	42 61       	ori	r20, 0x12	; 18
    6168:	00 22       	and	r0, r16
    616a:	2e 00       	.word	0x002e	; ????

0000616c <_FigRomQuoteDot>:
    616c:	5a 61       	ori	r21, 0x1A	; 26
    616e:	03 2e       	mov	r0, r19

00006170 <_FigRomOpenDotQuoteClose>:
    6170:	11 5a       	subi	r17, 0xA1	; 161
    6172:	61 22       	and	r6, r17
    6174:	13 2e       	mov	r1, r19

00006176 <_FigRomQuoteComma>:
    6176:	2c 22       	and	r2, r28
    6178:	60 67       	ori	r22, 0x70	; 112
    617a:	12 63       	ori	r17, 0x32	; 50
    617c:	cf 66       	ori	r28, 0x6F	; 111
    617e:	22 1f       	adc	r18, r18
    6180:	63 2e       	mov	r6, r19
    6182:	66 61       	ori	r22, 0x16	; 22
    6184:	40 2e       	mov	r4, r16
    6186:	22 00       	.word	0x0022	; ????

00006188 <_FigRomDotQuote>:
    6188:	c7 62       	ori	r28, 0x27	; 39
    618a:	1d 04       	cpc	r1, r13
    618c:	09 66       	ori	r16, 0x69	; 105
    618e:	65 70       	andi	r22, 0x05	; 5
    6190:	61 76       	andi	r22, 0x61	; 97
    6192:	61 05       	cpc	r22, r1
    6194:	09 2c       	mov	r0, r9

00006195 <_FigRomDotQuote_1>:
    6195:	2c 22       	and	r2, r28
    6197:	60 67       	ori	r22, 0x70	; 112
    6199:	12 63       	ori	r17, 0x32	; 50
    619b:	6c 61       	ori	r22, 0x1C	; 28

0000619d <_FigRomDotQuote_2>:
    619d:	2e 11       	cpse	r18, r14

0000619e <_FigRomOpenQuoteClose>:
    619e:	11 1c       	adc	r1, r1
    61a0:	1d 13       	cpse	r17, r29
    61a2:	22 22       	and	r2, r18
    61a4:	2e 82       	std	Y+6, r2	; 0x06
    61a6:	61 40       	sbci	r22, 0x01	; 1
    61a8:	22 00       	.word	0x0022	; ????

000061aa <_FigRomQuote>:
    61aa:	c7 62       	ori	r28, 0x27	; 39
    61ac:	1d 04       	cpc	r1, r13
    61ae:	12 66       	ori	r17, 0x62	; 98
    61b0:	65 9e       	mul	r6, r21
    61b2:	61 12       	cpse	r6, r17
    61b4:	63 2b       	or	r22, r19
    61b6:	29 63       	ori	r18, 0x39	; 57
    61b8:	76 61       	ori	r23, 0x16	; 22
    61ba:	12 63       	ori	r17, 0x32	; 50
    61bc:	1b 20       	and	r1, r11
    61be:	05 03       	mulsu	r16, r21

000061c0 <_FigRomQuote_1>:
    61c0:	76 61       	ori	r23, 0x16	; 22

000061c2 <_FigRomQuote_2>:
    61c2:	2e a5       	lds	r18, 0x6e
    61c4:	61 00       	.word	0x0061	; ????
    61c6:	76 61       	ori	r23, 0x16	; 22
    61c8:	72 00       	.word	0x0072	; ????

000061ca <_FigRomVar>:
    61ca:	2c 3b       	cpi	r18, 0xBC	; 188
    61cc:	05 0c       	add	r0, r5
    61ce:	c3 61       	ori	r28, 0x13	; 19
    61d0:	00 63       	ori	r16, 0x30	; 48
    61d2:	6f 6e       	ori	r22, 0xEF	; 239
    61d4:	73 74       	andi	r23, 0x43	; 67
	...

000061d7 <_FigRomConst>:
    61d7:	2c 3c       	cpi	r18, 0xCC	; 204

000061d9 <VarConstDef>:
    61d9:	62 68       	ori	r22, 0x82	; 130
    61db:	12 63       	ori	r17, 0x32	; 50
    61dd:	2f 1f       	adc	r18, r31
    61df:	29 63       	ori	r18, 0x39	; 57
    61e1:	2e ce       	rjmp	.-932    	; 0x5e3f <_fthROM+0x7>
    61e3:	61 80       	ldd	r6, Z+1	; 0x01
    61e5:	30 00       	.word	0x0030	; ????
    61e7:	ab e2       	ldi	r26, 0x2B	; 43
    61e9:	61 00       	.word	0x0061	; ????
    61eb:	62 6c       	ori	r22, 0xC2	; 194
	...

000061ee <_FigRomBl>:
    61ee:	3c 20       	and	r3, r12
    61f0:	00 e8       	ldi	r16, 0x80	; 128
    61f2:	61 00       	.word	0x0061	; ????
    61f4:	76 72       	andi	r23, 0x26	; 38
    61f6:	61 6d       	ori	r22, 0xD1	; 209
	...

000061f9 <_FigRomVram>:
    61f9:	3c 27       	eor	r19, r28
    61fb:	01 f1       	breq	.+64     	; 0x623d <User0+0x2>
    61fd:	61 00       	.word	0x0061	; ????
    61ff:	63 6c       	ori	r22, 0xC3	; 195
    6201:	6f 63       	ori	r22, 0x3F	; 63
    6203:	6b 00       	.word	0x006b	; ????

00006205 <_FigRomClock>:
    6205:	3c 24       	eor	r3, r12
    6207:	01 fc       	sbrc	r0, 1
    6209:	61 00       	.word	0x0061	; ????
    620b:	73 79       	andi	r23, 0x93	; 147
    620d:	73 76       	andi	r23, 0x63	; 99
    620f:	61 72       	andi	r22, 0x21	; 33
    6211:	73 00       	.word	0x0073	; ????

00006213 <_FigRomSysvars>:
    6213:	3c 06       	cpc	r3, r28
    6215:	01 08       	sbc	r0, r1
    6217:	62 00       	.word	0x0062	; ????
    6219:	73 66       	ori	r23, 0x63	; 99
	...

0000621c <_FigRomSf>:
    621c:	3c 12       	cpse	r3, r28
    621e:	01 16       	cp	r0, r17
    6220:	62 00       	.word	0x0062	; ????
    6222:	72 70       	andi	r23, 0x02	; 2
	...

00006225 <_FigRomRp>:
    6225:	3c 5d       	subi	r19, 0xDC	; 220
    6227:	00 1f       	adc	r16, r16
    6229:	62 00       	.word	0x0062	; ????
    622b:	73 70       	andi	r23, 0x03	; 3
	...

0000622e <_FigRomSp>:
    622e:	3c 1a       	sub	r3, r28
    6230:	00 28       	or	r0, r0
    6232:	62 00       	.word	0x0062	; ????
    6234:	73 70       	andi	r23, 0x03	; 3
    6236:	30 00       	.word	0x0030	; ????

00006238 <_FigRomSp0>:
    6238:	3c ff       	.word	0xff3c	; ????
    623a:	03 fa       	bst	r0, 3

0000623b <User0>:
    623b:	fa 7c       	andi	r31, 0xCA	; 202
    623d:	01 00       	.word	0x0001	; ????
    623f:	ff ff       	.word	0xffff	; ????
    6241:	ff ff       	.word	0xffff	; ????
	...
    624b:	80 80       	ld	r8, Z
    624d:	2b 00       	.word	0x002b	; ????
    624f:	0a 00       	.word	0x000a	; ????
    6251:	20 80       	ld	r2, Z
    6253:	31 62       	ori	r19, 0x21	; 33
    6255:	00 63       	ori	r16, 0x30	; 48
    6257:	75 72       	andi	r23, 0x25	; 37
    6259:	72 65       	ori	r23, 0x52	; 82
    625b:	6e 74       	andi	r22, 0x4E	; 78
	...

0000625e <_FigRomCurrent>:
    625e:	3c 00       	.word	0x003c	; ????
    6260:	80 53       	subi	r24, 0x30	; 48
    6262:	62 00       	.word	0x0062	; ????
    6264:	77 61       	ori	r23, 0x17	; 23
    6266:	72 6e       	ori	r23, 0xE2	; 226
    6268:	69 6e       	ori	r22, 0xE9	; 233
    626a:	67 00       	.word	0x0067	; ????

0000626c <_FigRomWarning>:
    626c:	3c 02       	muls	r19, r28
    626e:	80 61       	ori	r24, 0x10	; 16
    6270:	62 00       	.word	0x0062	; ????
    6272:	6d 61       	ori	r22, 0x1D	; 29
    6274:	72 6b       	ori	r23, 0xB2	; 178
    6276:	65 72       	andi	r22, 0x25	; 37
	...

00006279 <_FigRomMarker>:
    6279:	3c 04       	cpc	r3, r12
    627b:	80 6f       	ori	r24, 0xF0	; 240
    627d:	62 00       	.word	0x0062	; ????
    627f:	74 6f       	ori	r23, 0xF4	; 244
    6281:	70 00       	.word	0x0070	; ????

00006283 <_FigRomTop>:
    6283:	3c 06       	cpc	r3, r28
    6285:	80 7c       	andi	r24, 0xC0	; 192
    6287:	62 00       	.word	0x0062	; ????
    6289:	62 6c       	ori	r22, 0xC2	; 194
    628b:	6b 2a       	or	r6, r27
	...

0000628e <_FigRomBlkStar>:
    628e:	3c 08       	sbc	r3, r12
    6290:	80 86       	std	Z+8, r8	; 0x08
    6292:	62 00       	.word	0x0062	; ????
    6294:	62 6c       	ori	r22, 0xC2	; 194
    6296:	6b 73       	andi	r22, 0x3B	; 59
    6298:	2a 00       	.word	0x002a	; ????

0000629a <_FigRomBlksStar>:
    629a:	3c 0a       	sbc	r3, r28
    629c:	80 91 62 00 	lds	r24, 0x0062
    62a0:	62 6c       	ori	r22, 0xC2	; 194
    62a2:	6b 23       	and	r22, r27
	...

000062a5 <_FigRomBlkHash>:
    62a5:	3c 0c       	add	r3, r12
    62a7:	80 9d       	mul	r24, r0
    62a9:	62 00       	.word	0x0062	; ????
    62ab:	66 70       	andi	r22, 0x06	; 6
    62ad:	61 72       	andi	r22, 0x21	; 33
    62af:	73 65       	ori	r23, 0x53	; 83
	...

000062b2 <_FigRomFparse>:
    62b2:	3c 0e       	add	r3, r28
    62b4:	80 a8       	sts	0x00, r24
    62b6:	62 00       	.word	0x0062	; ????
    62b8:	64 70       	andi	r22, 0x04	; 4
	...

000062bb <_FigRomDp>:
    62bb:	3c 10       	cpse	r3, r12
    62bd:	80 b5       	in	r24, 0x20	; 32
    62bf:	62 00       	.word	0x0062	; ????
    62c1:	73 74       	andi	r23, 0x43	; 67
    62c3:	61 74       	andi	r22, 0x41	; 65
    62c5:	65 00       	.word	0x0065	; ????

000062c7 <_FigRomState>:
    62c7:	3c 12       	cpse	r3, r28
    62c9:	80 be       	out	0x30, r8	; 48
    62cb:	62 00       	.word	0x0062	; ????
    62cd:	62 61       	ori	r22, 0x12	; 18
    62cf:	73 65       	ori	r23, 0x53	; 83
	...

000062d2 <_FigRomBase>:
    62d2:	3c 14       	cp	r3, r12
    62d4:	80 ca       	rjmp	.-2816   	; 0x57d6 <__data_load_end+0x1fe0>
    62d6:	62 00       	.word	0x0062	; ????
    62d8:	68 6c       	ori	r22, 0xC8	; 200
    62da:	64 00       	.word	0x0064	; ????

000062dc <_FigRomHld>:
    62dc:	3c 16       	cp	r3, r28
    62de:	80 d5       	rcall	.+2816   	; 0x6de0 <_FigRomMore+0xc>
    62e0:	62 00       	.word	0x0062	; ????
    62e2:	74 69       	ori	r23, 0x94	; 148
    62e4:	62 00       	.word	0x0062	; ????

000062e6 <_FigRomTib>:
    62e6:	3c 18       	sub	r3, r12
    62e8:	80 df       	rcall	.-256    	; 0x61ea <VarConstDef+0x11>
    62ea:	62 00       	.word	0x0062	; ????
    62ec:	6c 61       	ori	r22, 0x1C	; 28
    62ee:	74 65       	ori	r23, 0x54	; 84
    62f0:	73 74       	andi	r23, 0x43	; 67
	...

000062f3 <_FigRomLatest>:
    62f3:	5e 62       	ori	r21, 0x2E	; 46
    62f5:	1d 2e       	mov	r1, r29
    62f7:	e9 62       	ori	r30, 0x29	; 41
    62f9:	00 2b       	or	r16, r16
    62fb:	21 00       	.word	0x0021	; ????

000062fd <_FigRomPlusStore>:
    62fd:	1b 1a       	sub	r1, r27
    62ff:	1d 16       	cp	r1, r29
    6301:	1b 20       	and	r1, r11
    6303:	2e 1a       	sub	r2, r30

00006304 <_FigRomToggle>:
    6304:	1a 1e       	adc	r1, r26
    6306:	0e 1b       	sub	r16, r30
    6308:	1f 2e       	mov	r1, r31
    630a:	f7 62       	ori	r31, 0x27	; 39
    630c:	00 68       	ori	r16, 0x80	; 128
    630e:	65 72       	andi	r22, 0x25	; 37
    6310:	65 00       	.word	0x0065	; ????

00006312 <_FigRomHere>:
    6312:	bb 62       	ori	r27, 0x2B	; 43
    6314:	1d 2e       	mov	r1, r29
    6316:	0a 63       	ori	r16, 0x3A	; 58
    6318:	00 61       	ori	r16, 0x10	; 16
    631a:	6c 6c       	ori	r22, 0xCC	; 204
    631c:	6f 74       	andi	r22, 0x4F	; 79
	...

0000631f <_FigRomAllot>:
    631f:	bb 62       	ori	r27, 0x2B	; 43
    6321:	fd 62       	ori	r31, 0x2D	; 45
    6323:	2e 16       	cp	r2, r30
    6325:	63 00       	.word	0x0063	; ????
    6327:	2c 00       	.word	0x002c	; ????

00006329 <_FigRomComma>:
    6329:	12 63       	ori	r17, 0x32	; 50
    632b:	20 2c       	mov	r2, r0
    632d:	02 1f       	adc	r16, r18
    632f:	63 2e       	mov	r6, r19
    6331:	24 63       	ori	r18, 0x34	; 52
    6333:	00 63       	ori	r16, 0x30	; 48
    6335:	2c 00       	.word	0x002c	; ????

00006337 <_FigRomCComma>:
    6337:	12 63       	ori	r17, 0x32	; 50
    6339:	1f 2c       	mov	r1, r15
    633b:	01 1f       	adc	r16, r17
    633d:	63 2e       	mov	r6, r19
    633f:	31 63       	ori	r19, 0x31	; 49
    6341:	80 3d       	cpi	r24, 0xD0	; 208
    6343:	00 14       	cp	r0, r0
    6345:	42 3f       	cpi	r20, 0xF2	; 242
    6347:	63 80       	ldd	r6, Z+3	; 0x03
    6349:	3c 00       	.word	0x003c	; ????
    634b:	15 42       	sbci	r17, 0x25	; 37
    634d:	46 63       	ori	r20, 0x36	; 54
    634f:	00 3e       	cpi	r16, 0xE0	; 224
	...

00006352 <_FigRomTo>:
    6352:	1b 15       	cp	r17, r11
    6354:	42 2e       	mov	r4, r18
    6356:	4d 63       	ori	r20, 0x3D	; 61
    6358:	00 72       	andi	r16, 0x20	; 32
    635a:	6f 74       	andi	r22, 0x4F	; 79
	...

0000635d <_FigRomRot>:
    635d:	13 1b       	sub	r17, r19
    635f:	11 1b       	sub	r17, r17
    6361:	2e 56       	subi	r18, 0x6E	; 110
    6363:	63 80       	ldd	r6, Z+3	; 0x03
    6365:	32 64       	ori	r19, 0x42	; 66
    6367:	75 70       	andi	r23, 0x05	; 5
    6369:	00 1a       	sub	r0, r16
    636b:	1a 62       	ori	r17, 0x2A	; 42
    636d:	63 00       	.word	0x0063	; ????
    636f:	3f 64       	ori	r19, 0x4F	; 79
    6371:	75 70       	andi	r23, 0x05	; 5
	...

00006374 <_FigRomQurydup>:
    6374:	1c 04       	cpc	r1, r12
    6376:	02 1c       	adc	r0, r2

00006378 <_FigRomQurydup_1>:
    6378:	2e 6c       	ori	r18, 0xCE	; 206
    637a:	63 00       	.word	0x0063	; ????
    637c:	75 3c       	cpi	r23, 0xC5	; 197
	...

0000637f <_FigRomULt>:
    637f:	2b 1b       	sub	r18, r27
    6381:	2b 19       	sub	r18, r11
    6383:	17 1b       	sub	r17, r23
    6385:	03 2e       	mov	r0, r19

00006387 <_FigRomEePrep>:
    6387:	2c 3f       	cpi	r18, 0xFC	; 252
    6389:	24 2c       	mov	r2, r4
    638b:	02 0c       	add	r0, r2
    638d:	14 04       	cpc	r1, r4
    638f:	f8 1c       	adc	r15, r8
    6391:	2c 08       	sbc	r2, r12
    6393:	32 2c       	mov	r3, r2
    6395:	42 25       	eor	r20, r2
    6397:	2c 41       	sbci	r18, 0x1C	; 28
    6399:	25 2e       	mov	r2, r21
    639b:	79 63       	ori	r23, 0x39	; 57
    639d:	00 65       	ori	r16, 0x50	; 80
    639f:	63 40       	sbci	r22, 0x03	; 3
	...

000063a2 <_FigRomEcFetch>:
    63a2:	87 63       	ori	r24, 0x37	; 55
    63a4:	2c 01       	movw	r4, r24
    63a6:	01 fe       	sbrs	r0, 1
    63a8:	ff 2c       	mov	r15, r15
    63aa:	3f 0a       	sbc	r3, r31
    63ac:	03 2c       	mov	r0, r3
    63ae:	40 24       	eor	r4, r0
    63b0:	2e 9b       	sbis	0x05, 6	; 5
    63b2:	63 00       	.word	0x0063	; ????
    63b4:	65 63       	ori	r22, 0x35	; 53
    63b6:	21 00       	.word	0x0021	; ????

000063b8 <_FigRomEcStore>:
    63b8:	87 63       	ori	r24, 0x37	; 55
    63ba:	2c 40       	sbci	r18, 0x0C	; 12
    63bc:	25 23       	and	r18, r21

000063bd <_FigRomOpenecStoreClose>:
    63bd:	23 f8       	bld	r2, 3
    63bf:	94 fa       	bst	r9, 4
    63c1:	9a f9       	.word	0xf99a	; ????
    63c3:	9a 78       	andi	r25, 0x8A	; 138
    63c5:	94 83       	std	Z+4, r25	; 0x04
    63c7:	ce b1       	in	r28, 0x0e	; 14
    63c9:	63 00       	.word	0x0063	; ????
    63cb:	65 6d       	ori	r22, 0xD5	; 213
    63cd:	6f 76       	andi	r22, 0x6F	; 111
    63cf:	65 3e       	cpi	r22, 0xE5	; 229
	...

000063d2 <_FigRomEmoveFrom>:
    63d2:	2b 08       	sbc	r2, r11

000063d4 <_FigRomEmoveFrom_1>:
    63d4:	1a a2       	lds	r17, 0x9a
    63d6:	63 1a       	sub	r6, r19
    63d8:	1f 1b       	sub	r17, r31
    63da:	22 1b       	sub	r18, r18
    63dc:	22 06       	cpc	r2, r18
    63de:	f6 03       	fmuls	r23, r22
    63e0:	03 2e       	mov	r0, r19

000063e2 <_FigRomScrollToInputRow>:
    63e2:	23 00       	.word	0x0023	; ????
    63e4:	8b e1       	ldi	r24, 0x1B	; 27
    63e6:	93 e0       	ldi	r25, 0x03	; 3
    63e8:	7d 01       	movw	r14, r26
    63ea:	0e 94 60 01 	call	0x2c0	; 0x2c0 <ScrollTo>
    63ee:	d7 01       	movw	r26, r14
    63f0:	0c 94 b9 09 	jmp	0x1372	; 0x1372 <_VMkFigExit>
    63f4:	c8 63       	ori	r28, 0x38	; 56
    63f6:	00 6c       	ori	r16, 0xC0	; 192
    63f8:	66 61       	ori	r22, 0x16	; 22
    63fa:	3e 63       	ori	r19, 0x3E	; 62
    63fc:	66 61       	ori	r22, 0x16	; 22
	...

000063ff <_FigRomLfaTocfa>:
    63ff:	22 64       	ori	r18, 0x42	; 66
    6401:	1c 3f       	cpi	r17, 0xFC	; 252
    6403:	64 1b       	sub	r22, r20
    6405:	1e 2c       	mov	r1, r14
    6407:	80 0c       	add	r8, r0
    6409:	04 0c       	add	r0, r4
    640b:	1d 1c       	adc	r1, r13
    640d:	15 04       	cpc	r1, r5
    640f:	07 2c       	mov	r0, r7
    6411:	08 32       	cpi	r16, 0x28	; 40
    6413:	2c 7f       	andi	r18, 0xFC	; 252
    6415:	0c 2e       	mov	r0, r28

00006416 <_FigRomLfaTocfa_1>:
    6416:	2e f4       	brtc	.+10     	; 0x6422 <_FigRomLfaToffa>
    6418:	63 00       	.word	0x0063	; ????
    641a:	6c 66       	ori	r22, 0x6C	; 108
    641c:	61 3e       	cpi	r22, 0xE1	; 225
    641e:	66 66       	ori	r22, 0x66	; 102
    6420:	61 00       	.word	0x0061	; ????

00006422 <_FigRomLfaToffa>:
    6422:	22 22       	and	r2, r18
    6424:	2e 17       	cp	r18, r30
    6426:	64 00       	.word	0x0064	; ????
    6428:	6c 66       	ori	r22, 0x6C	; 108
    642a:	61 3e       	cpi	r22, 0xE1	; 225
    642c:	6e 66       	ori	r22, 0x6E	; 110
    642e:	61 00       	.word	0x0061	; ????

00006430 <_FigRomLfaTonfa>:
    6430:	2c 03       	fmul	r18, r20
    6432:	16 2e       	mov	r1, r22
    6434:	25 64       	ori	r18, 0x45	; 69
    6436:	00 66       	ori	r16, 0x60	; 96
    6438:	66 61       	ori	r22, 0x16	; 22
    643a:	3e 70       	andi	r19, 0x0E	; 14
    643c:	66 61       	ori	r22, 0x16	; 22
	...

0000643f <_FigRomFfaTopfa>:
    643f:	22 1c       	adc	r2, r2
    6441:	cf 66       	ori	r28, 0x6F	; 111
    6443:	16 22       	and	r1, r22
    6445:	2e 34       	cpi	r18, 0x4E	; 78
    6447:	64 00       	.word	0x0064	; ????
    6449:	3e 6c       	ori	r19, 0xCE	; 206
    644b:	66 61       	ori	r22, 0x16	; 22
	...

0000644e <_FigRomTolfa>:
    644e:	f3 62       	ori	r31, 0x23	; 35
    6450:	05 02       	muls	r16, r21

00006452 <_FigRomTolfa_2>:
    6452:	1d 1a       	sub	r1, r29

00006453 <_FigRomTolfa_1>:
    6453:	1a 1a       	sub	r1, r26
    6455:	7f 63       	ori	r23, 0x3F	; 63
    6457:	14 1a       	sub	r1, r20
    6459:	1d 14       	cp	r1, r13
    645b:	0d 04       	cpc	r0, r13
    645d:	f5 1b       	sub	r31, r21
    645f:	03 2e       	mov	r0, r19

00006461 <_FigRomWhatMsg>:
    6461:	57 68       	ori	r21, 0x87	; 135
    6463:	61 74       	andi	r22, 0x41	; 65
    6465:	27 73       	andi	r18, 0x37	; 55
    6467:	20 00       	.word	0x0020	; ????

00006469 <_FigRomMismatchedMsg>:
    6469:	4d 69       	ori	r20, 0x9D	; 157
    646b:	73 6d       	ori	r23, 0xD3	; 211
    646d:	61 74       	andi	r22, 0x41	; 65
    646f:	63 68       	ori	r22, 0x83	; 131
    6471:	65 64       	ori	r22, 0x45	; 69
	...

00006474 <_FigRomBadStateMsg>:
    6474:	57 72       	andi	r21, 0x27	; 39
    6476:	6f 6e       	ori	r22, 0xEF	; 239
    6478:	67 20       	and	r6, r7
    647a:	73 74       	andi	r23, 0x43	; 67
    647c:	61 74       	andi	r22, 0x41	; 65
    647e:	65 3a       	cpi	r22, 0xA5	; 165
	...

00006481 <_FigRomBadRefMsg>:
    6481:	42 61       	ori	r20, 0x12	; 18
    6483:	64 20       	and	r6, r4
    6485:	52 65       	ori	r21, 0x52	; 82
    6487:	66 3a       	cpi	r22, 0xA6	; 166
	...

0000648a <_FigRomStackEmptyMsg>:
    648a:	53 74       	andi	r21, 0x43	; 67
    648c:	61 63       	ori	r22, 0x31	; 49
    648e:	6b 20       	and	r6, r11
    6490:	45 6d       	ori	r20, 0xD5	; 213
    6492:	70 74       	andi	r23, 0x40	; 64
    6494:	79 00       	.word	0x0079	; ????

00006496 <_FigRomStackFullMsg>:
    6496:	53 74       	andi	r21, 0x43	; 67
    6498:	61 63       	ori	r22, 0x31	; 49
    649a:	6b 20       	and	r6, r11
    649c:	46 75       	andi	r20, 0x56	; 86
    649e:	6c 6c       	ori	r22, 0xCC	; 204
	...

000064a1 <_FigRomBreakMsg>:
    64a1:	42 72       	andi	r20, 0x22	; 34
    64a3:	65 61       	ori	r22, 0x15	; 21
    64a5:	6b 00       	.word	0x006b	; ????

000064a7 <_FigRomSystemCrash>:
    64a7:	6c 61       	ori	r22, 0x1C	; 28
    64a9:	3e 61       	ori	r19, 0x1E	; 30
    64ab:	70 61       	ori	r23, 0x10	; 16
    64ad:	69 6e       	ori	r22, 0xE9	; 233
    64af:	20 00       	.word	0x0020	; ????
    64b1:	21 4e       	sbci	r18, 0xE1	; 225
    64b3:	64 30       	cpi	r22, 0x04	; 4
    64b5:	64 6c       	ori	r22, 0xC4	; 196
    64b7:	61 be       	out	0x31, r6	; 49
    64b9:	69 2e       	mov	r6, r25
    64bb:	46 64       	ori	r20, 0x46	; 70
    64bd:	00 3f       	cpi	r16, 0xF0	; 240
    64bf:	65 72       	andi	r22, 0x25	; 37
    64c1:	72 6f       	ori	r23, 0xF2	; 242
    64c3:	72 00       	.word	0x0072	; ????

000064c5 <_FigRomQuryerror>:
    64c5:	1b 04       	cpc	r1, r11
    64c7:	1e c7       	rjmp	.+3644   	; 0x7305 <_FigRomEditKeyVec_2+0x15>
    64c9:	62 1d       	adc	r22, r2
    64cb:	04 0f       	add	r16, r20
    64cd:	70 61       	ori	r23, 0x10	; 16
    64cf:	49 6e       	ori	r20, 0xE9	; 233
    64d1:	20 00       	.word	0x0020	; ????
    64d3:	f3 62       	ori	r31, 0x23	; 35
    64d5:	30 64       	ori	r19, 0x40	; 64
    64d7:	6c 61       	ori	r22, 0x1C	; 28
    64d9:	3e 61       	ori	r19, 0x1E	; 30

000064db <_FigRomQuryerror_2>:
    64db:	6c 61       	ori	r22, 0x1C	; 28
    64dd:	3e 61       	ori	r19, 0x1E	; 30
    64df:	12 63       	ori	r17, 0x32	; 50
    64e1:	6c 61       	ori	r22, 0x1C	; 28
    64e3:	be 69       	ori	r27, 0x9E	; 158

000064e5 <_FigRomQuryerror_1>:
    64e5:	03 2e       	mov	r0, r19
    64e7:	bb 64       	ori	r27, 0x4B	; 75
    64e9:	00 3f       	cpi	r16, 0xF0	; 240
    64eb:	63 6f       	ori	r22, 0xF3	; 243
    64ed:	6d 70       	andi	r22, 0x0D	; 13
	...

000064f0 <_FigRomQurycomp>:
    64f0:	c7 62       	ori	r28, 0x27	; 39
    64f2:	1d 14       	cp	r1, r13
    64f4:	01 74       	andi	r16, 0x41	; 65
    64f6:	64 c5       	rjmp	.+2760   	; 0x6fc0 <_FigRomEdIns+0x14>
    64f8:	64 2e       	mov	r6, r20

000064fa <_FigRomQuryexec>:
    64fa:	c7 62       	ori	r28, 0x27	; 39
    64fc:	1d 01       	movw	r2, r26
    64fe:	74 64       	ori	r23, 0x44	; 68
    6500:	c5 64       	ori	r28, 0x45	; 69
    6502:	2e e7       	ldi	r18, 0x7E	; 126
    6504:	64 00       	.word	0x0064	; ????
    6506:	3f 70       	andi	r19, 0x0F	; 15
    6508:	61 69       	ori	r22, 0x91	; 145
    650a:	72 73       	andi	r23, 0x32	; 50
	...

0000650d <_FigRomQurypairs>:
    650d:	42 01       	movw	r8, r4
    650f:	69 64       	ori	r22, 0x49	; 73
    6511:	c5 64       	ori	r28, 0x45	; 69
    6513:	2e 03       	fmul	r18, r22
    6515:	65 40       	sbci	r22, 0x05	; 5
    6517:	3a 00       	.word	0x003a	; ????

00006519 <_FigRomColon>:
    6519:	fa 64       	ori	r31, 0x4A	; 74
    651b:	62 68       	ori	r22, 0x82	; 130
    651d:	01 ff       	sbrs	r16, 1
    651f:	ff 1f       	adc	r31, r31
    6521:	63 80       	ldd	r6, Z+3	; 0x03
    6523:	65 2e       	mov	r6, r21
    6525:	14 65       	ori	r17, 0x54	; 84
    6527:	40 3b       	cpi	r20, 0xB0	; 176
	...

0000652a <_FigRomSemi>:
    652a:	66 65       	ori	r22, 0x56	; 86
    652c:	2e 00       	.word	0x002e	; ????
    652e:	76 65       	ori	r23, 0x56	; 86
    6530:	2e 25       	eor	r18, r14
    6532:	65 00       	.word	0x0065	; ????
    6534:	69 6d       	ori	r22, 0xD9	; 217
    6536:	6d 65       	ori	r22, 0x5D	; 93
    6538:	64 69       	ori	r22, 0x94	; 148
    653a:	61 74       	andi	r22, 0x41	; 65
    653c:	65 00       	.word	0x0065	; ????

0000653e <_FigRomImmediate>:
    653e:	f3 62       	ori	r31, 0x23	; 35
    6540:	22 64       	ori	r18, 0x42	; 66
    6542:	2c 40       	sbci	r18, 0x0C	; 12
    6544:	04 63       	ori	r16, 0x34	; 52
    6546:	2e 31       	cpi	r18, 0x1E	; 30
    6548:	65 00       	.word	0x0065	; ????
    654a:	78 2c       	mov	r7, r8
	...

0000654d <_FigRomXComma>:
    654d:	1c 01       	movw	r2, r24
    654f:	00 ff       	sbrs	r16, 0
    6551:	0c 04       	cpc	r0, r12
    6553:	05 29       	or	r16, r5
    6555:	63 05       	cpc	r22, r3
    6557:	03 37       	cpi	r16, 0x73	; 115

00006558 <_FigRomXComma_1>:
    6558:	37 63       	ori	r19, 0x37	; 55

0000655a <_FigRomXComma_2>:
    655a:	2e 47       	sbci	r18, 0x7E	; 126
    655c:	65 00       	.word	0x0065	; ????
    655e:	63 6f       	ori	r22, 0xF3	; 243
    6560:	6d 70       	andi	r22, 0x0D	; 13
    6562:	69 6c       	ori	r22, 0xC9	; 201
    6564:	65 00       	.word	0x0065	; ????

00006566 <_FigRomCompile>:
    6566:	f0 64       	ori	r31, 0x40	; 64
    6568:	11 1c       	adc	r1, r1
    656a:	1d 4d       	sbci	r17, 0xDD	; 221
    656c:	65 22       	and	r6, r21
    656e:	22 13       	cpse	r18, r18
    6570:	2e 5b       	subi	r18, 0xBE	; 190
    6572:	65 40       	sbci	r22, 0x05	; 5
    6574:	5b 00       	.word	0x005b	; ????

00006576 <_FigRomSqOpen>:
    6576:	2b c7       	rjmp	.+3670   	; 0x73ce <_FigRomEdit_3+0xd>
    6578:	62 20       	and	r6, r2
    657a:	2e 71       	andi	r18, 0x1E	; 30
    657c:	65 00       	.word	0x0065	; ????
    657e:	5d 00       	.word	0x005d	; ????

00006580 <_FigRomSqClose>:
    6580:	2c 40       	sbci	r18, 0x0C	; 12
    6582:	c7 62       	ori	r28, 0x27	; 39
    6584:	20 2e       	mov	r2, r16
    6586:	7b 65       	ori	r23, 0x5B	; 91
    6588:	00 73       	andi	r16, 0x30	; 48
    658a:	6d 75       	andi	r22, 0x5D	; 93
    658c:	64 67       	ori	r22, 0x74	; 116
    658e:	65 00       	.word	0x0065	; ????

00006590 <_FigRomSmudge>:
    6590:	f3 62       	ori	r31, 0x23	; 35
    6592:	22 64       	ori	r18, 0x42	; 66
    6594:	2c 20       	and	r2, r12
    6596:	04 63       	ori	r16, 0x34	; 52
    6598:	2e 86       	std	Y+14, r2	; 0x0e
    659a:	65 00       	.word	0x0065	; ????
    659c:	3c 62       	ori	r19, 0x2C	; 44
    659e:	75 69       	ori	r23, 0x95	; 149
    65a0:	6c 64       	ori	r22, 0x4C	; 76
    65a2:	73 00       	.word	0x0073	; ????

000065a4 <_FigRomLtbuilds>:
    65a4:	62 68       	ori	r22, 0x82	; 130
    65a6:	2b 37       	cpi	r18, 0x7B	; 123
    65a8:	63 2e       	mov	r6, r19
    65aa:	99 65       	ori	r25, 0x59	; 89
    65ac:	40 64       	ori	r20, 0x40	; 64
    65ae:	6f 65       	ori	r22, 0x5F	; 95
    65b0:	73 3e       	cpi	r23, 0xE3	; 227
	...

000065b3 <_FigRomDoesFrom>:
    65b3:	01 bd       	out	0x21, r16	; 33
    65b5:	65 29       	or	r22, r5
    65b7:	63 2c       	mov	r6, r3
    65b9:	10 37       	cpi	r17, 0x70	; 112
    65bb:	63 2e       	mov	r6, r19

000065bd <Does01>:
    65bd:	11 f3       	breq	.-60     	; 0x6583 <_FigRomSqClose+0x3>
    65bf:	62 22       	and	r6, r18
    65c1:	64 3f       	cpi	r22, 0xF4	; 244
    65c3:	64 20       	and	r6, r4
    65c5:	2e aa       	sts	0x9e, r18
    65c7:	65 40       	sbci	r22, 0x05	; 5
    65c9:	28 00       	.word	0x0028	; ????

000065cb <_FigRomOpen>:
    65cb:	2c 29       	or	r18, r12
    65cd:	60 67       	ori	r22, 0x70	; 112
    65cf:	2e c6       	rjmp	.+3164   	; 0x722d <_FigRomEditAltGr_1+0x1>
    65d1:	65 00       	.word	0x0065	; ????
    65d3:	68 65       	ori	r22, 0x58	; 88
    65d5:	78 00       	.word	0x0078	; ????

000065d7 <_FigRomHex>:
    65d7:	2c 10       	cpse	r2, r12
    65d9:	d2 62       	ori	r29, 0x22	; 34
    65db:	20 2e       	mov	r2, r16
    65dd:	d0 65       	ori	r29, 0x50	; 80
    65df:	00 64       	ori	r16, 0x40	; 64
    65e1:	65 63       	ori	r22, 0x35	; 53
    65e3:	69 6d       	ori	r22, 0xD9	; 217
    65e5:	61 6c       	ori	r22, 0xC1	; 193
	...

000065e8 <_FigRomDecimal>:
    65e8:	2c 0a       	sbc	r2, r28
    65ea:	d2 62       	ori	r29, 0x22	; 34
    65ec:	20 2e       	mov	r2, r16
    65ee:	dd 65       	ori	r29, 0x5D	; 93
    65f0:	00 64       	ori	r16, 0x40	; 64
    65f2:	69 67       	ori	r22, 0x79	; 121
    65f4:	69 74       	andi	r22, 0x49	; 73
	...

000065f7 <_FigRomDigit>:
    65f7:	13 2c       	mov	r1, r3
    65f9:	30 42       	sbci	r19, 0x20	; 32
    65fb:	2c 09       	sbc	r18, r12
    65fd:	1a 15       	cp	r17, r10
    65ff:	42 04       	cpc	r4, r2
    6601:	0a 2c       	mov	r0, r10
    6603:	07 42       	sbci	r16, 0x27	; 39
    6605:	1c 2c       	mov	r1, r12
    6607:	0a 15       	cp	r16, r10
    6609:	42 0d       	add	r20, r2

0000660b <_FigRomDigit_1>:
    660b:	1c 11       	cpse	r17, r12
    660d:	7f 63       	ori	r23, 0x3F	; 63
    660f:	2e 05       	cpc	r18, r14

00006610 <_FigRomDigits>:
    6610:	05 14       	cp	r0, r5

00006612 <_FigRomDigits_2>:
    6612:	1b d2       	rcall	.+1078   	; 0x6a4a <_FigRomAbort+0x56>
    6614:	62 1d       	adc	r22, r2
    6616:	09 03       	fmul	r16, r17
    6618:	5d 63       	ori	r21, 0x3D	; 61
    661a:	d2 62       	ori	r29, 0x22	; 34
    661c:	1d 09       	sbc	r17, r13
    661e:	17 11       	cpse	r17, r7
    6620:	22 11       	cpse	r18, r2
    6622:	1c 15       	cp	r17, r12
    6624:	16 13       	cpse	r17, r22

00006625 <_FigRomDigits_1>:
    6625:	13 1c       	adc	r1, r3
    6627:	13 1e       	adc	r1, r19
    6629:	d2 62       	ori	r29, 0x22	; 34
    662b:	1d f7       	brhc	.-58     	; 0x65f3 <_FigRomDecimal+0xb>
    662d:	65 14       	cp	r6, r5
    662f:	04 e2       	ldi	r16, 0x24	; 36
    6631:	03 11       	cpse	r16, r3
    6633:	11 2e       	mov	r1, r17

00006635 <_FigRomIntnum>:
    6635:	13 1c       	adc	r1, r3
    6637:	1e 2c       	mov	r1, r14
    6639:	2d 14       	cp	r2, r13
    663b:	42 1b       	sub	r20, r18
    663d:	1a 42       	sbci	r17, 0x2A	; 42
    663f:	2b 2b       	or	r18, r27
    6641:	5d 63       	ori	r21, 0x3D	; 61
    6643:	11 10       	cpse	r1, r1
    6645:	66 1a       	sub	r6, r22
    6647:	1e 2c       	mov	r1, r14
    6649:	2e 14       	cp	r2, r14
    664b:	42 1a       	sub	r4, r18
    664d:	0c 04       	cpc	r0, r12
    664f:	07 18       	sub	r0, r7
    6651:	1b 22       	and	r1, r27
    6653:	1b 10       	cpse	r1, r11
    6655:	66 13       	cpse	r22, r22

00006656 <_FigRomIntnum_1>:
    6656:	13 13       	cpse	r17, r19
    6658:	5d 63       	ori	r21, 0x3D	; 61
    665a:	04 02       	muls	r16, r20
    665c:	19 11       	cpse	r17, r9

0000665d <_FigRomIntnum_2>:
    665d:	11 11       	cpse	r17, r1
    665f:	2e ee       	ldi	r18, 0xEE	; 238
    6661:	65 00       	.word	0x0065	; ????
    6663:	6e 75       	andi	r22, 0x5E	; 94
    6665:	6d 62       	ori	r22, 0x2D	; 45
    6667:	65 72       	andi	r22, 0x25	; 37
	...

0000666a <_FigRomNumber>:
    666a:	d2 62       	ori	r29, 0x22	; 34
    666c:	1d 13       	cpse	r17, r29
    666e:	1c 1e       	adc	r1, r28
    6670:	2c 24       	eor	r2, r12
    6672:	14 42       	sbci	r17, 0x24	; 36
    6674:	04 04       	cpc	r0, r4
    6676:	d7 65       	ori	r29, 0x57	; 87
    6678:	22 2c       	mov	r2, r2

00006679 <_FigRomNumber_1>:
    6679:	2c 01       	movw	r4, r24
    667b:	35 66       	ori	r19, 0x65	; 101
    667d:	1a 1e       	adc	r1, r26
    667f:	2c 64       	ori	r18, 0x4C	; 76
    6681:	14 42       	sbci	r17, 0x24	; 36
    6683:	04 07       	cpc	r16, r20
    6685:	03 22       	and	r0, r19
    6687:	2c 02       	muls	r18, r28
    6689:	05 15       	cp	r16, r5

0000668b <_FigRomNumber_2>:
    668b:	1c 15       	cp	r17, r12
    668d:	04 11       	cpse	r16, r4
    668f:	1b 1c       	adc	r1, r11
    6691:	1e 2c       	mov	r1, r14
    6693:	65 14       	cp	r6, r5
    6695:	42 42       	sbci	r20, 0x22	; 34
    6697:	2b 35       	cpi	r18, 0x5B	; 91
    6699:	66 03       	mulsu	r22, r22
    669b:	1b 03       	fmul	r17, r19
    669d:	4e 7a       	andi	r20, 0xAE	; 174

0000669f <_FigRomNumber_3>:
    669f:	1b 1e       	adc	r1, r27
    66a1:	14 0c       	add	r1, r4
    66a3:	11 d2       	rcall	.+1058   	; 0x6ac7 <_FigRomPlusSub+0x1>
    66a5:	62 20       	and	r6, r2
    66a7:	2e 60       	ori	r18, 0x0E	; 14
    66a9:	66 00       	.word	0x0066	; ????
    66ab:	63 49       	sbci	r22, 0x93	; 147
    66ad:	6e 22       	and	r6, r30
	...

000066b0 <_FigRomCInQuote>:
    66b0:	13 1a       	sub	r1, r19
    66b2:	18 15       	cp	r17, r8
    66b4:	16 1a       	sub	r1, r22

000066b5 <_FigRomCInQuote_1>:
    66b5:	1a 16       	cp	r1, r26
    66b7:	1c 1e       	adc	r1, r28
    66b9:	1c 12       	cpse	r1, r28
    66bb:	14 42       	sbci	r17, 0x24	; 36
    66bd:	1b 14       	cp	r1, r11
    66bf:	0d 04       	cpc	r0, r13
    66c1:	f4 11       	cpse	r31, r4
    66c3:	03 1b       	sub	r16, r19
    66c5:	03 2e       	mov	r0, r19
    66c7:	a8 66       	ori	r26, 0x68	; 104
    66c9:	00 22       	and	r0, r16
    66cb:	6c 65       	ori	r22, 0x5C	; 92
    66cd:	6e 00       	.word	0x006e	; ????

000066cf <_FigRomQuotelen>:
    66cf:	2c 01       	movw	r4, r24
    66d1:	1a 2b       	or	r17, r26
    66d3:	b0 66       	ori	r27, 0x60	; 96
    66d5:	1b 42       	sbci	r17, 0x2B	; 43
    66d7:	2e 1c       	adc	r2, r14

000066d8 <_FigRomSubSubFrom>:
    66d8:	1c 1e       	adc	r1, r28
    66da:	1c 14       	cp	r1, r12
    66dc:	04 37       	cpi	r16, 0x74	; 116
    66de:	03 1c       	adc	r0, r3
    66e0:	8e 62       	ori	r24, 0x2E	; 46
    66e2:	1d 01       	movw	r2, r26
    66e4:	00 02       	muls	r16, r16
    66e6:	16 14       	cp	r1, r6
    66e8:	42 04       	cpc	r4, r2
    66ea:	27 a5       	lds	r18, 0x67
    66ec:	62 1d       	adc	r22, r2
    66ee:	04 22       	and	r0, r20
    66f0:	8e 62       	ori	r24, 0x2E	; 46
    66f2:	1d 01       	movw	r2, r26
    66f4:	00 01       	movw	r0, r0
    66f6:	16 1c       	adc	r1, r6
    66f8:	20 74       	andi	r18, 0x40	; 64
    66fa:	42 01       	movw	r8, r4
    66fc:	00 01       	movw	r0, r0
    66fe:	36 a5       	lds	r19, 0x66
    6700:	62 1d       	adc	r22, r2
    6702:	22 1c       	adc	r2, r2
    6704:	a5 62       	ori	r26, 0x25	; 37
    6706:	20 2a       	or	r2, r16
    6708:	77 1b       	sub	r23, r23
    670a:	20 74       	andi	r18, 0x40	; 64
    670c:	42 1b       	sub	r20, r18
    670e:	20 74       	andi	r18, 0x40	; 64
    6710:	42 1c       	adc	r4, r2

00006711 <_FigRomSubSubFrom_2>:
    6711:	1c 1e       	adc	r1, r28
    6713:	14 2e       	mov	r1, r20

00006714 <_FigRomSubSubFrom_1>:
    6714:	2e c7       	rjmp	.+3676   	; 0x7572 <_FigRomVDskReadVTableBlock_1+0x7>
    6716:	66 00       	.word	0x0066	; ????
    6718:	22 73       	andi	r18, 0x32	; 50
    671a:	6b 69       	ori	r22, 0x9B	; 155
    671c:	70 42       	sbci	r23, 0x20	; 32
    671e:	6c 00       	.word	0x006c	; ????

00006720 <_FigRomQuoteskipBl>:
    6720:	1c 05       	cpc	r17, r12

00006721 <_FigRomQuoteskipBl_1>:
    6721:	05 02       	muls	r16, r21

00006723 <_FigRomQuoteskipBl_3>:
    6723:	22 1c       	adc	r2, r2

00006724 <_FigRomQuoteskipBl_2>:
    6724:	1c 1e       	adc	r1, r28
    6726:	2f 2c       	mov	r2, r15
    6728:	e0 0c       	add	r14, r0
    672a:	04 f8       	bld	r0, 4
    672c:	d8 66       	ori	r29, 0x68	; 104
    672e:	04 f2       	brlt	.-128    	; 0x66b0 <_FigRomCInQuote>
    6730:	1b 03       	fmul	r17, r19
    6732:	2e 15       	cp	r18, r14
    6734:	67 00       	.word	0x0067	; ????
    6736:	65 6e       	ori	r22, 0xE5	; 229
    6738:	63 6c       	ori	r22, 0xC3	; 195
    673a:	6f 73       	andi	r22, 0x3F	; 63
    673c:	65 00       	.word	0x0065	; ????

0000673e <_FigRomEnclose>:
    673e:	13 1c       	adc	r1, r3

00006740 <_FigRomEnclose_1>:
    6740:	05 02       	muls	r16, r21

00006742 <_FigRomEnclose_3>:
    6742:	22 1c       	adc	r2, r2

00006743 <_FigRomEnclose_2>:
    6743:	1c 1e       	adc	r1, r28
    6745:	1c 2c       	mov	r1, r12
    6747:	0e 15       	cp	r16, r14
    6749:	42 1b       	sub	r20, r18
    674b:	12 14       	cp	r1, r2
    674d:	42 0d       	add	r20, r2
    674f:	04 f2       	brlt	.-128    	; 0x66d1 <_FigRomQuotelen+0x2>
    6751:	d8 66       	ori	r29, 0x68	; 104
    6753:	04 ec       	ldi	r16, 0xC4	; 196
    6755:	11 03       	mulsu	r17, r17
    6757:	2e 33       	cpi	r18, 0x3E	; 62
    6759:	67 00       	.word	0x0067	; ????
    675b:	77 6f       	ori	r23, 0xF7	; 247
    675d:	72 64       	ori	r23, 0x42	; 66
	...

00006760 <_FigRomWord>:
    6760:	e6 62       	ori	r30, 0x26	; 38
    6762:	1d 20       	and	r1, r13
    6764:	67 1b       	sub	r22, r23
    6766:	3e 67       	ori	r19, 0x7E	; 126
    6768:	1c 1c       	adc	r1, r12
    676a:	1e 14       	cp	r1, r14
    676c:	14 42       	sbci	r17, 0x24	; 36
    676e:	e6 62       	ori	r30, 0x26	; 38
    6770:	20 1a       	sub	r2, r16
    6772:	42 1c       	adc	r4, r2
    6774:	13 12       	cpse	r1, r19
    6776:	63 1b       	sub	r22, r19
    6778:	36 2b       	or	r19, r22
    677a:	11 12       	cpse	r1, r17
    677c:	63 16       	cp	r6, r19
    677e:	1f 2e       	mov	r1, r31
    6780:	58 67       	ori	r21, 0x78	; 120
    6782:	00 22       	and	r0, r16
    6784:	3c 3e       	cpi	r19, 0xEC	; 236
	...

00006787 <_FigRomQuoteLtFrom>:
    6787:	05 06       	cpc	r0, r21

00006789 <_FigRomQuoteLtFrom_2>:
    6789:	03 1b       	sub	r16, r19
    678b:	22 1b       	sub	r18, r18
    678d:	22 1a       	sub	r2, r18

0000678e <_FigRomQuoteLtFrom_1>:
    678e:	1a 1e       	adc	r1, r26
    6790:	1c 13       	cpse	r17, r28
    6792:	1a 1e       	adc	r1, r26
    6794:	42 1c       	adc	r4, r2
    6796:	11 14       	cp	r1, r1
    6798:	0d 04       	cpc	r0, r13
    679a:	ef 1b       	sub	r30, r31
    679c:	03 1c       	adc	r0, r3
    679e:	15 1b       	sub	r17, r21
    67a0:	18 15       	cp	r17, r8
    67a2:	42 1b       	sub	r20, r18
    67a4:	1e 14       	cp	r1, r14
    67a6:	2c 08       	sbc	r2, r12
    67a8:	0c 33       	cpi	r16, 0x3C	; 60
    67aa:	2e 80       	ldd	r2, Y+6	; 0x06
    67ac:	67 40       	sbci	r22, 0x07	; 7
    67ae:	61 73       	andi	r22, 0x31	; 49
    67b0:	63 00       	.word	0x0063	; ????

000067b2 <_FigRomAsc>:
    67b2:	2c 20       	and	r2, r12
    67b4:	60 67       	ori	r22, 0x70	; 112
    67b6:	12 63       	ori	r17, 0x32	; 50
    67b8:	1e c7       	rjmp	.+3644   	; 0x75f6 <_FigRomVDskFindEntry_2+0xc>
    67ba:	62 1d       	adc	r22, r2
    67bc:	04 07       	cpc	r16, r20
    67be:	2c 2c       	mov	r2, r12
    67c0:	37 63       	ori	r19, 0x37	; 55
    67c2:	37 63       	ori	r19, 0x37	; 55

000067c4 <_FigRomAsc_1>:
    67c4:	2e ab       	sts	0x5e, r18
    67c6:	67 00       	.word	0x0067	; ????
    67c8:	22 21       	and	r18, r2
	...

000067cb <_FigRomQuoteStore>:
    67cb:	1a cf       	rjmp	.-460    	; 0x6601 <_FigRomDigit+0xa>
    67cd:	66 22       	and	r6, r22
    67cf:	36 2e       	mov	r3, r22
    67d1:	c5 67       	ori	r28, 0x75	; 117
    67d3:	00 22       	and	r0, r16
    67d5:	2b 00       	.word	0x002b	; ????

000067d7 <_FigRomQuotePlus>:
    67d7:	1c cf       	rjmp	.-456    	; 0x6611 <_FigRomDigits+0x1>
    67d9:	66 16       	cp	r6, r22
    67db:	cb 67       	ori	r28, 0x7B	; 123
    67dd:	2e d1       	rcall	.+604    	; 0x6a3b <_FigRomAbort+0x47>
    67df:	67 00       	.word	0x0067	; ????
    67e1:	22 63       	ori	r18, 0x32	; 50
    67e3:	75 74       	andi	r23, 0x45	; 69
	...

000067e6 <_FigRomQuotecut>:
    67e6:	16 2b       	or	r17, r22
    67e8:	1b 1f       	adc	r17, r27
    67ea:	2e de       	rcall	.-932    	; 0x6448 <_FigRomFfaTopfa+0x9>
    67ec:	67 00       	.word	0x0067	; ????
    67ee:	22 66       	ori	r18, 0x62	; 98
    67f0:	72 6f       	ori	r23, 0xF2	; 242
    67f2:	6d 00       	.word	0x006d	; ????

000067f4 <_FigRomQuotefrom>:
    67f4:	1a cf       	rjmp	.-460    	; 0x662a <_FigRomDigits_1+0x5>
    67f6:	66 f5       	brtc	.+88     	; 0x6850 <_FigRomFind_2+0xf>
    67f8:	6a 16       	cp	r6, r26
    67fa:	2e eb       	ldi	r18, 0xBE	; 190
    67fc:	67 00       	.word	0x0067	; ????
    67fe:	61 72       	andi	r22, 0x21	; 33
    6800:	72 00       	.word	0x0072	; ????

00006802 <_FigRomArr>:
    6802:	a4 65       	ori	r26, 0x54	; 84
    6804:	16 1c       	adc	r1, r6
    6806:	1f 63       	ori	r17, 0x3F	; 63
    6808:	bd 65       	ori	r27, 0x5D	; 93
    680a:	10 1a       	sub	r1, r16
    680c:	16 16       	cp	r1, r22
    680e:	2e fb       	.word	0xfb2e	; ????
    6810:	67 00       	.word	0x0067	; ????
    6812:	62 79       	andi	r22, 0x92	; 146
    6814:	74 65       	ori	r23, 0x54	; 84
    6816:	73 00       	.word	0x0073	; ????

00006818 <_FigRomBytes>:
    6818:	a4 65       	ori	r26, 0x54	; 84
    681a:	1f 63       	ori	r17, 0x3F	; 63
    681c:	bd 65       	ori	r27, 0x5D	; 93
    681e:	10 16       	cp	r1, r16
    6820:	2e 0f       	add	r18, r30
    6822:	68 00       	.word	0x0068	; ????
    6824:	66 69       	ori	r22, 0x96	; 150
    6826:	6e 64       	ori	r22, 0x4E	; 78
	...

00006829 <_FigRomFind>:
    6829:	ee 61       	ori	r30, 0x1E	; 30
    682b:	60 67       	ori	r22, 0x70	; 112
    682d:	12 63       	ori	r17, 0x32	; 50
    682f:	f3 62       	ori	r31, 0x23	; 35
    6831:	1c 22       	and	r1, r28
    6833:	64 1e       	adc	r6, r20
    6835:	2c 20       	and	r2, r12
    6837:	0c 04       	cpc	r0, r12
    6839:	02 1d       	adc	r16, r2

0000683b <_FigRomFind_1>:
    683b:	05 05       	cpc	r16, r5

0000683d <_FigRomFind_3>:
    683d:	11 03       	mulsu	r17, r17
    683f:	11 03       	mulsu	r17, r17

00006841 <_FigRomFind_2>:
    6841:	1c 13       	cpse	r17, r28
    6843:	1a 1a       	sub	r1, r26
    6845:	30 64       	ori	r19, 0x40	; 64
    6847:	87 67       	ori	r24, 0x77	; 119
    6849:	14 13       	cpse	r17, r20
    684b:	1d 1c       	adc	r1, r13
    684d:	14 12       	cpse	r1, r20
    684f:	0d 04       	cpc	r0, r13
    6851:	ec 03       	fmulsu	r22, r20
    6853:	03 11       	cpse	r16, r3
    6855:	11 0c       	add	r1, r1
    6857:	2e 21       	and	r18, r14
    6859:	68 00       	.word	0x0068	; ????
    685b:	63 72       	andi	r22, 0x23	; 35
    685d:	65 61       	ori	r22, 0x15	; 21
    685f:	74 65       	ori	r23, 0x54	; 84
	...

00006862 <_FigRomCreate>:
    6862:	f3 62       	ori	r31, 0x23	; 35
    6864:	29 63       	ori	r18, 0x39	; 57
    6866:	12 63       	ori	r17, 0x32	; 50
    6868:	2c 02       	muls	r18, r28
    686a:	42 5e       	subi	r20, 0xE2	; 226
    686c:	62 20       	and	r6, r2
    686e:	2b 37       	cpi	r18, 0x7B	; 123
    6870:	63 ee       	ldi	r22, 0xE3	; 227
    6872:	61 60       	ori	r22, 0x01	; 1
    6874:	67 12       	cpse	r6, r23
    6876:	63 cf       	rjmp	.-314    	; 0x673e <_FigRomEnclose>
    6878:	66 22       	and	r6, r22
    687a:	1f 63       	ori	r17, 0x3F	; 63
    687c:	01 3b       	cpi	r16, 0xB1	; 177
    687e:	00 37       	cpi	r16, 0x70	; 112
    6880:	63 2e       	mov	r6, r19
    6882:	58 68       	ori	r21, 0x88	; 136
    6884:	40 5b       	subi	r20, 0xB0	; 176
    6886:	63 6f       	ori	r22, 0xF3	; 243
    6888:	6d 70       	andi	r22, 0x0D	; 13
    688a:	69 6c       	ori	r22, 0xC9	; 201
    688c:	65 5d       	subi	r22, 0xD5	; 213
	...

0000688f <_FigRomSqOpencompileSqClose>:
    688f:	29 68       	ori	r18, 0x89	; 137
    6891:	1c 14       	cp	r1, r12
    6893:	2b c5       	rjmp	.+2646   	; 0x72eb <_FigRomEditKeyVec_3>
    6895:	64 ff       	sbrs	r22, 4
    6897:	63 4d       	sbci	r22, 0xD3	; 211
    6899:	65 2e       	mov	r6, r21
    689b:	82 68       	ori	r24, 0x82	; 130
    689d:	40 6c       	ori	r20, 0xC0	; 192
    689f:	69 74       	andi	r22, 0x49	; 73
    68a1:	65 72       	andi	r22, 0x25	; 37
    68a3:	61 6c       	ori	r22, 0xC1	; 193
	...

000068a6 <_FigRomLiteral>:
    68a6:	c7 62       	ori	r28, 0x27	; 39
    68a8:	1d 04       	cpc	r1, r13
    68aa:	1e 74       	andi	r17, 0x4E	; 78
    68ac:	63 04       	cpc	r6, r3
    68ae:	16 1c       	adc	r1, r6
    68b0:	01 00       	.word	0x0001	; ????
    68b2:	ff 0c       	add	r15, r15
    68b4:	04 08       	sbc	r0, r4
    68b6:	2c 01       	movw	r4, r24
    68b8:	37 63       	ori	r19, 0x37	; 55
    68ba:	29 63       	ori	r18, 0x39	; 57
    68bc:	2e 2c       	mov	r2, r14

000068bd <_FigRomLiteral_3>:
    68bd:	2c 2c       	mov	r2, r12
    68bf:	37 63       	ori	r19, 0x37	; 55
    68c1:	37 63       	ori	r19, 0x37	; 55
    68c3:	2e 2c       	mov	r2, r14

000068c4 <_FigRomLiteral_2>:
    68c4:	2c 2b       	or	r18, r28
    68c6:	37 63       	ori	r19, 0x37	; 55

000068c8 <_FigRomLiteral_1>:
    68c8:	2e 9b       	sbis	0x05, 6	; 5
    68ca:	68 40       	sbci	r22, 0x08	; 8
    68cc:	64 6c       	ori	r22, 0xC4	; 196
    68ce:	69 74       	andi	r22, 0x49	; 73
    68d0:	65 72       	andi	r22, 0x25	; 37
    68d2:	61 6c       	ori	r22, 0xC1	; 193
	...

000068d5 <_FigRomDliteral>:
    68d5:	c7 62       	ori	r28, 0x27	; 39
    68d7:	1d 04       	cpc	r1, r13
    68d9:	06 1b       	sub	r16, r22
    68db:	a6 68       	ori	r26, 0x86	; 134
    68dd:	a6 68       	ori	r26, 0x86	; 134

000068df <_FigRomDliteral_1>:
    68df:	2e c9       	rjmp	.-3492   	; 0x5b3d <__data_load_end+0x2347>
    68e1:	68 00       	.word	0x0068	; ????
    68e3:	62 79       	andi	r22, 0x92	; 146
    68e5:	65 00       	.word	0x0065	; ????

000068e7 <_FigRomBye>:
    68e7:	11 03       	mulsu	r17, r17
    68e9:	05 05       	cpc	r16, r5
    68eb:	e0 68       	ori	r30, 0x80	; 128
    68ed:	40 00       	.word	0x0040	; ????

000068ef <_FigRomBackslash0>:
    68ef:	11 03       	mulsu	r17, r17
    68f1:	11 03       	mulsu	r17, r17
    68f3:	2e eb       	ldi	r18, 0xBE	; 190
    68f5:	68 00       	.word	0x0068	; ????
    68f7:	69 6e       	ori	r22, 0xE9	; 233
    68f9:	74 65       	ori	r23, 0x54	; 84
    68fb:	72 70       	andi	r23, 0x02	; 2
    68fd:	72 65       	ori	r23, 0x52	; 82
    68ff:	74 00       	.word	0x0074	; ????

00006901 <_FigRomInterpret>:
    6901:	29 68       	ori	r18, 0x89	; 137
    6903:	1c 04       	cpc	r1, r12
    6905:	2f 1c       	adc	r2, r15
    6907:	22 64       	ori	r18, 0x42	; 66
    6909:	1e 2c       	mov	r1, r14
    690b:	7f 0c       	add	r7, r15
    690d:	c7 62       	ori	r28, 0x27	; 39
    690f:	1d 15       	cp	r17, r13
    6911:	42 04       	cpc	r4, r2
    6913:	07 ff       	sbrs	r16, 7
    6915:	63 4d       	sbci	r22, 0xD3	; 211
    6917:	65 05       	cpc	r22, r5
    6919:	19 ff       	.word	0xff19	; ????

0000691a <_FigRomInterpret_2>:
    691a:	ff 63       	ori	r31, 0x3F	; 63
    691c:	1c 01       	movw	r2, r24
    691e:	00 4a       	sbci	r16, 0xA0	; 160
    6920:	15 42       	sbci	r17, 0x25	; 37
    6922:	04 0e       	add	r0, r20
    6924:	1c 01       	movw	r2, r24
    6926:	09 01       	movw	r0, r18
    6928:	25 2c       	mov	r2, r5
    692a:	08 32       	cpi	r16, 0x28	; 40
    692c:	02 01       	movw	r0, r4
    692e:	09 01       	movw	r0, r18
    6930:	24 02       	muls	r18, r20

00006931 <_FigRomInterpret_4>:
    6931:	02 05       	cpc	r16, r2

00006932 <_FigRomInterpret_3>:
    6932:	05 1f       	adc	r16, r21

00006934 <_FigRomInterpret_1>:
    6934:	03 12       	cpse	r0, r19
    6936:	63 6a       	ori	r22, 0xA3	; 163
    6938:	66 1c       	adc	r6, r6
    693a:	14 04       	cpc	r1, r4
    693c:	09 03       	fmul	r16, r17
    693e:	12 63       	ori	r17, 0x32	; 50
    6940:	01 61       	ori	r16, 0x11	; 17
    6942:	64 c5       	rjmp	.+2760   	; 0x740c <_FigRomQuery+0xf>
    6944:	64 2c       	mov	r6, r4

00006945 <_FigRomInterpret_6>:
    6945:	2c 01       	movw	r4, r24
    6947:	14 42       	sbci	r17, 0x24	; 36
    6949:	04 06       	cpc	r0, r20
    694b:	03 a6       	lds	r16, 0xb3
    694d:	68 05       	cpc	r22, r8
    694f:	03 d5       	rcall	.+2566   	; 0x7357 <_FigRomEdit+0x18>

00006950 <_FigRomInterpret_7>:
    6950:	d5 68       	ori	r29, 0x85	; 133

00006952 <_FigRomInterpret_5>:
    6952:	2e f4       	brtc	.+10     	; 0x695e <_FigRomQuoterun+0x3>
    6954:	68 00       	.word	0x0068	; ????
    6956:	22 72       	andi	r18, 0x22	; 34
    6958:	75 6e       	ori	r23, 0xE5	; 229
	...

0000695b <_FigRomQuoterun>:
    695b:	01 69       	ori	r16, 0x91	; 145
    695d:	05 fd       	sbrc	r16, 5
    695f:	2e 53       	subi	r18, 0x3E	; 62
    6961:	69 00       	.word	0x0069	; ????
    6963:	74 6f       	ori	r23, 0xF4	; 244
    6965:	70 21       	and	r23, r0
	...

00006968 <_FigRomTopStore>:
    6968:	01 ff       	sbrs	r16, 1
    696a:	ff 1c       	adc	r15, r15
    696c:	13 1e       	adc	r1, r19
    696e:	2b 12       	cpse	r2, r27
    6970:	1f 01       	movw	r2, r30
    6972:	ff 9f       	mul	r31, r31
    6974:	1c 1e       	adc	r1, r28
    6976:	1a 12       	cpse	r1, r26
    6978:	1b 1f       	adc	r17, r27
    697a:	1a 12       	cpse	r1, r26
    697c:	1e 14       	cp	r1, r14
    697e:	0d 83       	std	Y+5, r16	; 0x05
    6980:	62 20       	and	r6, r2
    6982:	1b 1f       	adc	r17, r27
    6984:	11 1f       	adc	r17, r17
    6986:	2e 60       	ori	r18, 0x0E	; 14
    6988:	69 00       	.word	0x0069	; ????
    698a:	63 6c       	ori	r22, 0xC3	; 195
    698c:	61 69       	ori	r22, 0x91	; 145
    698e:	6d 00       	.word	0x006d	; ????

00006990 <_FigRomClaim>:
    6990:	22 22       	and	r2, r18
    6992:	18 83       	st	Y, r17
    6994:	62 1d       	adc	r22, r2
    6996:	1c 13       	cpse	r17, r28
    6998:	16 1c       	adc	r1, r6
    699a:	83 62       	ori	r24, 0x23	; 35
    699c:	20 11       	cpse	r18, r0
    699e:	1a 20       	and	r1, r10
    69a0:	22 22       	and	r2, r18
    69a2:	2e 87       	std	Y+14, r18	; 0x0e
    69a4:	69 00       	.word	0x0069	; ????
    69a6:	72 65       	ori	r23, 0x52	; 82
    69a8:	63 6c       	ori	r22, 0xC3	; 195
    69aa:	61 69       	ori	r22, 0x91	; 145
    69ac:	6d 00       	.word	0x006d	; ????

000069ae <_FigRomReclaim>:
    69ae:	2c 02       	muls	r18, r28
    69b0:	42 1d       	adc	r20, r2
    69b2:	83 62       	ori	r24, 0x23	; 35
    69b4:	20 2e       	mov	r2, r16
    69b6:	a3 69       	ori	r26, 0x93	; 147
    69b8:	00 71       	andi	r16, 0x10	; 16
    69ba:	75 69       	ori	r23, 0x95	; 149
    69bc:	74 00       	.word	0x0074	; ????

000069be <_FigRomQuit>:
    69be:	38 62       	ori	r19, 0x28	; 40
    69c0:	2e 62       	ori	r18, 0x2E	; 46
    69c2:	27 01       	movw	r4, r14
    69c4:	ff 04       	cpc	r15, r15
    69c6:	25 62       	ori	r18, 0x25	; 37
    69c8:	27 76       	andi	r18, 0x67	; 103

000069c9 <_FigRomShell>:
    69c9:	76 65       	ori	r23, 0x56	; 86

000069cb <_FigRomShell_1>:
    69cb:	18 61       	ori	r17, 0x18	; 24
    69cd:	01 20       	and	r0, r1
    69cf:	80 1c       	adc	r8, r0
    69d1:	e6 62       	ori	r30, 0x26	; 38
    69d3:	20 fd       	sbrc	r18, 0
    69d5:	73 2c       	mov	r7, r3
    69d7:	01 e6       	ldi	r16, 0x61	; 97
    69d9:	62 fd       	sbrc	r22, 2
    69db:	62 5b       	subi	r22, 0xB2	; 178
    69dd:	69 c7       	rjmp	.+3794   	; 0x78b1 <_FPack10+0x9>
    69df:	62 1d       	adc	r22, r2
    69e1:	14 04       	cpc	r1, r4
    69e3:	06 70       	andi	r16, 0x06	; 6
    69e5:	61 4f       	sbci	r22, 0xF1	; 241
    69e7:	4b 00       	.word	0x004b	; ????

000069e9 <_FigRomShell_2>:
    69e9:	05 e1       	ldi	r16, 0x15	; 21
    69eb:	b6 69       	ori	r27, 0x96	; 150
    69ed:	00 61       	ori	r16, 0x10	; 16
    69ef:	62 6f       	ori	r22, 0xF2	; 242
    69f1:	72 74       	andi	r23, 0x42	; 66
	...

000069f4 <_FigRomAbort>:
    69f4:	38 62       	ori	r19, 0x28	; 40
    69f6:	2e 62       	ori	r18, 0x2E	; 46
    69f8:	27 01       	movw	r4, r14
    69fa:	ff 04       	cpc	r15, r15
    69fc:	25 62       	ori	r18, 0x25	; 37
    69fe:	27 68       	ori	r18, 0x87	; 135
    6a00:	69 e8       	ldi	r22, 0x89	; 137
    6a02:	65 18       	sub	r6, r5
    6a04:	61 2b       	or	r22, r17
    6a06:	a0 6e       	ori	r26, 0xE0	; 224
    6a08:	2c 01       	movw	r4, r24
    6a0a:	40 6e       	ori	r20, 0xE0	; 224
    6a0c:	70 61       	ori	r23, 0x10	; 16
    6a0e:	46 49       	sbci	r20, 0x96	; 150
    6a10:	47 6e       	ori	r20, 0xE7	; 231
    6a12:	69 74       	andi	r22, 0x49	; 73
    6a14:	69 6f       	ori	r22, 0xF9	; 249
    6a16:	6e 20       	and	r6, r14
    6a18:	56 31       	cpi	r21, 0x16	; 22
    6a1a:	2e 30       	cpi	r18, 0x0E	; 14
    6a1c:	2e 31       	cpi	r18, 0x1E	; 30
    6a1e:	0d 7f       	andi	r16, 0xFD	; 253
    6a20:	6e 69       	ori	r22, 0x9E	; 158
    6a22:	63 68       	ori	r22, 0x83	; 131
    6a24:	65 6d       	ori	r22, 0xD5	; 213
    6a26:	61 63       	ori	r22, 0x31	; 49
    6a28:	68 69       	ori	r22, 0x98	; 152
    6a2a:	6e 65       	ori	r22, 0x5E	; 94
    6a2c:	73 20       	and	r7, r3
    6a2e:	32 30       	cpi	r19, 0x02	; 2
    6a30:	31 31       	cpi	r19, 0x11	; 17
    6a32:	2d 32       	cpi	r18, 0x2D	; 45
    6a34:	30 31       	cpi	r19, 0x10	; 16
    6a36:	34 0d       	add	r19, r4
    6a38:	00 83       	st	Z, r16
    6a3a:	62 1d       	adc	r22, r2
    6a3c:	12 63       	ori	r17, 0x32	; 50
    6a3e:	42 1b       	sub	r20, r18
    6a40:	6d 70       	andi	r22, 0x0D	; 13
    6a42:	61 62       	ori	r22, 0x21	; 33
    6a44:	79 74       	andi	r23, 0x49	; 73
    6a46:	65 73       	andi	r22, 0x35	; 53
    6a48:	20 66       	ori	r18, 0x60	; 96
    6a4a:	72 65       	ori	r23, 0x52	; 82
    6a4c:	65 2e       	mov	r6, r21
    6a4e:	00 be       	out	0x30, r0	; 48
    6a50:	69 eb       	ldi	r22, 0xB9	; 185
    6a52:	69 00       	.word	0x0069	; ????
    6a54:	70 61       	ori	r23, 0x10	; 16
    6a56:	75 73       	andi	r23, 0x35	; 53
    6a58:	65 00       	.word	0x0065	; ????

00006a5a <_FigRomPause>:
    6a5a:	1c de       	rcall	.-968    	; 0x6694 <_FigRomNumber_2+0x9>
    6a5c:	6a 05       	cpc	r22, r10
    6a5e:	62 26       	eor	r6, r18
    6a60:	16 1a       	sub	r1, r22

00006a61 <_FigRomPause_1>:
    6a61:	1a 15       	cp	r17, r10
    6a63:	04 0a       	sbc	r0, r20
    6a65:	01 11       	cpse	r16, r1
    6a67:	01 24       	eor	r0, r1
    6a69:	04 04       	cpc	r0, r4
    6a6b:	03 03       	mulsu	r16, r19
    6a6d:	2e 1c       	adc	r2, r14

00006a6e <_FigRomPause_2>:
    6a6e:	1c 05       	cpc	r17, r12
    6a70:	62 26       	eor	r6, r18
    6a72:	42 15       	cp	r20, r2
    6a74:	04 ec       	ldi	r16, 0xC4	; 196
    6a76:	03 03       	mulsu	r16, r19
    6a78:	2e 2b       	or	r18, r30

00006a79 <_FigRomDotstartUp>:
    6a79:	2b 16       	cp	r2, r27

00006a7a <_FigRomDotstartUp_1>:
    6a7a:	16 1b       	sub	r17, r22
    6a7c:	22 1c       	adc	r2, r2
    6a7e:	1e 13       	cpse	r17, r30
    6a80:	22 1a       	sub	r2, r18
    6a82:	1a 1b       	sub	r17, r26
    6a84:	12 36       	cpi	r17, 0x62	; 98
    6a86:	11 16       	cp	r1, r17
    6a88:	1b 1a       	sub	r1, r27
    6a8a:	1e 74       	andi	r17, 0x4E	; 78
    6a8c:	63 14       	cp	r6, r3
    6a8e:	04 eb       	ldi	r16, 0xB4	; 180
    6a90:	03 03       	mulsu	r16, r19
    6a92:	2e 51       	subi	r18, 0x1E	; 30
    6a94:	6a 00       	.word	0x006a	; ????
    6a96:	63 6f       	ori	r22, 0xF3	; 243
    6a98:	6c 64       	ori	r22, 0x4C	; 76
	...

00006a9b <_FigRomCold>:
    6a9b:	01 3b       	cpi	r16, 0xB1	; 177
    6a9d:	62 01       	movw	r12, r4
    6a9f:	00 80       	ld	r0, Z
    6aa1:	2c 18       	sub	r2, r12
    6aa3:	36 77       	andi	r19, 0x76	; 118
    6aa5:	6e e9       	ldi	r22, 0x9E	; 158
    6aa7:	60 01       	movw	r12, r0
    6aa9:	36 1a       	sub	r3, r22
    6aab:	01 7f       	andi	r16, 0xF1	; 241
    6aad:	03 2c       	mov	r0, r3
    6aaf:	80 36       	cpi	r24, 0x60	; 96
    6ab1:	01 c0       	rjmp	.+2      	; 0x6ab5 <_FigRomCold+0x1a>
    6ab3:	19 01       	movw	r2, r18
    6ab5:	ef 01       	movw	r28, r30
    6ab7:	79 6a       	ori	r23, 0xA9	; 169
    6ab9:	01 9c       	mul	r0, r1
    6abb:	ff 5a       	subi	r31, 0xAF	; 175
    6abd:	6a f4       	brpl	.+26     	; 0x6ad9 <_FigRomDPlusSub_1+0x3>
    6abf:	69 93       	st	Y+, r22
    6ac1:	6a 00       	.word	0x006a	; ????
    6ac3:	2b 2d       	mov	r18, r11
	...

00006ac6 <_FigRomPlusSub>:
    6ac6:	15 04       	cpc	r1, r5
    6ac8:	02 18       	sub	r0, r2

00006aca <_FigRomPlusSub_1>:
    6aca:	2e c0       	rjmp	.+92     	; 0x6b28 <_FigRomMStar+0x14>
    6acc:	6a 00       	.word	0x006a	; ????
    6ace:	64 2b       	or	r22, r20
    6ad0:	2d 00       	.word	0x002d	; ????

00006ad2 <_FigRomDPlusSub>:
    6ad2:	15 04       	cpc	r1, r5
    6ad4:	02 19       	sub	r16, r2

00006ad6 <_FigRomDPlusSub_1>:
    6ad6:	2e cb       	rjmp	.-2468   	; 0x6134 <_FigRomType_3>
    6ad8:	6a 00       	.word	0x006a	; ????
    6ada:	61 62       	ori	r22, 0x21	; 33
    6adc:	73 00       	.word	0x0073	; ????

00006ade <_FigRomAbs>:
    6ade:	1c c6       	rjmp	.+3128   	; 0x7718 <_FigRomQuryclaimBlk+0x7>
    6ae0:	6a 2e       	mov	r6, r26
    6ae2:	d7 6a       	ori	r29, 0xA7	; 167
    6ae4:	00 64       	ori	r16, 0x40	; 64
    6ae6:	61 62       	ori	r22, 0x21	; 33
    6ae8:	73 00       	.word	0x0073	; ????

00006aea <_FigRomDabs>:
    6aea:	1c d2       	rcall	.+1080   	; 0x6f24 <_FigRomInTextQury+0x1>
    6aec:	6a 2e       	mov	r6, r26
    6aee:	e2 6a       	ori	r30, 0xA2	; 162
    6af0:	00 6d       	ori	r16, 0xD0	; 208
    6af2:	69 6e       	ori	r22, 0xE9	; 233
	...

00006af5 <_FigRomMin>:
    6af5:	1a 1a       	sub	r1, r26
    6af7:	52 63       	ori	r21, 0x32	; 50
    6af9:	04 02       	muls	r16, r20
    6afb:	1b 03       	fmul	r17, r19

00006afc <_FigRomMin_1>:
    6afc:	03 2e       	mov	r0, r19
    6afe:	ee 6a       	ori	r30, 0xAE	; 174
    6b00:	00 6d       	ori	r16, 0xD0	; 208
    6b02:	61 78       	andi	r22, 0x81	; 129
	...

00006b05 <_FigRomMax>:
    6b05:	1a 1a       	sub	r1, r26
    6b07:	15 42       	sbci	r17, 0x25	; 37
    6b09:	04 02       	muls	r16, r20
    6b0b:	1b 03       	fmul	r17, r19

00006b0c <_FigRomMax_1>:
    6b0c:	03 2e       	mov	r0, r19
    6b0e:	fe 6a       	ori	r31, 0xAE	; 174
    6b10:	00 6d       	ori	r16, 0xD0	; 208
    6b12:	2a 00       	.word	0x002a	; ????

00006b14 <_FigRomMStar>:
    6b14:	1a 1a       	sub	r1, r26
    6b16:	0e 13       	cpse	r16, r30
    6b18:	de 6a       	ori	r29, 0xAE	; 174
    6b1a:	1b de       	rcall	.-970    	; 0x6752 <_FigRomEnclose_2+0xf>
    6b1c:	6a 09       	sbc	r22, r10
    6b1e:	11 d2       	rcall	.+1058   	; 0x6f42 <_FigRomCurUD+0xc>
    6b20:	6a 2e       	mov	r6, r26
    6b22:	0e 6b       	ori	r16, 0xBE	; 190
    6b24:	00 2a       	or	r0, r16
    6b26:	2f 6d       	ori	r18, 0xDF	; 223
    6b28:	6f 64       	ori	r22, 0x4F	; 79
	...

00006b2b <_FigRomStarSlashmod>:
    6b2b:	13 14       	cp	r1, r3
    6b2d:	6b 11       	cpse	r22, r11
    6b2f:	43 6b       	ori	r20, 0xB3	; 179
    6b31:	2e 22       	and	r2, r30
    6b33:	6b 00       	.word	0x006b	; ????
    6b35:	2a 2f       	mov	r18, r26
	...

00006b38 <_FigRomStarSlash>:
    6b38:	2b 6b       	ori	r18, 0xBB	; 187
    6b3a:	1b 03       	fmul	r17, r19
    6b3c:	2e 32       	cpi	r18, 0x2E	; 46
    6b3e:	6b 00       	.word	0x006b	; ????
    6b40:	6d 2f       	mov	r22, r29
	...

00006b43 <_FigRomMSlash>:
    6b43:	1a 13       	cpse	r17, r26
    6b45:	13 ea       	ldi	r17, 0xA3	; 163
    6b47:	6a 12       	cpse	r6, r26
    6b49:	de 6a       	ori	r29, 0xAE	; 174
    6b4b:	0b 11       	cpse	r16, r11
    6b4d:	12 0e       	add	r1, r18
    6b4f:	c6 6a       	ori	r28, 0xA6	; 166
    6b51:	1b 11       	cpse	r17, r11
    6b53:	c6 6a       	ori	r28, 0xA6	; 166
    6b55:	1b 2e       	mov	r1, r27
    6b57:	3d 6b       	ori	r19, 0xBD	; 189
    6b59:	00 2f       	mov	r16, r16
    6b5b:	6d 6f       	ori	r22, 0xFD	; 253
    6b5d:	64 00       	.word	0x0064	; ????

00006b5f <_FigRomSlashmod>:
    6b5f:	13 15       	cp	r17, r3
    6b61:	1c 11       	cpse	r17, r12
    6b63:	43 6b       	ori	r20, 0xB3	; 179
    6b65:	2e 57       	subi	r18, 0x7E	; 126
    6b67:	6b 00       	.word	0x006b	; ????
    6b69:	2f 00       	.word	0x002f	; ????

00006b6b <_FigRomSlash>:
    6b6b:	5f 6b       	ori	r21, 0xBF	; 191
    6b6d:	1b 03       	fmul	r17, r19
    6b6f:	2e 66       	ori	r18, 0x6E	; 110
    6b71:	6b 00       	.word	0x006b	; ????
    6b73:	6d 6f       	ori	r22, 0xFD	; 253
    6b75:	64 00       	.word	0x0064	; ????

00006b77 <_FigRomMod>:
    6b77:	5f 6b       	ori	r21, 0xBF	; 191
    6b79:	03 2e       	mov	r0, r19
    6b7b:	70 6b       	ori	r23, 0xB0	; 176
    6b7d:	00 6d       	ori	r16, 0xD0	; 208
    6b7f:	2f 6d       	ori	r18, 0xDF	; 223
    6b81:	6f 64       	ori	r22, 0x4F	; 79
	...

00006b84 <_FigRomMSlashmod>:
    6b84:	13 2b       	or	r17, r19
    6b86:	12 0b       	sbc	r17, r18
    6b88:	11 1b       	sub	r17, r17
    6b8a:	13 0b       	sbc	r17, r19
    6b8c:	11 2e       	mov	r1, r17

00006b8e <_FigRomBack>:
    6b8e:	5d 63       	ori	r21, 0x3D	; 61
    6b90:	0d 65       	ori	r16, 0x5D	; 93
    6b92:	37 63       	ori	r19, 0x37	; 55
    6b94:	12 63       	ori	r17, 0x32	; 50
    6b96:	42 37       	cpi	r20, 0x72	; 114
    6b98:	63 2e       	mov	r6, r19
    6b9a:	7b 6b       	ori	r23, 0xBB	; 187
    6b9c:	40 69       	ori	r20, 0x90	; 144
    6b9e:	66 00       	.word	0x0066	; ????

00006ba0 <_FigRomIf>:
    6ba0:	66 65       	ori	r22, 0x56	; 86
    6ba2:	04 00       	.word	0x0004	; ????
    6ba4:	12 63       	ori	r17, 0x32	; 50
    6ba6:	2b 37       	cpi	r18, 0x7B	; 123
    6ba8:	63 2c       	mov	r6, r3
    6baa:	02 2e       	mov	r0, r18
    6bac:	9a 6b       	ori	r25, 0xBA	; 186
    6bae:	40 74       	andi	r20, 0x40	; 64
    6bb0:	68 65       	ori	r22, 0x58	; 88
    6bb2:	6e 00       	.word	0x006e	; ????

00006bb4 <_FigRomThen>:
    6bb4:	f0 64       	ori	r31, 0x40	; 64
    6bb6:	2c 02       	muls	r18, r28
    6bb8:	0d 65       	ori	r16, 0x5D	; 93
    6bba:	12 63       	ori	r17, 0x32	; 50
    6bbc:	1a 42       	sbci	r17, 0x2A	; 42
    6bbe:	1b 1f       	adc	r17, r27
    6bc0:	2e ac       	sts	0xae, r18
    6bc2:	6b 40       	sbci	r22, 0x0B	; 11
    6bc4:	65 6c       	ori	r22, 0xC5	; 197
    6bc6:	73 65       	ori	r23, 0x53	; 83
	...

00006bc9 <_FigRomElse>:
    6bc9:	2c 02       	muls	r18, r28
    6bcb:	0d 65       	ori	r16, 0x5D	; 93
    6bcd:	66 65       	ori	r22, 0x56	; 86
    6bcf:	05 00       	.word	0x0005	; ????
    6bd1:	12 63       	ori	r17, 0x32	; 50
    6bd3:	2b 37       	cpi	r18, 0x7B	; 123
    6bd5:	63 1b       	sub	r22, r19
    6bd7:	2c 02       	muls	r18, r28
    6bd9:	b4 6b       	ori	r27, 0xB4	; 180
    6bdb:	2c 02       	muls	r18, r28
    6bdd:	2e c1       	rjmp	.+604    	; 0x6e3b <_FigRomForget_1+0x3>
    6bdf:	6b 40       	sbci	r22, 0x0B	; 11
    6be1:	64 6f       	ori	r22, 0xF4	; 244
	...

00006be4 <_FigRomDo>:
    6be4:	66 65       	ori	r22, 0x56	; 86
    6be6:	08 00       	.word	0x0008	; ????
    6be8:	12 63       	ori	r17, 0x32	; 50
    6bea:	2c 03       	fmul	r18, r20
    6bec:	2e de       	rcall	.-932    	; 0x684a <_FigRomFind_2+0x9>
    6bee:	6b 40       	sbci	r22, 0x0B	; 11
    6bf0:	6c 6f       	ori	r22, 0xFC	; 252
    6bf2:	6f 70       	andi	r22, 0x0F	; 15
	...

00006bf5 <_FigRomLoop>:
    6bf5:	2c 06       	cpc	r2, r28
    6bf7:	2c 03       	fmul	r18, r20
    6bf9:	8e 6b       	ori	r24, 0xBE	; 190
    6bfb:	2e ed       	ldi	r18, 0xDE	; 222
    6bfd:	6b 40       	sbci	r22, 0x0B	; 11
    6bff:	2b 6c       	ori	r18, 0xCB	; 203
    6c01:	6f 6f       	ori	r22, 0xFF	; 255
    6c03:	70 00       	.word	0x0070	; ????

00006c05 <_FigRomPlusloop>:
    6c05:	2c 07       	cpc	r18, r28
    6c07:	2c 03       	fmul	r18, r20
    6c09:	8e 6b       	ori	r24, 0xBE	; 190
    6c0b:	2e fc       	.word	0xfc2e	; ????
    6c0d:	6b 40       	sbci	r22, 0x0B	; 11
    6c0f:	62 65       	ori	r22, 0x52	; 82
    6c11:	67 69       	ori	r22, 0x97	; 151
    6c13:	6e 00       	.word	0x006e	; ????

00006c15 <_FigRomBegin>:
    6c15:	f0 64       	ori	r31, 0x40	; 64
    6c17:	12 63       	ori	r17, 0x32	; 50
    6c19:	2c 01       	movw	r4, r24
    6c1b:	2e 0c       	add	r2, r14
    6c1d:	6c 40       	sbci	r22, 0x0C	; 12
    6c1f:	75 6e       	ori	r23, 0xE5	; 229
    6c21:	74 69       	ori	r23, 0x94	; 148
    6c23:	6c 00       	.word	0x006c	; ????

00006c25 <_FigRomUntil>:
    6c25:	2c 04       	cpc	r2, r12
    6c27:	2c 01       	movw	r4, r24
    6c29:	8e 6b       	ori	r24, 0xBE	; 190
    6c2b:	2e 1c       	adc	r2, r14
    6c2d:	6c 40       	sbci	r22, 0x0C	; 12
    6c2f:	77 68       	ori	r23, 0x87	; 135
    6c31:	69 6c       	ori	r22, 0xC9	; 201
    6c33:	65 00       	.word	0x0065	; ????

00006c35 <_FigRomWhile>:
    6c35:	a0 6b       	ori	r26, 0xB0	; 176
    6c37:	22 22       	and	r2, r18
    6c39:	2e 2c       	mov	r2, r14
    6c3b:	6c 40       	sbci	r22, 0x0C	; 12
    6c3d:	72 65       	ori	r23, 0x52	; 82
    6c3f:	70 65       	ori	r23, 0x50	; 80
    6c41:	61 74       	andi	r22, 0x41	; 65
	...

00006c44 <_FigRomRepeat>:
    6c44:	13 13       	cpse	r17, r19
    6c46:	2c 05       	cpc	r18, r12
    6c48:	2c 01       	movw	r4, r24
    6c4a:	8e 6b       	ori	r24, 0xBE	; 190
    6c4c:	11 11       	cpse	r17, r1
    6c4e:	2c 02       	muls	r18, r28
    6c50:	42 b4       	in	r4, 0x22	; 34
    6c52:	6b 2e       	mov	r6, r27

00006c54 <_FigRomOpenofClose>:
    6c54:	1a 14       	cp	r1, r10
    6c56:	42 11       	cpse	r20, r2
    6c58:	1b 04       	cpc	r1, r11
    6c5a:	07 1b       	sub	r16, r23
    6c5c:	03 22       	and	r0, r19
    6c5e:	22 05       	cpc	r18, r2
    6c60:	02 1d       	adc	r16, r2

00006c61 <_FigRomOpenofClose_1>:
    6c61:	1d 13       	cpse	r17, r29

00006c62 <_FigRomOpenofClose_2>:
    6c62:	13 2e       	mov	r1, r19
    6c64:	3a 6c       	ori	r19, 0xCA	; 202
    6c66:	00 68       	ori	r16, 0x80	; 128
    6c68:	6f 6c       	ori	r22, 0xCF	; 207
    6c6a:	64 00       	.word	0x0064	; ????

00006c6c <_FigRomHold>:
    6c6c:	01 ff       	sbrs	r16, 1
    6c6e:	ff dc       	rcall	.-1538   	; 0x666e <_FigRomNumber+0x4>
    6c70:	62 fd       	sbrc	r22, 2
    6c72:	62 dc       	rcall	.-1852   	; 0x6538 <_FigRomSemi+0xe>
    6c74:	62 1d       	adc	r22, r2
    6c76:	1f 2e       	mov	r1, r31
    6c78:	64 6c       	ori	r22, 0xC4	; 196
    6c7a:	00 70       	andi	r16, 0x00	; 0
    6c7c:	61 64       	ori	r22, 0x41	; 65
	...

00006c7f <_FigRomPad>:
    6c7f:	12 63       	ori	r17, 0x32	; 50
    6c81:	2c 43       	sbci	r18, 0x3C	; 60
    6c83:	16 2e       	mov	r1, r22
    6c85:	78 6c       	ori	r23, 0xC8	; 200
    6c87:	00 3c       	cpi	r16, 0xC0	; 192
    6c89:	23 00       	.word	0x0023	; ????

00006c8b <_FigRomLtHash>:
    6c8b:	7f 6c       	ori	r23, 0xCF	; 207
    6c8d:	2b 1a       	sub	r2, r27
    6c8f:	1f dc       	rcall	.-1986   	; 0x64cf <_FigRomQuryerror+0xa>
    6c91:	62 20       	and	r6, r2
    6c93:	2e 85       	ldd	r18, Y+14	; 0x0e
    6c95:	6c 00       	.word	0x006c	; ????
    6c97:	23 3e       	cpi	r18, 0xE3	; 227
	...

00006c9a <_FigRomHashFrom>:
    6c9a:	03 03       	mulsu	r16, r19
    6c9c:	dc 62       	ori	r29, 0x2C	; 44
    6c9e:	1d 7f       	andi	r17, 0xFD	; 253
    6ca0:	6c 1a       	sub	r6, r28
    6ca2:	42 2e       	mov	r4, r18
    6ca4:	94 6c       	ori	r25, 0xC4	; 196
    6ca6:	00 73       	andi	r16, 0x30	; 48
    6ca8:	69 67       	ori	r22, 0x79	; 121
    6caa:	6e 00       	.word	0x006e	; ????

00006cac <_FigRomSign>:
    6cac:	5d 63       	ori	r21, 0x3D	; 61
    6cae:	15 04       	cpc	r1, r5
    6cb0:	05 2c       	mov	r0, r5
    6cb2:	2d 6c       	ori	r18, 0xCD	; 205
    6cb4:	6c 2e       	mov	r6, r28

00006cb5 <_FigRomSign_1>:
    6cb5:	2e a4       	lds	r18, 0xae
    6cb7:	6c 00       	.word	0x006c	; ????
    6cb9:	23 00       	.word	0x0023	; ????

00006cbb <_FigRomHash>:
    6cbb:	d2 62       	ori	r29, 0x22	; 34
    6cbd:	1d 84       	ldd	r1, Y+13	; 0x0d
    6cbf:	6b 5d       	subi	r22, 0xDB	; 219
    6cc1:	63 2c       	mov	r6, r3
    6cc3:	09 1a       	sub	r0, r25
    6cc5:	15 42       	sbci	r17, 0x25	; 37
    6cc7:	04 04       	cpc	r0, r4
    6cc9:	2c 07       	cpc	r18, r28
    6ccb:	16 2c       	mov	r1, r6

00006ccc <_FigRomHash_1>:
    6ccc:	2c 30       	cpi	r18, 0x0C	; 12
    6cce:	16 6c       	ori	r17, 0xC6	; 198
    6cd0:	6c 2e       	mov	r6, r28
    6cd2:	b6 6c       	ori	r27, 0xC6	; 198
    6cd4:	00 23       	and	r16, r16
    6cd6:	73 00       	.word	0x0073	; ????

00006cd8 <_FigRomHashs>:
    6cd8:	bb 6c       	ori	r27, 0xCB	; 203
    6cda:	1a 1a       	sub	r1, r26
    6cdc:	0d 14       	cp	r0, r13
    6cde:	04 f9       	bld	r16, 4
    6ce0:	2e d2       	rcall	.+1116   	; 0x713e <_FigRomEdDel+0x10>
    6ce2:	6c 00       	.word	0x006c	; ????
    6ce4:	64 2e       	mov	r6, r20
    6ce6:	72 00       	.word	0x0072	; ????

00006ce8 <_FigRomDDotr>:
    6ce8:	13 1b       	sub	r17, r19
    6cea:	1a ea       	ldi	r17, 0xAA	; 170
    6cec:	6a 8b       	std	Y+18, r22	; 0x12
    6cee:	6c d8       	rcall	.-3880   	; 0x5dc8 <__data_load_end+0x25d2>
    6cf0:	6c ac       	sts	0xac, r22
    6cf2:	6c 9a       	sbi	0x0d, 4	; 13
    6cf4:	6c 11       	cpse	r22, r12
    6cf6:	1a 42       	sbci	r17, 0x2A	; 42
    6cf8:	4c 61       	ori	r20, 0x1C	; 28
    6cfa:	24 61       	ori	r18, 0x14	; 20
    6cfc:	2e e1       	ldi	r18, 0x1E	; 30
    6cfe:	6c 00       	.word	0x006c	; ????
    6d00:	64 2e       	mov	r6, r20
	...

00006d03 <_FigRomDDot>:
    6d03:	2b e8       	ldi	r18, 0x8B	; 139
    6d05:	6c 3e       	cpi	r22, 0xEC	; 236
    6d07:	61 2e       	mov	r6, r17
    6d09:	fd 6c       	ori	r31, 0xCD	; 205
    6d0b:	00 2e       	mov	r0, r16
    6d0d:	72 00       	.word	0x0072	; ????

00006d0f <_FigRomDotr>:
    6d0f:	13 15       	cp	r17, r3
    6d11:	1c 11       	cpse	r17, r12
    6d13:	e8 6c       	ori	r30, 0xC8	; 200
    6d15:	2e 09       	sbc	r18, r14
    6d17:	6d 00       	.word	0x006d	; ????
    6d19:	2e 00       	.word	0x002e	; ????

00006d1b <_FigRomDot>:
    6d1b:	15 1c       	adc	r1, r5
    6d1d:	03 6d       	ori	r16, 0xD3	; 211
    6d1f:	2e 16       	cp	r2, r30
    6d21:	6d 00       	.word	0x006d	; ????
    6d23:	3f 00       	.word	0x003f	; ????

00006d25 <_FigRomQury>:
    6d25:	1d 1b       	sub	r17, r29
    6d27:	6d 2e       	mov	r6, r29

00006d29 <_FigRomLoadMsg>:
    6d29:	e9 60       	ori	r30, 0x09	; 9
    6d2b:	70 61       	ori	r23, 0x10	; 16
    6d2d:	4c 6f       	ori	r20, 0xFC	; 252
    6d2f:	61 64       	ori	r22, 0x41	; 65
    6d31:	69 6e       	ori	r22, 0xE9	; 233
    6d33:	67 20       	and	r6, r7
    6d35:	00 a5       	lds	r16, 0x60
    6d37:	62 1d       	adc	r22, r2
    6d39:	1b 6d       	ori	r17, 0xDB	; 219
    6d3b:	2e 20       	and	r2, r14
    6d3d:	6d 00       	.word	0x006d	; ????
    6d3f:	6c 6f       	ori	r22, 0xFC	; 252
    6d41:	61 64       	ori	r22, 0x41	; 65
    6d43:	73 00       	.word	0x0073	; ????

00006d45 <_FigRomLoads>:
    6d45:	1b 8e       	std	Y+27, r1	; 0x1b
    6d47:	62 1d       	adc	r22, r2
    6d49:	13 a5       	lds	r17, 0x63
    6d4b:	62 1d       	adc	r22, r2
    6d4d:	1c 14       	cp	r1, r12
    6d4f:	04 14       	cp	r0, r4
    6d51:	2b 01       	movw	r4, r22
    6d53:	01 03       	mulsu	r16, r17
    6d55:	90 69       	ori	r25, 0x90	; 144
    6d57:	01 00       	.word	0x0001	; ????
    6d59:	01 16       	cp	r0, r17
    6d5b:	1c 8e       	std	Y+28, r1	; 0x1c
    6d5d:	62 20       	and	r6, r2
    6d5f:	01 00       	.word	0x0001	; ????
    6d61:	02 16       	cp	r0, r18
    6d63:	1f e6       	ldi	r17, 0x6F	; 111

00006d64 <_FigRomLoads_1>:
    6d64:	e6 62       	ori	r30, 0x26	; 38
    6d66:	1d 13       	cpse	r17, r29
    6d68:	13 1b       	sub	r17, r19
    6d6a:	2b 08       	sbc	r2, r11

00006d6c <_FigRomLoads_2>:
    6d6c:	8e 62       	ori	r24, 0x2E	; 46
    6d6e:	1d e6       	ldi	r17, 0x6D	; 109
    6d70:	62 20       	and	r6, r2
    6d72:	1c a5       	lds	r17, 0x6c
    6d74:	62 20       	and	r6, r2
    6d76:	2a 77       	andi	r18, 0x7A	; 122
    6d78:	29 6d       	ori	r18, 0xD9	; 217
    6d7a:	5b 69       	ori	r21, 0x9B	; 155
    6d7c:	a5 62       	ori	r26, 0x25	; 37
    6d7e:	1d 22       	and	r1, r29
    6d80:	06 eb       	ldi	r16, 0xB6	; 182
    6d82:	03 11       	cpse	r16, r3
    6d84:	11 e6       	ldi	r17, 0x61	; 97
    6d86:	62 20       	and	r6, r2
    6d88:	1c a5       	lds	r17, 0x6c
    6d8a:	62 20       	and	r6, r2
    6d8c:	74 63       	ori	r23, 0x34	; 52
    6d8e:	04 07       	cpc	r16, r20
    6d90:	2a 77       	andi	r18, 0x7A	; 122
    6d92:	29 6d       	ori	r18, 0xD9	; 217
    6d94:	05 0a       	sbc	r0, r21

00006d96 <_FigRomLoads_3>:
    6d96:	8e 62       	ori	r24, 0x2E	; 46
    6d98:	1d 01       	movw	r2, r26
    6d9a:	00 01       	movw	r0, r0
    6d9c:	42 ae       	sts	0xb2, r20
    6d9e:	69 11       	cpse	r22, r9

00006d9f <_FigRomLoads_4>:
    6d9f:	11 8e       	std	Z+25, r1	; 0x19
    6da1:	62 20       	and	r6, r2
    6da3:	2e 3c       	cpi	r18, 0xCE	; 206
    6da5:	6d 00       	.word	0x006d	; ????
    6da7:	6c 6f       	ori	r22, 0xFC	; 252
    6da9:	61 64       	ori	r22, 0x41	; 65
	...

00006dac <_FigRomLoad>:
    6dac:	2c 01       	movw	r4, r24
    6dae:	45 6d       	ori	r20, 0xD5	; 213
    6db0:	2e a4       	lds	r18, 0xae
    6db2:	6d 00       	.word	0x006d	; ????
    6db4:	63 70       	andi	r22, 0x03	; 3
	...

00006db7 <_FigRomCp>:
    6db7:	1b 2a       	or	r1, r27
    6db9:	77 4f       	sbci	r23, 0xF7	; 247
    6dbb:	77 e9       	ldi	r23, 0x97	; 151
    6dbd:	60 2e       	mov	r6, r16

00006dbf <_FigRomBottomLine>:
    6dbf:	01 06       	cpc	r0, r17
    6dc1:	01 26       	eor	r0, r17
    6dc3:	f9 61       	ori	r31, 0x19	; 25
    6dc5:	01 3e       	cpi	r16, 0xE1	; 225
    6dc7:	02 16       	cp	r0, r18
    6dc9:	52 63       	ori	r21, 0x32	; 50
    6dcb:	2e b1       	in	r18, 0x0e	; 14
    6dcd:	6d 00       	.word	0x006d	; ????
    6dcf:	6d 6f       	ori	r22, 0xFD	; 253
    6dd1:	72 65       	ori	r23, 0x52	; 82
	...

00006dd4 <_FigRomMore>:
    6dd4:	bf 6d       	ori	r27, 0xDF	; 223
    6dd6:	04 0f       	add	r16, r20
    6dd8:	70 61       	ori	r23, 0x10	; 16
    6dda:	6d 6f       	ori	r22, 0xFD	; 253
    6ddc:	72 65       	ori	r23, 0x52	; 82
    6dde:	3e 3e       	cpi	r19, 0xEE	; 238
    6de0:	00 a4       	lds	r16, 0xa0
    6de2:	60 03       	mulsu	r22, r16
    6de4:	e9 60       	ori	r30, 0x09	; 9

00006de6 <_FigRomMore_1>:
    6de6:	2e 13       	cpse	r18, r30

00006de7 <_FigRomOpenvlistClose>:
    6de7:	13 12       	cpse	r1, r19

00006de8 <_FigRomOpenvlistClose_1>:
    6de8:	12 02       	muls	r17, r18
    6dea:	1a 1a       	sub	r1, r26
    6dec:	30 64       	ori	r19, 0x40	; 64
    6dee:	87 67       	ori	r24, 0x77	; 119
    6df0:	2c ff       	.word	0xff2c	; ????
    6df2:	0c 14       	cp	r0, r12
    6df4:	04 08       	sbc	r0, r4
    6df6:	1c 30       	cpi	r17, 0x0C	; 12
    6df8:	64 6c       	ori	r22, 0xC4	; 196
    6dfa:	61 3e       	cpi	r22, 0xE1	; 225
    6dfc:	61 1d       	adc	r22, r1

00006dfd <_FigRomOpenvlistClose_2>:
    6dfd:	1d 74       	andi	r17, 0x4D	; 77
    6dff:	63 14       	cp	r6, r3
    6e01:	04 e6       	ldi	r16, 0x64	; 100
    6e03:	03 11       	cpse	r16, r3
    6e05:	03 2e       	mov	r0, r19
    6e07:	cc 6d       	ori	r28, 0xDC	; 220
    6e09:	40 76       	andi	r20, 0x60	; 96
    6e0b:	6c 69       	ori	r22, 0x9C	; 156
    6e0d:	73 74       	andi	r23, 0x43	; 67
	...

00006e10 <_FigRomVlist>:
    6e10:	e9 60       	ori	r30, 0x09	; 9
    6e12:	2c 20       	and	r2, r12
    6e14:	60 67       	ori	r22, 0x70	; 112
    6e16:	12 63       	ori	r17, 0x32	; 50
    6e18:	f3 62       	ori	r31, 0x23	; 35
    6e1a:	01 d4       	rcall	.+2050   	; 0x761e <_FigRomVDskFindEntry_2+0x34>
    6e1c:	6d e7       	ldi	r22, 0x7D	; 125
    6e1e:	6d 2e       	mov	r6, r29
    6e20:	07 6e       	ori	r16, 0xE7	; 231
    6e22:	00 66       	ori	r16, 0x60	; 96
    6e24:	6f 72       	andi	r22, 0x2F	; 47
    6e26:	67 65       	ori	r22, 0x57	; 87
    6e28:	74 00       	.word	0x0074	; ????

00006e2a <_FigRomForget>:
    6e2a:	29 68       	ori	r18, 0x89	; 137
    6e2c:	74 63       	ori	r23, 0x34	; 52
    6e2e:	04 09       	sbc	r16, r4
    6e30:	1c 1d       	adc	r17, r12
    6e32:	5e 62       	ori	r21, 0x2E	; 46
    6e34:	20 bb       	out	0x10, r18	; 16
    6e36:	62 20       	and	r6, r2

00006e38 <_FigRomForget_1>:
    6e38:	2e 20       	and	r2, r14
    6e3a:	6e 00       	.word	0x006e	; ????
    6e3c:	70 65       	ori	r23, 0x50	; 80
    6e3e:	6e 00       	.word	0x006e	; ????

00006e40 <_FigRomPen>:
    6e40:	01 4a       	sbci	r16, 0xA1	; 161
    6e42:	00 25       	eor	r16, r0
    6e44:	2e 1c       	adc	r2, r14

00006e45 <_FigRomInitList>:
    6e45:	1c 22       	and	r1, r28
    6e47:	1e 1a       	sub	r1, r30
    6e49:	1e 25       	eor	r17, r14
    6e4b:	22 22       	and	r2, r18
    6e4d:	1c 1e       	adc	r1, r28
    6e4f:	14 04       	cpc	r1, r4
    6e51:	f4 03       	fmuls	r23, r20
    6e53:	2e b0       	in	r2, 0x0e	; 14

00006e54 <_FigRomSyncData>:
    6e54:	b0 33       	cpi	r27, 0x30	; 48
    6e56:	b1 0a       	sbc	r11, r17
    6e58:	b2 00       	.word	0x00b2	; ????
    6e5a:	b3 9f       	mul	r27, r19
    6e5c:	b4 0b       	sbc	r27, r20
    6e5e:	80 00       	.word	0x0080	; ????
    6e60:	81 02       	muls	r24, r17
    6e62:	85 00       	.word	0x0085	; ????
    6e64:	84 00       	.word	0x0084	; ????
    6e66:	89 00       	.word	0x0089	; ????
    6e68:	88 0b       	sbc	r24, r24
    6e6a:	6f 02       	muls	r22, r31
    6e6c:	c2 c0       	rjmp	.+388    	; 0x6ff2 <_FigRomDotline_2+0x10>
    6e6e:	c1 00       	.word	0x00c1	; ????
    6e70:	c5 00       	.word	0x00c5	; ????
    6e72:	c4 01       	movw	r24, r8
    6e74:	43 00       	.word	0x0043	; ????
	...

00006e77 <_FigRomSyncInit>:
    6e77:	2c 83       	std	Y+4, r18	; 0x04
    6e79:	2c 43       	sbci	r18, 0x3C	; 60
    6e7b:	25 2c       	mov	r2, r5
    6e7d:	0a 2c       	mov	r0, r10
    6e7f:	fe 2c       	mov	r15, r14
    6e81:	2a 0a       	sbc	r2, r26
    6e83:	03 2b       	or	r16, r19
    6e85:	2c fd       	.word	0xfd2c	; ????
    6e87:	2c 2b       	or	r18, r28
    6e89:	0a 03       	fmul	r16, r18
    6e8b:	2c 08       	sbc	r2, r12
    6e8d:	01 26       	eor	r0, r17
    6e8f:	01 25       	eor	r16, r1
    6e91:	01 54       	subi	r16, 0x41	; 65
    6e93:	6e 45       	sbci	r22, 0x5E	; 94
    6e95:	6e 2e       	mov	r6, r30
    6e97:	39 6e       	ori	r19, 0xE9	; 233
    6e99:	00 76       	andi	r16, 0x60	; 96
    6e9b:	6d 6f       	ori	r22, 0xFD	; 253
    6e9d:	64 65       	ori	r22, 0x54	; 84
	...

00006ea0 <_FigRomVmode>:
    6ea0:	2c 61       	ori	r18, 0x1C	; 28
    6ea2:	0c 2c       	mov	r0, r12
    6ea4:	43 24       	eor	r4, r3
    6ea6:	04 03       	mulsu	r16, r20
    6ea8:	77 6e       	ori	r23, 0xE7	; 231

00006eaa <_FigRomVmode_1>:
    6eaa:	2b 5a       	subi	r18, 0xAB	; 171
    6eac:	6a 1c       	adc	r6, r10
    6eae:	2c 9e       	mul	r2, r28
    6eb0:	01 3e       	cpi	r16, 0xE1	; 225
    6eb2:	00 0a       	sbc	r0, r16
    6eb4:	03 14       	cp	r0, r3
    6eb6:	04 03       	mulsu	r16, r20
    6eb8:	e9 60       	ori	r30, 0x09	; 9

00006eba <_FigRomVmode_2>:
    6eba:	2e 00       	.word	0x002e	; ????

00006ebb <edResetData>:
    6ebb:	00 00       	nop
    6ebd:	00 00       	nop
    6ebf:	00 fe       	sbrs	r0, 0
	...
    6ec9:	19 00       	.word	0x0019	; ????
    6ecb:	13 00       	.word	0x0013	; ????
    6ecd:	bc 60       	ori	r27, 0x0C	; 12
    6ecf:	97 6e       	ori	r25, 0xE7	; 231
    6ed1:	00 61       	ori	r16, 0x10	; 16
    6ed3:	74 3e       	cpi	r23, 0xE4	; 228
	...

00006ed6 <_FigRomAtFrom>:
    6ed6:	2c 19       	sub	r18, r12
    6ed8:	03 09       	sbc	r16, r3
    6eda:	16 f9       	bld	r17, 6
    6edc:	61 16       	cp	r6, r17
    6ede:	2e cf       	rjmp	.-420    	; 0x6d3c <_FigRomLoadMsg+0x13>
    6ee0:	6e 00       	.word	0x006e	; ????
    6ee2:	63 75       	andi	r22, 0x53	; 83
    6ee4:	72 73       	andi	r23, 0x32	; 50
    6ee6:	6f 72       	andi	r22, 0x2F	; 47
	...

00006ee9 <_FigRomCursor>:
    6ee9:	01 08       	sbc	r0, r1
    6eeb:	01 24       	eor	r0, r1
    6eed:	01 06       	cpc	r0, r17
    6eef:	01 26       	eor	r0, r17
    6ef1:	f9 61       	ori	r31, 0x19	; 25
    6ef3:	42 2c       	mov	r4, r2
    6ef5:	19 6b       	ori	r17, 0xB9	; 185
    6ef7:	6b 2e       	mov	r6, r27
    6ef9:	df 6e       	ori	r29, 0xEF	; 239
    6efb:	00 63       	ori	r16, 0x30	; 48
    6efd:	6c 42       	sbci	r22, 0x2C	; 44
    6eff:	6f 78       	andi	r22, 0x8F	; 143
	...

00006f02 <_FigRomClBox>:
    6f02:	13 13       	cpse	r17, r19
    6f04:	d6 6e       	ori	r29, 0xE6	; 230
    6f06:	11 1b       	sub	r17, r17
    6f08:	11 2b       	or	r17, r17
    6f0a:	08 1a       	sub	r0, r24

00006f0b <_FigRomClBox_1>:
    6f0b:	1a 1a       	sub	r1, r26
    6f0d:	1b 2c       	mov	r1, r11
    6f0f:	20 30       	cpi	r18, 0x00	; 0
    6f11:	2c 19       	sub	r18, r12
    6f13:	16 06       	cpc	r1, r22
    6f15:	f6 03       	fmuls	r23, r22
    6f17:	03 2e       	mov	r0, r19

00006f19 <_FigRomPlusSubpara>:
    6f19:	13 1a       	sub	r1, r19
    6f1b:	1b 11       	cpse	r17, r11
    6f1d:	b0 66       	ori	r27, 0x60	; 96
    6f1f:	1b 15       	cp	r17, r11
    6f21:	42 2e       	mov	r4, r18

00006f23 <_FigRomInTextQury>:
    6f23:	1b 15       	cp	r17, r11
    6f25:	16 1e       	adc	r1, r22
    6f27:	2e 01       	movw	r4, r28

00006f28 <_FigRomCurLU>:
    6f28:	01 ff       	sbrs	r16, 1
    6f2a:	ff 1a       	sub	r15, r31
    6f2c:	2c 0d       	add	r18, r12
    6f2e:	19 6f       	ori	r17, 0xF9	; 249
    6f30:	42 29       	or	r20, r2
    6f32:	13 77       	andi	r17, 0x73	; 115
    6f34:	6b 2e       	mov	r6, r27

00006f36 <_FigRomCurUD>:
    6f36:	13 1a       	sub	r1, r19
    6f38:	15 14       	cp	r1, r5
    6f3a:	12 0c       	add	r1, r2
    6f3c:	13 1a       	sub	r1, r19
    6f3e:	1a 2c       	mov	r1, r10
    6f40:	0d 19       	sub	r16, r13
    6f42:	6f 1a       	sub	r6, r31
    6f44:	42 1c       	adc	r4, r2
    6f46:	de 6a       	ori	r29, 0xAE	; 174
    6f48:	29 13       	cpse	r18, r25
    6f4a:	2f 11       	cpse	r18, r15
    6f4c:	42 52       	subi	r20, 0x22	; 34
    6f4e:	63 04       	cpc	r6, r3
    6f50:	18 1c       	adc	r1, r8
    6f52:	de 6a       	ori	r29, 0xAE	; 174
    6f54:	29 13       	cpse	r18, r25
    6f56:	f5 6a       	ori	r31, 0xA5	; 165
    6f58:	1b c6       	rjmp	.+3126   	; 0x7b90 <_FigRomPlustapeFrom+0x2e>
    6f5a:	6a 1b       	sub	r22, r26
    6f5c:	1a 16       	cp	r1, r26
    6f5e:	1b de       	rcall	.-970    	; 0x6b96 <_FigRomBack+0x8>
    6f60:	6a 11       	cpse	r22, r10
    6f62:	16 29       	or	r17, r6
    6f64:	13 42       	sbci	r17, 0x23	; 35
    6f66:	05 44       	sbci	r16, 0x45	; 69

00006f68 <_FigRomCurUD_1>:
    6f68:	1c 13       	cpse	r17, r28
    6f6a:	16 1a       	sub	r1, r22
    6f6c:	13 1a       	sub	r1, r19
    6f6e:	1a 23       	and	r17, r26
    6f70:	6f 1c       	adc	r6, r15
    6f72:	14 14       	cp	r1, r4
    6f74:	11 0c       	add	r1, r1
    6f76:	13 04       	cpc	r1, r3
    6f78:	2c 1a       	sub	r2, r28
    6f7a:	16 11       	cpse	r17, r6
    6f7c:	11 03       	mulsu	r17, r17
    6f7e:	13 1a       	sub	r1, r19
    6f80:	1a 2c       	mov	r1, r10
    6f82:	0d 19       	sub	r16, r13
    6f84:	6f 1a       	sub	r6, r31
    6f86:	42 de       	rcall	.-892    	; 0x6c0c <_FigRomPlusloop+0x7>
    6f88:	6a 5d       	subi	r22, 0xDA	; 218
    6f8a:	63 15       	cp	r22, r3
    6f8c:	04 09       	sbc	r16, r4
    6f8e:	29 13       	cpse	r18, r25
    6f90:	77 6b       	ori	r23, 0xB7	; 183
    6f92:	1b 1a       	sub	r1, r27
    6f94:	42 1b       	sub	r20, r18

00006f96 <_FigRomCurUD_4>:
    6f96:	11 5d       	subi	r17, 0xD1	; 209
    6f98:	63 5d       	subi	r22, 0xD3	; 211
    6f9a:	63 11       	cpse	r22, r3
    6f9c:	f5 6a       	ori	r31, 0xA5	; 165
    6f9e:	1b 1a       	sub	r1, r27
    6fa0:	16 1b       	sub	r17, r22
    6fa2:	05 08       	sbc	r0, r5

00006fa4 <_FigRomCurUD_3>:
    6fa4:	1b 03       	fmul	r17, r19
    6fa6:	11 1b       	sub	r17, r17
    6fa8:	11 11       	cpse	r17, r1
    6faa:	16 2e       	mov	r1, r22

00006fab <_FigRomCurUD_2>:
    6fab:	2e 29       	or	r18, r14

00006fac <_FigRomEdIns>:
    6fac:	29 0d       	add	r18, r9
    6fae:	29 03       	fmul	r18, r17
    6fb0:	15 42       	sbci	r17, 0x25	; 37
    6fb2:	04 17       	cp	r16, r20
    6fb4:	29 09       	sbc	r18, r9
    6fb6:	1c 22       	and	r1, r28
    6fb8:	1a 18       	sub	r1, r10
    6fba:	29 01       	movw	r4, r18
    6fbc:	16 22       	and	r1, r22
    6fbe:	29 0d       	add	r18, r9
    6fc0:	22 1c       	adc	r2, r2
    6fc2:	31 0d       	add	r19, r1
    6fc4:	16 36       	cpi	r17, 0x66	; 102
    6fc6:	1c 29       	or	r17, r12
    6fc8:	09 1f       	adc	r16, r25

00006fca <_FigRomEdIns_1>:
    6fca:	03 2e       	mov	r0, r19

00006fcc <_FigRomDotline>:
    6fcc:	1a 13       	cpse	r17, r26

00006fce <_FigRomDotline_1>:
    6fce:	1c 13       	cpse	r17, r28
    6fd0:	1a 13       	cpse	r17, r26
    6fd2:	15 14       	cp	r1, r5
    6fd4:	13 29       	or	r17, r3
    6fd6:	13 f5       	brvc	.+68     	; 0x701c <_FigRomDotline_3+0xe>
    6fd8:	6a 11       	cpse	r22, r10
    6fda:	1b 13       	cpse	r17, r27
    6fdc:	04 05       	cpc	r16, r4
    6fde:	1a 1a       	sub	r1, r26
    6fe0:	12 36       	cpi	r17, 0x62	; 98

00006fe2 <_FigRomDotline_2>:
    6fe2:	2c 19       	sub	r18, r12
    6fe4:	16 1b       	sub	r17, r22
    6fe6:	12 16       	cp	r1, r18
    6fe8:	1b 11       	cpse	r17, r11
    6fea:	18 11       	cpse	r17, r8
    6fec:	16 11       	cpse	r17, r6
    6fee:	22 1a       	sub	r2, r18
    6ff0:	14 1a       	sub	r1, r20
    6ff2:	29 15       	cp	r18, r9
    6ff4:	2f 52       	subi	r18, 0x2F	; 47
    6ff6:	63 0d       	add	r22, r3
    6ff8:	04 d5       	rcall	.+2568   	; 0x7a02 <_FigRomD0Lt+0x3>
    6ffa:	1b 03       	fmul	r17, r19
    6ffc:	11 1c       	adc	r1, r1
    6ffe:	29 13       	cpse	r18, r25
    7000:	77 6b       	ori	r23, 0xB7	; 183
    7002:	13 12       	cpse	r1, r19
    7004:	14 0c       	add	r1, r4
    7006:	04 07       	cpc	r16, r20
    7008:	1b 2c       	mov	r1, r11
    700a:	19 16       	cp	r1, r25
    700c:	1b 22       	and	r1, r27

0000700e <_FigRomDotline_3>:
    700e:	1c 29       	or	r17, r12
    7010:	15 22       	and	r1, r21
    7012:	15 42       	sbci	r17, 0x25	; 37
    7014:	1a 18       	sub	r1, r10
    7016:	15 0c       	add	r1, r5
    7018:	04 0f       	add	r16, r20
    701a:	1a 2c       	mov	r1, r10
    701c:	19 42       	sbci	r17, 0x29	; 41
    701e:	12 16       	cp	r1, r18
    7020:	12 18       	sub	r1, r2
    7022:	29 13       	cpse	r18, r25
    7024:	16 2c       	mov	r1, r6
    7026:	20 30       	cpi	r18, 0x00	; 0

00007028 <_FigRomDotline_4>:
    7028:	11 03       	mulsu	r17, r17
    702a:	2e 29       	or	r18, r14

0000702b <_FigRomEdRefresh>:
    702b:	29 01       	movw	r4, r18
    702d:	22 29       	or	r18, r2
    702f:	0f 29       	or	r16, r15
    7031:	11 29       	or	r17, r1
    7033:	0b 42       	sbci	r16, 0x2B	; 43
    7035:	d6 6e       	ori	r29, 0xE6	; 230
    7037:	29 0b       	sbc	r18, r25
    7039:	18 13       	cpse	r17, r24
    703b:	05 19       	sub	r16, r5

0000703d <_FigRomEdRefresh_2>:
    703d:	1a 1c       	adc	r1, r10
    703f:	2c 01       	movw	r4, r24
    7041:	1b 2c       	mov	r1, r11
    7043:	0d b0       	in	r0, 0x0d	; 13
    7045:	66 1b       	sub	r22, r22
    7047:	42 11       	cpse	r20, r2
    7049:	cc 6f       	ori	r28, 0xFC	; 252
    704b:	13 1b       	sub	r17, r19
    704d:	1c 1e       	adc	r1, r28
    704f:	2c 0d       	add	r18, r12
    7051:	14 42       	sbci	r17, 0x24	; 36
    7053:	42 1b       	sub	r20, r18

00007055 <_FigRomEdRefresh_1>:
    7055:	1a 1e       	adc	r1, r26
    7057:	14 12       	cpse	r1, r20
    7059:	29 15       	cp	r18, r9
    705b:	2f 52       	subi	r18, 0x2F	; 47
    705d:	63 0d       	add	r22, r3
    705f:	04 dd       	rcall	.-1528   	; 0x6a69 <_FigRomPause_1+0x8>
    7061:	03 03       	mulsu	r16, r19
    7063:	11 29       	or	r17, r1
    7065:	15 1a       	sub	r1, r21
    7067:	52 63       	ori	r21, 0x32	; 50
    7069:	04 11       	cpse	r16, r4
    706b:	13 29       	or	r17, r3
    706d:	0f 12       	cpse	r0, r31
    706f:	29 11       	cpse	r18, r9
    7071:	16 29       	or	r17, r6
    7073:	13 29       	or	r17, r3
    7075:	15 11       	cpse	r17, r5
    7077:	42 02       	muls	r20, r18
    7079:	6f 2b       	or	r22, r31

0000707b <_FigRomEdRefresh_3>:
    707b:	03 2e       	mov	r0, r19

0000707d <_FigRomEdKey>:
    707d:	29 17       	cp	r18, r25
    707f:	29 0f       	add	r18, r25
    7081:	29 05       	cpc	r18, r9
    7083:	16 29       	or	r17, r6
    7085:	11 29       	or	r17, r1
    7087:	07 16       	cp	r0, r23
    7089:	d6 6e       	ori	r29, 0xE6	; 230

0000708b <_FigRomCurKey>:
    708b:	1c 13       	cpse	r17, r28
    708d:	24 1b       	sub	r18, r20
    708f:	05 62       	ori	r16, 0x25	; 37
    7091:	26 1c       	adc	r2, r6

00007092 <_FigRomCurKey_1>:
    7092:	1c 05       	cpc	r17, r12
    7094:	62 26       	eor	r6, r18
    7096:	42 15       	cp	r20, r2
    7098:	04 10       	cpse	r0, r4
    709a:	da 60       	ori	r29, 0x0A	; 10
    709c:	14 04       	cpc	r1, r4
    709e:	08 12       	cpse	r0, r24
    70a0:	24 2c       	mov	r2, r4
    70a2:	80 0e       	add	r8, r16
    70a4:	12 25       	eor	r17, r2

000070a6 <_FigRomCurKey_3>:
    70a6:	2c 32       	cpi	r18, 0x2C	; 44
    70a8:	16 1a       	sub	r1, r22

000070a9 <_FigRomCurKey_2>:
    70a9:	1a 02       	muls	r17, r26
    70ab:	74 63       	ori	r23, 0x34	; 52
    70ad:	04 e4       	ldi	r16, 0x44	; 68
    70af:	1b 03       	fmul	r17, r19
    70b1:	1b 03       	fmul	r17, r19
    70b3:	1b 11       	cpse	r17, r11
    70b5:	da 60       	ori	r29, 0x0A	; 10
    70b7:	14 04       	cpc	r1, r4
    70b9:	03 25       	eor	r16, r3
    70bb:	2e 03       	fmul	r18, r22

000070bc <_FigRomCurKey_4>:
    70bc:	03 03       	mulsu	r16, r19
    70be:	2e 2f       	mov	r18, r30

000070bf <_FigRomBounds>:
    70bf:	2f 1a       	sub	r2, r31
    70c1:	f5 6a       	ori	r31, 0xA5	; 165
    70c3:	2b 05       	cpc	r18, r11
    70c5:	6b 1b       	sub	r22, r27
    70c7:	1a 42       	sbci	r17, 0x2A	; 42
    70c9:	2e 31       	cpi	r18, 0x1E	; 30

000070ca <_FigRomUdlrBounds>:
    70ca:	31 05       	cpc	r19, r1
    70cc:	31 09       	sbc	r19, r1
    70ce:	29 07       	cpc	r18, r25
    70d0:	16 29       	or	r17, r6
    70d2:	15 bf       	out	0x35, r17	; 53
    70d4:	70 1c       	adc	r7, r0
    70d6:	29 0b       	sbc	r18, r25
    70d8:	16 31       	cpi	r17, 0x16	; 22
    70da:	0b 1b       	sub	r16, r27
    70dc:	31 07       	cpc	r19, r17
    70de:	2e 29       	or	r18, r14

000070df <_FigRomEdUD>:
    70df:	29 09       	sbc	r18, r9
    70e1:	29 05       	cpc	r18, r9
    70e3:	36 6f       	ori	r19, 0xF6	; 246
    70e5:	ca 70       	andi	r28, 0x0A	; 10
    70e7:	2e 29       	or	r18, r14

000070e8 <_FigRomEdLR>:
    70e8:	29 09       	sbc	r18, r9
    70ea:	1a 1a       	sub	r1, r26
    70ec:	23 6f       	ori	r18, 0xF3	; 243
    70ee:	1c 04       	cpc	r1, r12
    70f0:	2f 2c       	mov	r2, r15
    70f2:	0d 14       	cp	r0, r13
    70f4:	42 04       	cpc	r4, r2
    70f6:	14 1a       	sub	r1, r20
    70f8:	16 1b       	sub	r17, r22
    70fa:	15 04       	cpc	r1, r5
    70fc:	09 1c       	adc	r0, r9
    70fe:	28 6f       	ori	r18, 0xF8	; 248
    7100:	01 ff       	sbrs	r16, 1
    7102:	ff 05       	cpc	r31, r15
    7104:	04 2b       	or	r16, r20

00007105 <_FigRomEdLR_3>:
    7105:	2b 2c       	mov	r2, r11
    7107:	01 05       	cpc	r16, r1

00007108 <_FigRomEdLR_4>:
    7108:	05 0f       	add	r16, r21

0000710a <_FigRomEdLR_2>:
    710a:	1a 16       	cp	r1, r26
    710c:	1b 29       	or	r17, r11
    710e:	05 16       	cp	r0, r21
    7110:	29 13       	cpse	r18, r25
    7112:	16 2b       	or	r17, r22
    7114:	29 13       	cpse	r18, r25
    7116:	0b 2f       	mov	r16, r27

00007118 <_FigRomEdLR_5>:
    7118:	5d 63       	ori	r21, 0x3D	; 61
    711a:	5d 63       	ori	r21, 0x3D	; 61
    711c:	ca 70       	andi	r28, 0x0A	; 10
    711e:	2e 03       	fmul	r18, r22

0000711f <_FigRomEdLR_1>:
    711f:	03 03       	mulsu	r16, r19
    7121:	03 2b       	or	r16, r19
    7123:	2e ac       	sts	0xae, r18

00007124 <_FigRomEdDoDispKey>:
    7124:	ac 6f       	ori	r26, 0xFC	; 252
    7126:	2c 01       	movw	r4, r24
    7128:	e8 70       	andi	r30, 0x08	; 8
    712a:	03 2c       	mov	r0, r3
    712c:	01 2e       	mov	r0, r17

0000712e <_FigRomEdDel>:
    712e:	29 09       	sbc	r18, r9
    7130:	2f 29       	or	r18, r15
    7132:	01 42       	sbci	r16, 0x21	; 33
    7134:	1c 04       	cpc	r1, r12
    7136:	19 13       	cpse	r17, r25
    7138:	29 09       	sbc	r18, r9
    713a:	1c 2f       	mov	r17, r28
    713c:	29 0d       	add	r18, r9
    713e:	11 42       	sbci	r17, 0x21	; 33
    7140:	22 01       	movw	r4, r4
    7142:	ff ff       	.word	0xffff	; ????
    7144:	e8 70       	andi	r30, 0x08	; 8
    7146:	03 36       	cpi	r16, 0x63	; 99
    7148:	29 0d       	add	r18, r9
    714a:	2f 31       	cpi	r18, 0x1F	; 31
    714c:	0d 2c       	mov	r0, r13
    714e:	01 2e       	mov	r0, r17

0000714f <_FigRomEdDel_1>:
    714f:	2e 29       	or	r18, r14

00007150 <_FigRomEdMark>:
    7150:	29 09       	sbc	r18, r9
    7152:	b7 72       	andi	r27, 0x27	; 39
    7154:	2b 2e       	mov	r2, r27

00007156 <_FigRomEdCopy>:
    7156:	2b 79       	andi	r18, 0x9B	; 155
    7158:	62 1d       	adc	r22, r2
    715a:	1c 22       	and	r1, r28
    715c:	1b 1e       	adc	r1, r27
    715e:	14 14       	cp	r1, r4
    7160:	0c 04       	cpc	r0, r12
    7162:	13 03       	mulsu	r17, r19
    7164:	79 62       	ori	r23, 0x29	; 41
    7166:	1d 1c       	adc	r1, r13
    7168:	1c 29       	or	r17, r12
    716a:	09 15       	cp	r16, r9
    716c:	42 16       	cp	r4, r18
    716e:	22 22       	and	r2, r18
    7170:	b7 72       	andi	r27, 0x27	; 39
    7172:	1e 24       	eor	r1, r14
    7174:	71 2e       	mov	r7, r17

00007175 <_FigRomEdCopy_1>:
    7175:	2e 2c       	mov	r2, r14

00007176 <_FigRomEdDoFn>:
    7176:	2c 07       	cpc	r18, r28
    7178:	54 6c       	ori	r21, 0xC4	; 196
    717a:	80 71       	andi	r24, 0x10	; 16
    717c:	2e 71       	andi	r18, 0x1E	; 30
    717e:	05 6c       	ori	r16, 0xC5	; 197

00007180 <_FigRomEdDoFn_2>:
    7180:	2c 08       	sbc	r2, r12
    7182:	54 6c       	ori	r21, 0xC4	; 196
    7184:	8d 71       	andi	r24, 0x1D	; 29
    7186:	01 ff       	sbrs	r16, 1
    7188:	ff e8       	ldi	r31, 0x8F	; 143
    718a:	70 05       	cpc	r23, r0
    718c:	5f 2c       	mov	r5, r15

0000718d <_FigRomEdDoFn_3>:
    718d:	2c 09       	sbc	r18, r12
    718f:	54 6c       	ori	r21, 0xC4	; 196
    7191:	99 71       	andi	r25, 0x19	; 25
    7193:	2c 01       	movw	r4, r24
    7195:	e8 70       	andi	r30, 0x08	; 8
    7197:	05 53       	subi	r16, 0x35	; 53

00007199 <_FigRomEdDoFn_4>:
    7199:	2c 0a       	sbc	r2, r28
    719b:	54 6c       	ori	r21, 0xC4	; 196
    719d:	a5 71       	andi	r26, 0x15	; 21
    719f:	2c 01       	movw	r4, r24
    71a1:	df 70       	andi	r29, 0x0F	; 15
    71a3:	05 47       	sbci	r16, 0x75	; 117

000071a5 <_FigRomEdDoFn_5>:
    71a5:	2c 0b       	sbc	r18, r28
    71a7:	54 6c       	ori	r21, 0xC4	; 196
    71a9:	b2 71       	andi	r27, 0x12	; 18
    71ab:	01 ff       	sbrs	r16, 1
    71ad:	ff df       	rcall	.-2      	; 0x71ad <_FigRomEdDoFn_5+0x8>
    71af:	70 05       	cpc	r23, r0
    71b1:	3a 2c       	mov	r3, r10

000071b2 <_FigRomEdDoFn_6>:
    71b2:	2c 0d       	add	r18, r12
    71b4:	54 6c       	ori	r21, 0xC4	; 196
    71b6:	be 71       	andi	r27, 0x1E	; 30
    71b8:	2c 0d       	add	r18, r12
    71ba:	24 71       	andi	r18, 0x14	; 20
    71bc:	05 2e       	mov	r0, r21

000071be <_FigRomEdDoFn_7>:
    71be:	2c cd       	rjmp	.-1448   	; 0x6c18 <_FigRomBegin+0x3>
    71c0:	54 6c       	ori	r21, 0xC4	; 196
    71c2:	c8 71       	andi	r28, 0x18	; 24
    71c4:	50 71       	andi	r21, 0x10	; 16
    71c6:	05 24       	eor	r0, r5

000071c8 <_FigRomEdDoFn_8>:
    71c8:	2c c3       	rjmp	.+1624   	; 0x7822 <_FSwapAB+0xc>
    71ca:	54 6c       	ori	r21, 0xC4	; 196
    71cc:	d2 71       	andi	r29, 0x12	; 18
    71ce:	56 71       	andi	r21, 0x16	; 22
    71d0:	05 1a       	sub	r0, r21

000071d2 <_FigRomEdDoFn_9>:
    71d2:	2c ab       	sts	0x5c, r18
    71d4:	54 6c       	ori	r21, 0xC4	; 196
    71d6:	df 71       	andi	r29, 0x1F	; 31
    71d8:	03 2c       	mov	r0, r3
    71da:	8d 2c       	mov	r8, r13
    71dc:	01 05       	cpc	r16, r1
    71de:	0d 2c       	mov	r0, r13

000071df <_FigRomEdDoFn_10>:
    71df:	2c a0       	lds	r18, 0x8c
    71e1:	54 6c       	ori	r21, 0xC4	; 196
    71e3:	e9 71       	andi	r30, 0x19	; 25
    71e5:	2c 01       	movw	r4, r24
    71e7:	05 03       	mulsu	r16, r21

000071e9 <_FigRomEdDoFn_11>:
    71e9:	03 2b       	or	r16, r19

000071eb <_FigRomEdDoFn_1>:
    71eb:	2e 1c       	adc	r2, r14

000071ec <_FigRomEdDoKey>:
    71ec:	1c 2c       	mov	r1, r12
    71ee:	0f 52       	subi	r16, 0x2F	; 47
    71f0:	63 1a       	sub	r6, r19
    71f2:	2c 80       	ldd	r2, Y+4	; 0x04
    71f4:	15 42       	sbci	r17, 0x25	; 37
    71f6:	0c 04       	cpc	r0, r12
    71f8:	05 24       	eor	r0, r5
    71fa:	71 05       	cpc	r23, r1
    71fc:	03 76       	andi	r16, 0x63	; 99

000071fd <_FigRomEdDoKey_1>:
    71fd:	76 71       	andi	r23, 0x16	; 22

000071ff <_FigRomEdDoKey_2>:
    71ff:	2e 04       	cpc	r2, r14

00007200 <_FigRomEd>:
    7200:	04 03       	mulsu	r16, r20
    7202:	2b 70       	andi	r18, 0x0B	; 11

00007204 <_FigRomEd_2>:
    7204:	7d 70       	andi	r23, 0x0D	; 13
    7206:	1c ec       	ldi	r17, 0xCC	; 204
    7208:	71 1b       	sub	r23, r17
    720a:	2c 8d       	ldd	r18, Y+28	; 0x1c
    720c:	14 42       	sbci	r17, 0x24	; 36
    720e:	04 f1       	brlt	.+64     	; 0x7250 <_FigRomEditDoCmd+0x8>
    7210:	2e 1c       	adc	r2, r14

00007211 <_FigRomEditAltGr>:
    7211:	1c 2c       	mov	r1, r12
    7213:	2f 52       	subi	r18, 0x2F	; 47
    7215:	63 1a       	sub	r6, r19
    7217:	2c 38       	cpi	r18, 0x8C	; 140
    7219:	15 42       	sbci	r17, 0x25	; 37
    721b:	0c 04       	cpc	r0, r12
    721d:	0f 2c       	mov	r0, r15
    721f:	30 42       	sbci	r19, 0x20	; 32
    7221:	29 09       	sbc	r18, r9
    7223:	1e 2c       	mov	r1, r14
    7225:	03 33       	cpi	r16, 0x33	; 51
    7227:	0d 29       	or	r16, r13
    7229:	09 1f       	adc	r16, r25
    722b:	2b 03       	fmul	r18, r19

0000722c <_FigRomEditAltGr_1>:
    722c:	03 2e       	mov	r0, r19

0000722e <_FigRomEdReset>:
    722e:	01 bb       	out	0x11, r16	; 17
    7230:	6e 01       	movw	r12, r28
    7232:	12 01       	movw	r2, r4
    7234:	26 2c       	mov	r2, r6
    7236:	05 16       	cp	r0, r21
    7238:	2c 14       	cp	r2, r12
    723a:	36 31       	cpi	r19, 0x16	; 22
    723c:	03 1c       	adc	r0, r3
    723e:	31 01       	movw	r6, r2
    7240:	22 31       	cpi	r18, 0x12	; 18
    7242:	09 2e       	mov	r0, r25

00007244 <_FigRomLenToblks>:
    7244:	2c 09       	sbc	r18, r12
    7246:	32 2e       	mov	r3, r18

00007248 <_FigRomEditDoCmd>:
    7248:	2c 12       	cpse	r2, r28
    724a:	2c 13       	cpse	r18, r28
    724c:	1a 1a       	sub	r1, r26
    724e:	2d 2c       	mov	r2, r13
    7250:	07 4c       	sbci	r16, 0xC7	; 199
    7252:	61 2d       	mov	r22, r1
    7254:	70 61       	ori	r23, 0x10	; 16
    7256:	43 6d       	ori	r20, 0xD3	; 211
    7258:	64 3f       	cpi	r22, 0xF4	; 244
    725a:	00 a4       	lds	r16, 0xa0
    725c:	60 1c       	adc	r6, r0
    725e:	28 2c       	mov	r2, r8
    7260:	77 54       	subi	r23, 0x47	; 71
    7262:	6c 7a       	andi	r22, 0xAC	; 172
    7264:	72 e9       	ldi	r23, 0x92	; 146
    7266:	60 29       	or	r22, r0
    7268:	19 29       	or	r17, r9
    726a:	01 22       	and	r0, r17
    726c:	29 0d       	add	r18, r9
    726e:	01 ff       	sbrs	r16, 1
    7270:	01 16       	cp	r0, r17
    7272:	44 72       	andi	r20, 0x24	; 36
    7274:	d7 77       	andi	r29, 0x77	; 119
    7276:	03 2b       	or	r16, r19
    7278:	05 35       	cpi	r16, 0x55	; 85

0000727a <_FigRomEditDoCmd_2>:
    727a:	2c 24       	eor	r2, r12
    727c:	54 6c       	ori	r21, 0xC4	; 196
    727e:	93 72       	andi	r25, 0x23	; 35
    7280:	2c 12       	cpse	r2, r28
    7282:	2c 13       	cpse	r18, r28
    7284:	2d 70       	andi	r18, 0x0D	; 13
    7286:	61 28       	or	r6, r1
    7288:	53 68       	ori	r21, 0x83	; 131
    728a:	65 6c       	ori	r22, 0xC5	; 197
    728c:	6c 29       	or	r22, r12
    728e:	00 c9       	rjmp	.-3584   	; 0x6490 <_FigRomStackEmptyMsg+0x6>
    7290:	69 05       	cpc	r22, r9
    7292:	1c 2c       	mov	r1, r12

00007293 <_FigRomEditDoCmd_3>:
    7293:	2c 7a       	andi	r18, 0xAC	; 172
    7295:	54 6c       	ori	r21, 0xC4	; 196
    7297:	ac 72       	andi	r26, 0x2C	; 44
    7299:	2b 29       	or	r18, r11
    729b:	01 22       	and	r0, r17
    729d:	1c 31       	cpi	r17, 0x1C	; 28
    729f:	09 1f       	adc	r16, r25
    72a1:	2b 31       	cpi	r18, 0x1B	; 27
    72a3:	0d 2b       	or	r16, r29
    72a5:	31 05       	cpc	r19, r1
    72a7:	2b 31       	cpi	r18, 0x1B	; 27
    72a9:	07 05       	cpc	r16, r7
    72ab:	03 11       	cpse	r16, r3

000072ac <_FigRomEditDoCmd_4>:
    72ac:	11 72       	andi	r17, 0x21	; 33

000072ae <_FigRomEditDoCmd_1>:
    72ae:	2e f9       	.word	0xf92e	; ????
    72b0:	6e 00       	.word	0x006e	; ????
    72b2:	6d 61       	ori	r22, 0x1D	; 29
    72b4:	72 6b       	ori	r23, 0xB2	; 178
	...

000072b7 <_FigRomMark>:
    72b7:	79 62       	ori	r23, 0x29	; 41
    72b9:	20 2e       	mov	r2, r16

000072bb <_FigRomEditMore>:
    72bb:	bf 6d       	ori	r27, 0xDF	; 223
    72bd:	04 03       	mulsu	r16, r20
    72bf:	11 11       	cpse	r17, r1

000072c1 <_FigRomEditMore_1>:
    72c1:	2e f9       	.word	0xf92e	; ????

000072c2 <_FigRomClrQueryBox>:
    72c2:	f9 61       	ori	r31, 0x19	; 25
    72c4:	01 f4       	brne	.+0      	; 0x72c6 <_FigRomClrQueryBox+0x4>
    72c6:	01 16       	cp	r0, r17
    72c8:	01 64       	ori	r16, 0x41	; 65
    72ca:	00 2c       	mov	r0, r0
    72cc:	20 30       	cpi	r18, 0x00	; 0
    72ce:	2b 2c       	mov	r2, r11
    72d0:	14 2d       	mov	r17, r4
    72d2:	2e bc       	out	0x2e, r2	; 46

000072d3 <_FigRomEditKeyVec>:
    72d3:	bc 60       	ori	r27, 0x0C	; 12
    72d5:	1c 04       	cpc	r1, r12
    72d7:	5f 1c       	adc	r5, r15
    72d9:	2c 11       	cpse	r18, r12
    72db:	15 42       	sbci	r17, 0x25	; 37
    72dd:	1a 2c       	mov	r1, r10
    72df:	20 14       	cp	r2, r0
    72e1:	42 0d       	add	r20, r2
    72e3:	04 0c       	add	r0, r4
    72e5:	29 1b       	sub	r18, r25
    72e7:	04 03       	mulsu	r16, r20
    72e9:	c2 72       	andi	r28, 0x22	; 34

000072eb <_FigRomEditKeyVec_3>:
    72eb:	2b 31       	cpi	r18, 0x1B	; 27
    72ed:	1b 05       	cpc	r17, r11
    72ef:	47 1c       	adc	r4, r7

000072f0 <_FigRomEditKeyVec_2>:
    72f0:	1c 2c       	mov	r1, r12
    72f2:	a0 14       	cp	r10, r0
    72f4:	42 04       	cpc	r4, r2
    72f6:	25 29       	or	r18, r5
    72f8:	1b 04       	cpc	r1, r11
    72fa:	1b f9       	.word	0xf91b	; ????
    72fc:	61 01       	movw	r12, r2
    72fe:	f3 01       	movw	r30, r6
    7300:	16 29       	or	r17, r6
    7302:	1b 16       	cp	r1, r27
    7304:	12 63       	ori	r17, 0x32	; 50
    7306:	42 22       	and	r4, r18

00007307 <_FigRomEditKeyVec_7>:
    7307:	22 1c       	adc	r2, r2
    7309:	24 1c       	adc	r2, r4
    730b:	24 71       	andi	r18, 0x14	; 20
    730d:	03 2c       	mov	r0, r3
    730f:	20 14       	cp	r2, r0
    7311:	42 04       	cpc	r4, r2
    7313:	f4 03       	fmuls	r23, r20

00007315 <_FigRomEditKeyVec_6>:
    7315:	12 63       	ori	r17, 0x32	; 50
    7317:	31 1b       	sub	r19, r17
    7319:	05 1c       	adc	r0, r5

0000731b <_FigRomEditKeyVec_5>:
    731b:	29 1b       	sub	r18, r25
    731d:	04 18       	sub	r0, r4
    731f:	29 1b       	sub	r18, r25
    7321:	1a 1a       	sub	r1, r26
    7323:	1f 2b       	or	r17, r31
    7325:	1a 22       	and	r1, r26
    7327:	1f 22       	and	r1, r31
    7329:	31 1b       	sub	r19, r17
    732b:	c2 72       	andi	r28, 0x22	; 34
    732d:	12 63       	ori	r17, 0x32	; 50
    732f:	f3 62       	ori	r31, 0x23	; 35
    7331:	01 bb       	out	0x11, r16	; 17
    7333:	72 e7       	ldi	r23, 0x72	; 114
    7335:	6d 2e       	mov	r6, r29

00007336 <_FigRomEditKeyVec_1>:
    7336:	2e af       	sts	0x7e, r18
    7338:	72 00       	.word	0x0072	; ????
    733a:	65 64       	ori	r22, 0x45	; 69
    733c:	69 74       	andi	r22, 0x49	; 73
	...

0000733f <_FigRomEdit>:
    733f:	2c 1c       	adc	r2, r12
    7341:	37 60       	ori	r19, 0x07	; 7
    7343:	83 62       	ori	r24, 0x23	; 35
    7345:	1d 12       	cpse	r1, r29
    7347:	63 42       	sbci	r22, 0x23	; 35
    7349:	01 42       	sbci	r16, 0x21	; 33
    734b:	01 42       	sbci	r16, 0x21	; 33
    734d:	20 74       	andi	r18, 0x40	; 64
    734f:	18 0c       	add	r1, r8
    7351:	1c 90       	ld	r1, X
    7353:	69 1b       	sub	r22, r25
    7355:	2c 02       	muls	r18, r28
    7357:	42 2e       	mov	r4, r18
    7359:	72 29       	or	r23, r2
    735b:	01 2b       	or	r16, r17
    735d:	1a 20       	and	r1, r10
    735f:	01 d3       	rcall	.+1538   	; 0x7963 <_FMul+0x3>
    7361:	72 31       	cpi	r23, 0x12	; 18
    7363:	17 2b       	or	r17, r23
    7365:	31 1b       	sub	r19, r17
    7367:	1a de       	rcall	.-972    	; 0x6f9d <_FigRomCurUD_4+0x7>
    7369:	6a 31       	cpi	r22, 0x1A	; 26
    736b:	19 22       	and	r1, r25
    736d:	29 03       	fmul	r18, r17
    736f:	44 72       	andi	r20, 0x24	; 36
    7371:	9e 77       	andi	r25, 0x7E	; 126
    7373:	03 2b       	or	r16, r19
    7375:	29 01       	movw	r4, r18
    7377:	29 03       	fmul	r18, r17
    7379:	16 22       	and	r1, r22
    737b:	1f 29       	or	r17, r15
    737d:	09 1c       	adc	r0, r9
    737f:	1e 2c       	mov	r1, r14
    7381:	ff 14       	cp	r15, r15
    7383:	42 04       	cpc	r4, r2
    7385:	05 2b       	or	r16, r21
    7387:	29 01       	movw	r4, r18
    7389:	20 cf       	rjmp	.-448    	; 0x71cb <_FigRomEdDoFn_8+0x3>

0000738a <_FigRomEdit_1>:
    738a:	cf 66       	ori	r28, 0x6F	; 111
    738c:	31 0d       	add	r19, r1

0000738e <_FigRomEdit_2>:
    738e:	2b 2c       	mov	r2, r11
    7390:	13 2d       	mov	r17, r3
    7392:	70 61       	ori	r23, 0x10	; 16
    7394:	42 6c       	ori	r20, 0xC2	; 194
    7396:	6b 3a       	cpi	r22, 0xAB	; 171
    7398:	20 00       	.word	0x0020	; ????
    739a:	29 19       	sub	r18, r9
    739c:	2c 04       	cpc	r2, r12
    739e:	0f 6d       	ori	r16, 0xDF	; 223
    73a0:	3e 61       	ori	r19, 0x1E	; 30
    73a2:	70 61       	ori	r23, 0x10	; 16
    73a4:	4c 65       	ori	r20, 0x5C	; 92
    73a6:	6e 3a       	cpi	r22, 0xAE	; 174
    73a8:	00 29       	or	r16, r0
    73aa:	0d 2c       	mov	r0, r13
    73ac:	05 0f       	add	r16, r21
    73ae:	6d 2c       	mov	r6, r13
    73b0:	2f 28       	or	r2, r15
    73b2:	29 03       	fmul	r18, r17
    73b4:	2c 05       	cpc	r18, r12
    73b6:	0f 6d       	ori	r16, 0xDF	; 223
    73b8:	2c 01       	movw	r4, r24
    73ba:	00 72       	andi	r16, 0x20	; 32
    73bc:	1c 04       	cpc	r1, r12
    73be:	03 48       	sbci	r16, 0x83	; 131
    73c0:	72 14       	cp	r7, r2

000073c1 <_FigRomEdit_3>:
    73c1:	14 04       	cpc	r1, r4
    73c3:	cb 29       	or	r28, r11
    73c5:	01 ae       	sts	0xb1, r16
    73c7:	69 4e       	sbci	r22, 0xE9	; 233
    73c9:	60 37       	cpi	r22, 0x70	; 112
    73cb:	73 00       	.word	0x0073	; ????
    73cd:	62 6f       	ori	r22, 0xF2	; 242
    73cf:	78 65       	ori	r23, 0x58	; 88
    73d1:	64 00       	.word	0x0064	; ????

000073d3 <_FigRomBoxed>:
    73d3:	2c 18       	sub	r2, r12
    73d5:	37 60       	ori	r19, 0x07	; 7
    73d7:	13 13       	cpse	r17, r19
    73d9:	1a cf       	rjmp	.-460    	; 0x720f <_FigRomEd_2+0xb>
    73db:	66 13       	cpse	r22, r22
    73dd:	2e 72       	andi	r18, 0x2E	; 46
    73df:	11 31       	cpi	r17, 0x11	; 17
    73e1:	0d 11       	cpse	r16, r13
    73e3:	11 31       	cpi	r17, 0x11	; 17
    73e5:	15 31       	cpi	r17, 0x15	; 21
    73e7:	13 e9       	ldi	r17, 0x93	; 147
    73e9:	6e 31       	cpi	r22, 0x1E	; 30
    73eb:	11 31       	cpi	r17, 0x11	; 17
    73ed:	0f 2c       	mov	r0, r15
    73ef:	01 00       	.word	0x0001	; ????
    73f1:	72 4e       	sbci	r23, 0xE2	; 226
    73f3:	60 ca       	rjmp	.-2880   	; 0x68b5 <_FigRomLiteral+0xf>
    73f5:	73 00       	.word	0x0073	; ????
    73f7:	71 75       	andi	r23, 0x51	; 81
    73f9:	65 72       	andi	r22, 0x25	; 37
    73fb:	79 00       	.word	0x0079	; ????

000073fd <_FigRomQuery>:
    73fd:	13 e2       	ldi	r17, 0x23	; 35
    73ff:	63 e9       	ldi	r22, 0x93	; 147
    7401:	6e 2b       	or	r22, r30
    7403:	2c 14       	cp	r2, r12
    7405:	2d 11       	cpse	r18, r13
    7407:	2b 1a       	sub	r2, r27
    7409:	20 2c       	mov	r2, r0
    740b:	4f 2c       	mov	r4, r15
    740d:	19 2c       	mov	r1, r9
    740f:	04 d3       	rcall	.+1544   	; 0x7a19 <_FInt+0x1>
    7411:	73 03       	mulsu	r23, r19
    7413:	2d 2e       	mov	r2, r29
    7415:	f4 73       	andi	r31, 0x34	; 52
    7417:	00 62       	ori	r16, 0x20	; 32
    7419:	6c 6b       	ori	r22, 0xBC	; 188
    741b:	73 69       	ori	r23, 0x93	; 147
    741d:	7a 65       	ori	r23, 0x5A	; 90
	...

00007420 <_FigRomBlksize>:
    7420:	3c 00       	.word	0x003c	; ????
    7422:	02 44       	sbci	r16, 0x42	; 66

00007423 <_FigRomVDskBaseBlock>:
    7423:	44 01       	movw	r8, r8
    7425:	13 20       	and	r1, r3
    7427:	54 6c       	ori	r21, 0xC4	; 196
    7429:	30 74       	andi	r19, 0x40	; 64
    742b:	01 00       	.word	0x0001	; ????
    742d:	01 05       	cpc	r16, r1
    742f:	19 01       	movw	r2, r18

00007430 <_FigRomVDskBaseBlock_2>:
    7430:	01 13       	cpse	r16, r17
    7432:	30 54       	subi	r19, 0x40	; 64
    7434:	6c 3b       	cpi	r22, 0xBC	; 188
    7436:	74 2c       	mov	r7, r4
    7438:	80 05       	cpc	r24, r0
    743a:	0e 01       	movw	r0, r28

0000743b <_FigRomVDskBaseBlock_3>:
    743b:	01 14       	cp	r0, r1
    743d:	30 54       	subi	r19, 0x40	; 64
    743f:	6c 46       	sbci	r22, 0x6C	; 108
    7441:	74 2c       	mov	r7, r4
    7443:	80 05       	cpc	r24, r0
    7445:	03 03       	mulsu	r16, r19

00007446 <_FigRomVDskBaseBlock_4>:
    7446:	03 2b       	or	r16, r19

00007448 <_FigRomVDskBaseBlock_1>:
    7448:	2e 44       	sbci	r18, 0x4E	; 78

00007449 <_FigRomVDskEraseBlocks>:
    7449:	44 01       	movw	r8, r8
    744b:	13 20       	and	r1, r3
    744d:	54 6c       	ori	r21, 0xC4	; 196
    744f:	56 74       	andi	r21, 0x46	; 70
    7451:	01 00       	.word	0x0001	; ????
    7453:	01 05       	cpc	r16, r1
    7455:	19 01       	movw	r2, r18

00007456 <_FigRomVDskEraseBlocks_2>:
    7456:	01 13       	cpse	r16, r17
    7458:	30 54       	subi	r19, 0x40	; 64
    745a:	6c 61       	ori	r22, 0x1C	; 28
    745c:	74 2c       	mov	r7, r4
    745e:	10 05       	cpc	r17, r0
    7460:	0e 01       	movw	r0, r28

00007461 <_FigRomVDskEraseBlocks_3>:
    7461:	01 14       	cp	r0, r1
    7463:	30 54       	subi	r19, 0x40	; 64
    7465:	6c 6c       	ori	r22, 0xCC	; 204
    7467:	74 2c       	mov	r7, r4
    7469:	10 05       	cpc	r17, r0
    746b:	03 03       	mulsu	r16, r19

0000746c <_FigRomVDskEraseBlocks_4>:
    746c:	03 2b       	or	r16, r19

0000746e <_FigRomVDskEraseBlocks_1>:
    746e:	2e 44       	sbci	r18, 0x4E	; 78

0000746f <_FigRomVDskSize>:
    746f:	44 01       	movw	r8, r8
    7471:	13 20       	and	r1, r3
    7473:	54 6c       	ori	r21, 0xC4	; 196
    7475:	7c 74       	andi	r23, 0x4C	; 76
    7477:	01 00       	.word	0x0001	; ????
    7479:	08 05       	cpc	r16, r8
    747b:	1b 01       	movw	r2, r22

0000747c <_FigRomVDskSize_2>:
    747c:	01 13       	cpse	r16, r17
    747e:	30 54       	subi	r19, 0x40	; 64
    7480:	6c 88       	ldd	r6, Y+20	; 0x14
    7482:	74 01       	movw	r14, r8
    7484:	00 08       	sbc	r0, r0
    7486:	05 0f       	add	r16, r21

00007488 <_FigRomVDskSize_3>:
    7488:	01 14       	cp	r0, r1
    748a:	30 54       	subi	r19, 0x40	; 64
    748c:	6c 94 74 01 	jmp	0x1802e8	; 0x1802e8 <_UpgradeSpm+0x1782fa>
    7490:	00 10       	cpse	r0, r0
    7492:	05 03       	mulsu	r16, r21

00007494 <_FigRomVDskSize_4>:
    7494:	03 2b       	or	r16, r19

00007496 <_FigRomVDskSize_1>:
    7496:	23 74       	andi	r18, 0x43	; 67
    7498:	42 2e       	mov	r4, r18

0000749a <_FigRomVTablePageToEntry>:
    749a:	2c 01       	movw	r4, r24
    749c:	32 2e       	mov	r3, r18

0000749e <_FigRomVDskEntryToPhys>:
    749e:	01 ff       	sbrs	r16, 1
    74a0:	3f 0c       	add	r3, r15
    74a2:	16 1c       	adc	r1, r6
    74a4:	23 74       	andi	r18, 0x43	; 67
    74a6:	16 2e       	mov	r1, r22

000074a8 <_FigRomVTableEntries>:
    74a8:	6f 74       	andi	r22, 0x4F	; 79
    74aa:	9a 74       	andi	r25, 0x4A	; 74
    74ac:	2e 6f       	ori	r18, 0xFE	; 254

000074ad <_FigRomVTableNonPurgeLimit>:
    74ad:	6f 74       	andi	r22, 0x4F	; 79
    74af:	49 74       	andi	r20, 0x49	; 73
    74b1:	42 9a       	sbi	0x08, 2	; 8
    74b3:	74 2e       	mov	r7, r20

000074b5 <_FigRomVDskPhysPageForEntry>:
    74b5:	01 ff       	sbrs	r16, 1
    74b7:	3f 0c       	add	r3, r15
    74b9:	6f 74       	andi	r22, 0x4F	; 79
    74bb:	1a 1a       	sub	r1, r26
    74bd:	2f 52       	subi	r18, 0x2F	; 47
    74bf:	63 0c       	add	r6, r3
    74c1:	42 16       	cp	r4, r18
    74c3:	1c 23       	and	r17, r28
    74c5:	74 16       	cp	r7, r20
    74c7:	2e 15       	cp	r18, r14
    74c9:	74 00       	.word	0x0074	; ????
    74cb:	66 64       	ori	r22, 0x46	; 70
    74cd:	69 73       	andi	r22, 0x39	; 57
    74cf:	6b 00       	.word	0x006b	; ????

000074d1 <_FigRomFdisk>:
    74d1:	44 01       	movw	r8, r8
    74d3:	13 20       	and	r1, r3
    74d5:	42 49       	sbci	r20, 0x92	; 146
    74d7:	74 6f       	ori	r23, 0xF4	; 244
    74d9:	74 23       	and	r23, r20
    74db:	74 16       	cp	r7, r20
    74dd:	2b 08       	sbc	r2, r11

000074df <_FigRomFdisk_1>:
    74df:	1a 1a       	sub	r1, r26
    74e1:	21 2f       	mov	r18, r17
    74e3:	0c 14       	cp	r0, r12
    74e5:	0d 21       	and	r16, r13
    74e7:	14 0d       	add	r17, r4
    74e9:	21 2c       	mov	r2, r1
    74eb:	10 14       	cp	r1, r0
    74ed:	42 0d       	add	r20, r2
    74ef:	21 2c       	mov	r2, r1
    74f1:	20 14       	cp	r2, r0
    74f3:	42 0d       	add	r20, r2
    74f5:	21 2c       	mov	r2, r1
    74f7:	40 14       	cp	r4, r0
    74f9:	42 0d       	add	r20, r2
    74fb:	04 09       	sbc	r16, r4
    74fd:	2b 2c       	mov	r2, r11
    74ff:	14 2d       	mov	r17, r4
    7501:	21 2a       	or	r2, r17
    7503:	21 43       	sbci	r18, 0x31	; 49

00007505 <_FigRomFdisk_2>:
    7505:	2c 10       	cpse	r2, r12
    7507:	07 d7       	rcall	.+3598   	; 0x8317 <_UpgradeSpm+0x329>
    7509:	03 03       	mulsu	r16, r19
    750b:	2e 1a       	sub	r2, r30

0000750c <_FigRomVEntryRd>:
    750c:	1a 16       	cp	r1, r26
    750e:	16 2e       	mov	r1, r22

00007510 <_FigRomVDskEndTable>:
    7510:	a8 74       	andi	r26, 0x48	; 72
    7512:	2f 13       	cpse	r18, r31
    7514:	12 2c       	mov	r1, r2
    7516:	07 32       	cpi	r16, 0x27	; 39
    7518:	16 1a       	sub	r1, r22
    751a:	34 11       	cpse	r19, r4
    751c:	2c 7f       	andi	r18, 0xFC	; 252
    751e:	0c 1b       	sub	r16, r28
    7520:	0c 75       	andi	r16, 0x5C	; 92
    7522:	26 2e       	mov	r2, r22

00007524 <_FigRomVDskBaseTable>:
    7524:	1c 2b       	or	r17, r28
    7526:	10 75       	andi	r17, 0x50	; 80
    7528:	01 ff       	sbrs	r16, 1
    752a:	ff 14       	cp	r15, r15
    752c:	42 1b       	sub	r20, r18
    752e:	1a 04       	cpc	r1, r10
    7530:	21 a8       	sts	0x81, r18
    7532:	74 2f       	mov	r23, r20
    7534:	2f 2c       	mov	r2, r15
    7536:	7f 0c       	add	r7, r15
    7538:	1a 0c       	add	r1, r10
    753a:	75 26       	eor	r7, r21
    753c:	01 ff       	sbrs	r16, 1
    753e:	ff 42       	sbci	r31, 0x2F	; 47
    7540:	04 10       	cpse	r0, r4
    7542:	1b 03       	fmul	r17, r19
    7544:	1c 01       	movw	r2, r24
    7546:	10 00       	.word	0x0010	; ????
    7548:	10 75       	andi	r17, 0x50	; 80
    754a:	01 ff       	sbrs	r16, 1
    754c:	ff 14       	cp	r15, r15
    754e:	42 14       	cp	r4, r2
    7550:	1b 03       	fmul	r17, r19

00007551 <_FigRomVDskBaseTable_1>:
    7551:	03 2c       	mov	r0, r3
    7553:	10 0c       	add	r1, r0
    7555:	2e 01       	movw	r4, r28

00007556 <_FigRomBuff1>:
    7556:	01 00       	.word	0x0001	; ????
    7558:	01 16       	cp	r0, r17
    755a:	2e 56       	subi	r18, 0x6E	; 110

0000755b <_FigRomVPurgeEntryRd>:
    755b:	56 75       	andi	r21, 0x56	; 86
    755d:	1a 16       	cp	r1, r26
    755f:	16 26       	eor	r1, r22
    7561:	2e 1a       	sub	r2, r30

00007562 <_FigRomVDskReadVTableBlock>:
    7562:	1a 24       	eor	r1, r10
    7564:	75 04       	cpc	r7, r5
    7566:	05 01       	movw	r0, r10
    7568:	00 40       	sbci	r16, 0x00	; 0
    756a:	0e 1c       	adc	r0, r14

0000756b <_FigRomVDskReadVTableBlock_1>:
    756b:	1c 01       	movw	r2, r24
    756d:	ff 3f       	cpi	r31, 0xFF	; 255
    756f:	0c 2c       	mov	r0, r12
    7571:	07 32       	cpi	r16, 0x27	; 39
    7573:	1b 01       	movw	r2, r22
    7575:	00 40       	sbci	r16, 0x00	; 0
    7577:	0c 14       	cp	r0, r12
    7579:	14 2c       	mov	r1, r4
    757b:	10 0c       	add	r1, r0
    757d:	16 1b       	sub	r17, r22
    757f:	1a 1b       	sub	r17, r26
    7581:	34 2e       	mov	r3, r20

00007583 <_FigRomVDskFindEntryUpdate>:
    7583:	23 f8       	bld	r2, 3
    7585:	01 9e       	mul	r0, r17
    7587:	91 8e       	std	Z+25, r9	; 0x19
    7589:	91 7e       	andi	r25, 0xE1	; 225
    758b:	91 6e       	ori	r25, 0xE1	; 225
    758d:	91 11       	cpse	r25, r1
    758f:	97 4e       	sbci	r25, 0xE7	; 231
    7591:	91 5f       	subi	r25, 0xF1	; 241
    7593:	ef 21       	and	r30, r15

00007594 <VDskFindEntryUpdate10>:
    7594:	21 91       	ld	r18, Z+
    7596:	31 91       	ld	r19, Z+
    7598:	2f 3f       	cpi	r18, 0xFF	; 255
    759a:	35 07       	cpc	r19, r21
    759c:	29 f4       	brne	.+10     	; 0x75a8 <VDskFindEntryUpdate20>
    759e:	8d 3f       	cpi	r24, 0xFD	; 253
    75a0:	95 07       	cpc	r25, r21
    75a2:	41 f4       	brne	.+16     	; 0x75b4 <VDskFindEntryUpdate30>
    75a4:	0c d0       	rcall	.+24     	; 0x75be <I2Entry>
    75a6:	06 c0       	rjmp	.+12     	; 0x75b4 <VDskFindEntryUpdate30>

000075a8 <VDskFindEntryUpdate20>:
    75a8:	26 17       	cp	r18, r22
    75aa:	37 07       	cpc	r19, r23
    75ac:	09 f4       	brne	.+2      	; 0x75b0 <VDskFindEntryUpdate25>
    75ae:	07 d0       	rcall	.+14     	; 0x75be <I2Entry>

000075b0 <VDskFindEntryUpdate25>:
    75b0:	41 50       	subi	r20, 0x01	; 1
    75b2:	81 f7       	brne	.-32     	; 0x7594 <VDskFindEntryUpdate10>

000075b4 <VDskFindEntryUpdate30>:
    75b4:	14 96       	adiw	r26, 0x04	; 4
    75b6:	8d 93       	st	X+, r24
    75b8:	9d 93       	st	X+, r25
    75ba:	0c 94 67 30 	jmp	0x60ce	; 0x60ce <Rom_VMkFigExit>

000075be <I2Entry>:
    75be:	2c 91       	ld	r18, X
    75c0:	9e 91       	ld	r25, -X
    75c2:	8e 91       	ld	r24, -X
    75c4:	24 1b       	sub	r18, r20
    75c6:	82 0f       	add	r24, r18
    75c8:	91 1d       	adc	r25, r1
    75ca:	12 96       	adiw	r26, 0x02	; 2
    75cc:	08 95       	ret

000075ce <_FigRomVDskFindEntry>:
    75ce:	01 fd       	sbrc	r16, 1
    75d0:	ff 13       	cpse	r31, r31
    75d2:	13 13       	cpse	r17, r19
    75d4:	a8 74       	andi	r26, 0x48	; 72
    75d6:	2b 1a       	sub	r2, r27

000075d7 <_FigRomVDskFindEntry_1>:
    75d7:	1a 1a       	sub	r1, r26
    75d9:	01 ff       	sbrs	r16, 1
    75db:	3f 0c       	add	r3, r15
    75dd:	22 15       	cp	r18, r2
    75df:	42 04       	cpc	r4, r2
    75e1:	09 01       	movw	r0, r18
    75e3:	00 c0       	rjmp	.+0      	; 0x75e5 <_FigRomVDskFindEntry_1+0xe>
    75e5:	0c 01       	movw	r0, r24
    75e7:	00 40       	sbci	r16, 0x00	; 0
    75e9:	16 12       	cpse	r1, r22

000075ea <_FigRomVDskFindEntry_2>:
    75ea:	12 1a       	sub	r1, r18
    75ec:	62 75       	andi	r22, 0x52	; 82
    75ee:	03 1a       	sub	r0, r19
    75f0:	1a 01       	movw	r2, r20
    75f2:	ff 3f       	cpi	r31, 0xFF	; 255
    75f4:	0c 42       	sbci	r16, 0x2C	; 44
    75f6:	2c 80       	ldd	r2, Y+4	; 0x04
    75f8:	f5 6a       	ori	r31, 0xA5	; 165
    75fa:	11 11       	cpse	r17, r1
    75fc:	1b 11       	cpse	r17, r11
    75fe:	1b 83       	std	Y+3, r17	; 0x03
    7600:	75 1b       	sub	r23, r21
    7602:	13 1b       	sub	r17, r19
    7604:	13 13       	cpse	r17, r19
    7606:	1b 1a       	sub	r1, r27
    7608:	16 1b       	sub	r17, r22
    760a:	2f 16       	cp	r2, r31
    760c:	1c 12       	cpse	r1, r28
    760e:	16 26       	eor	r1, r22
    7610:	01 ff       	sbrs	r16, 1
    7612:	ff 14       	cp	r15, r15
    7614:	42 1a       	sub	r4, r18
    7616:	01 00       	.word	0x0001	; ????
    7618:	80 7f       	andi	r24, 0xF0	; 240
    761a:	63 14       	cp	r6, r3
    761c:	0d 04       	cpc	r0, r13
    761e:	b9 03       	fmulsu	r19, r17
    7620:	03 11       	cpse	r16, r3
    7622:	03 11       	cpse	r16, r3
    7624:	03 11       	cpse	r16, r3
    7626:	2e ce       	rjmp	.-932    	; 0x7284 <_FigRomEditDoCmd_2+0xa>

00007627 <_FigRomVDskFind>:
    7627:	ce 75       	andi	r28, 0x5E	; 94
    7629:	9e 74       	andi	r25, 0x4E	; 78
    762b:	2e 1c       	adc	r2, r14

0000762c <_FigRomVDskRead>:
    762c:	1c 01       	movw	r2, r24
    762e:	00 40       	sbci	r16, 0x00	; 0
    7630:	0c 04       	cpc	r0, r12
    7632:	07 01       	movw	r0, r14
    7634:	ff 3f       	cpi	r31, 0xFF	; 255
    7636:	0c 05       	cpc	r16, r12
    7638:	0c 1a       	sub	r0, r28

00007639 <_FigRomVDskRead_1>:
    7639:	1a 1b       	sub	r17, r26
    763b:	27 76       	andi	r18, 0x67	; 103
    763d:	1a 56       	subi	r17, 0x6A	; 106
    763f:	75 1a       	sub	r7, r21
    7641:	22 1b       	sub	r18, r18
    7643:	34 1b       	sub	r19, r20

00007644 <_FigRomVDskRead_2>:
    7644:	1b 1a       	sub	r1, r27
    7646:	1b 34       	cpi	r17, 0x4B	; 75
    7648:	2e 1c       	adc	r2, r14

00007649 <_FigRomVDskNeedsPurge>:
    7649:	1c ad       	sts	0x6c, r17
    764b:	74 7f       	andi	r23, 0xF4	; 244
    764d:	63 14       	cp	r6, r3
    764f:	1b 49       	sbci	r17, 0x9B	; 155
    7651:	74 2f       	mov	r23, r20
    7653:	9a 74       	andi	r25, 0x4A	; 74
    7655:	0c 14       	cp	r0, r12
    7657:	0c 2e       	mov	r0, r28

00007659 <_FigRomVDskPrepWrite>:
    7659:	1a 01       	movw	r2, r20
    765b:	ff ff       	.word	0xffff	; ????
    765d:	ce 75       	andi	r28, 0x5E	; 94
    765f:	1c 6f       	ori	r17, 0xFC	; 252
    7661:	74 9a       	sbi	0x0e, 4	; 14
    7663:	74 01       	movw	r14, r8
    7665:	ff 3f       	cpi	r31, 0xFF	; 255
    7667:	16 7f       	andi	r17, 0xF6	; 246
    7669:	63 14       	cp	r6, r3
    766b:	04 0b       	sbc	r16, r20
    766d:	13 1a       	sub	r1, r19
    766f:	24 75       	andi	r18, 0x54	; 84
    7671:	43 11       	cpse	r20, r3
    7673:	01 00       	.word	0x0001	; ????
    7675:	40 0e       	add	r4, r16

00007677 <_FigRomVDskPrepWrite_1>:
    7677:	13 1a       	sub	r1, r19
    7679:	12 01       	movw	r2, r4
    767b:	7f 00       	.word	0x007f	; ????
    767d:	0c 1a       	sub	r0, r28
    767f:	0c 75       	andi	r16, 0x5C	; 92
    7681:	1b 11       	cpse	r17, r11
    7683:	62 75       	andi	r22, 0x52	; 82
    7685:	13 27       	eor	r17, r19
    7687:	11 1b       	sub	r17, r17
    7689:	35 2e       	mov	r3, r21

0000768b <_FigRomVDskPurge>:
    768b:	49 74       	andi	r20, 0x49	; 73
    768d:	9a 74       	andi	r25, 0x4A	; 74
    768f:	13 6f       	ori	r17, 0xF3	; 243
    7691:	74 9a       	sbi	0x0e, 4	; 14
    7693:	74 12       	cpse	r7, r20
    7695:	42 1a       	sub	r4, r18
    7697:	01 ff       	sbrs	r16, 1
    7699:	3f 0c       	add	r3, r15
    769b:	1a 7f       	andi	r17, 0xFA	; 250
    769d:	63 14       	cp	r6, r3
    769f:	04 06       	cpc	r0, r20
    76a1:	18 1a       	sub	r1, r24
    76a3:	16 05       	cpc	r17, r6
    76a5:	09 03       	fmul	r16, r17

000076a6 <_FigRomVDskPurge_1>:
    76a6:	03 1c       	adc	r0, r3
    76a8:	12 16       	cp	r1, r18
    76aa:	01 00       	.word	0x0001	; ????
    76ac:	40 0e       	add	r4, r16

000076ae <_FigRomVDskPurge_2>:
    76ae:	13 1a       	sub	r1, r19
    76b0:	56 75       	andi	r21, 0x56	; 86
    76b2:	11 1b       	sub	r17, r17
    76b4:	1a 62       	ori	r17, 0x2A	; 42
    76b6:	75 03       	mulsu	r23, r21
    76b8:	1b b5       	in	r17, 0x2b	; 43
    76ba:	74 1a       	sub	r7, r20
    76bc:	b5 74       	andi	r27, 0x45	; 69
    76be:	11 1b       	sub	r17, r17
    76c0:	13 1b       	sub	r17, r19
    76c2:	1a 2b       	or	r17, r26
    76c4:	08 13       	cpse	r16, r24

000076c5 <_FigRomVDskPurge_3>:
    76c5:	13 13       	cpse	r17, r19
    76c7:	1a 1a       	sub	r1, r26
    76c9:	13 12       	cpse	r1, r19
    76cb:	01 7f       	andi	r16, 0xF1	; 241
    76cd:	00 0c       	add	r0, r0
    76cf:	1a 5b       	subi	r17, 0xBA	; 186
    76d1:	75 1b       	sub	r23, r21
    76d3:	1a 1a       	sub	r1, r26
    76d5:	1b ce       	rjmp	.-970    	; 0x730d <_FigRomEditKeyVec_7+0x6>
    76d7:	75 1c       	adc	r7, r5
    76d9:	11 14       	cp	r1, r1
    76db:	42 11       	cpse	r20, r2
    76dd:	1a 0c       	add	r1, r10
    76df:	13 04       	cpc	r1, r3
    76e1:	1e 9e       	mul	r1, r30
    76e3:	74 1a       	sub	r7, r20
    76e5:	1a 1b       	sub	r17, r26
    76e7:	34 1a       	sub	r3, r20
    76e9:	11 1b       	sub	r17, r17
    76eb:	12 1b       	sub	r17, r18
    76ed:	35 13       	cpse	r19, r21
    76ef:	22 1a       	sub	r2, r18
    76f1:	34 11       	cpse	r19, r4
    76f3:	1a 12       	cpse	r1, r26
    76f5:	22 1b       	sub	r18, r18
    76f7:	35 13       	cpse	r19, r21
    76f9:	1b 59       	subi	r17, 0x9B	; 155
    76fb:	76 2b       	or	r23, r22
    76fd:	2b 2b       	or	r18, r27

000076ff <_FigRomVDskPurge_4>:
    76ff:	03 03       	mulsu	r16, r19
    7701:	03 22       	and	r0, r19
    7703:	11 11       	cpse	r17, r1
    7705:	22 22       	and	r2, r18
    7707:	06 bd       	out	0x26, r16	; 38
    7709:	11 43       	sbci	r17, 0x31	; 49
    770b:	03 1b       	sub	r16, r19
    770d:	03 1b       	sub	r16, r19
    770f:	03 2e       	mov	r0, r19

00007711 <_FigRomQuryclaimBlk>:
    7711:	8e 62       	ori	r24, 0x2E	; 46
    7713:	1d 74       	andi	r17, 0x4D	; 77
    7715:	63 14       	cp	r6, r3
    7717:	04 09       	sbc	r16, r4
    7719:	20 74       	andi	r18, 0x40	; 64
    771b:	90 69       	ori	r25, 0x90	; 144
    771d:	1c 8e       	std	Y+28, r1	; 0x1c
    771f:	62 20       	and	r6, r2

00007721 <_FigRomQuryclaimBlk_1>:
    7721:	2e c8       	rjmp	.-4004   	; 0x677f <_FigRomWord+0x1f>
    7723:	74 00       	.word	0x0074	; ????
    7725:	62 6c       	ori	r22, 0xC2	; 194
    7727:	6b 3e       	cpi	r22, 0xEB	; 235
	...

0000772a <_FigRomBlkFrom>:
    772a:	11 77       	andi	r17, 0x71	; 113
    772c:	1a 15       	cp	r17, r10
    772e:	04 0a       	sbc	r0, r20
    7730:	2b 1b       	sub	r18, r27
    7732:	20 74       	andi	r18, 0x40	; 64
    7734:	d2 63       	ori	r29, 0x32	; 50
    7736:	03 05       	cpc	r16, r3
    7738:	0e 13       	cpse	r16, r30

00007739 <_FigRomBlkFrom_1>:
    7739:	13 f9       	bld	r17, 3
    773b:	61 1b       	sub	r22, r17
    773d:	2c 76       	andi	r18, 0x6C	; 108
    773f:	03 f9       	bld	r16, 3
    7741:	61 11       	cpse	r22, r1
    7743:	20 74       	andi	r18, 0x40	; 64
    7745:	36 2e       	mov	r3, r22

00007746 <_FigRomBlkFrom_2>:
    7746:	2e 22       	and	r2, r30
    7748:	77 00       	.word	0x0077	; ????
    774a:	3e 62       	ori	r19, 0x2E	; 46
    774c:	6c 6b       	ori	r22, 0xBC	; 188
	...

0000774f <_FigRomToblk>:
    774f:	13 f9       	bld	r17, 3
    7751:	61 1c       	adc	r6, r1
    7753:	01 ff       	sbrs	r16, 1
    7755:	ff 27       	eor	r31, r31
    7757:	76 1a       	sub	r7, r22
    7759:	8e 62       	ori	r24, 0x2E	; 46
    775b:	1d 1b       	sub	r17, r29
    775d:	20 74       	andi	r18, 0x40	; 64
    775f:	36 1a       	sub	r3, r22
    7761:	1a 1b       	sub	r17, r26
    7763:	35 1c       	adc	r3, r5
    7765:	01 00       	.word	0x0001	; ????
    7767:	c0 0c       	add	r12, r0
    7769:	01 00       	.word	0x0001	; ????
    776b:	40 42       	sbci	r20, 0x20	; 32
    776d:	04 22       	and	r0, r20
    776f:	22 1a       	sub	r2, r18
    7771:	56 75       	andi	r21, 0x56	; 86
    7773:	35 1c       	adc	r3, r5
    7775:	11 59       	subi	r17, 0x91	; 145
    7777:	76 1c       	adc	r7, r6

00007778 <_FigRomToblk_2>:
    7778:	1c 01       	movw	r2, r24
    777a:	ff ff       	.word	0xffff	; ????
    777c:	ce 75       	andi	r28, 0x5E	; 94
    777e:	1c 49       	sbci	r17, 0x9C	; 156
    7780:	76 1c       	adc	r7, r6
    7782:	04 06       	cpc	r0, r20
    7784:	03 1a       	sub	r0, r19
    7786:	1a 8b       	std	Y+18, r17	; 0x12
    7788:	76 1b       	sub	r23, r22

00007789 <_FigRomToblk_3>:
    7789:	1b 03       	fmul	r17, r19
    778b:	14 04       	cpc	r1, r4
    778d:	eb 03       	fmulsu	r22, r19
    778f:	2e 03       	fmul	r18, r22

00007790 <_FigRomToblk_1>:
    7790:	03 03       	mulsu	r16, r19
    7792:	11 03       	mulsu	r17, r17
    7794:	2e 47       	sbci	r18, 0x7E	; 126
    7796:	77 00       	.word	0x0077	; ????
    7798:	62 6c       	ori	r22, 0xC2	; 194
    779a:	6b 73       	andi	r22, 0x3B	; 59
    779c:	3e 00       	.word	0x003e	; ????

0000779e <_FigRomBlksFrom>:
    779e:	8e 62       	ori	r24, 0x2E	; 46
    77a0:	1d 13       	cpse	r17, r29
    77a2:	1b 8e       	std	Y+27, r1	; 0x1b
    77a4:	62 20       	and	r6, r2
    77a6:	2b 03       	fmul	r18, r19

000077a7 <_FigRomBlksFrom_1>:
    77a7:	03 1a       	sub	r0, r19
    77a9:	2a 77       	andi	r18, 0x7A	; 122
    77ab:	1b 22       	and	r1, r27
    77ad:	1b 2f       	mov	r17, r27
    77af:	1c 14       	cp	r1, r12
    77b1:	8e 62       	ori	r24, 0x2E	; 46
    77b3:	1c 1d       	adc	r17, r12
    77b5:	01 ff       	sbrs	r16, 1
    77b7:	01 16       	cp	r0, r17
    77b9:	1b 1a       	sub	r1, r27
    77bb:	22 1b       	sub	r18, r18
    77bd:	20 1e       	adc	r2, r16
    77bf:	14 1b       	sub	r17, r20
    77c1:	1a 0d       	add	r17, r10
    77c3:	04 e3       	ldi	r16, 0x34	; 52
    77c5:	13 03       	mulsu	r17, r19
    77c7:	03 11       	cpse	r16, r3
    77c9:	11 8e       	std	Z+25, r1	; 0x19
    77cb:	62 20       	and	r6, r2
    77cd:	2e 95 77 00 	call	0x4800ee	; 0x4800ee <_UpgradeSpm+0x478100>
    77d1:	3e 62       	ori	r19, 0x2E	; 46
    77d3:	6c 6b       	ori	r22, 0xBC	; 188
    77d5:	73 00       	.word	0x0073	; ????

000077d7 <_FigRomToblks>:
    77d7:	8e 62       	ori	r24, 0x2E	; 46
    77d9:	1d 13       	cpse	r17, r29
    77db:	1b 8e       	std	Y+27, r1	; 0x1b
    77dd:	62 20       	and	r6, r2
    77df:	2b 08       	sbc	r2, r11

000077e1 <_FigRomToblks_1>:
    77e1:	1c 4f       	sbci	r17, 0xFC	; 252
    77e3:	77 22       	and	r7, r23
    77e5:	01 00       	.word	0x0001	; ????
    77e7:	02 8e       	std	Z+26, r0	; 0x1a
    77e9:	62 fd       	sbrc	r22, 2
    77eb:	62 06       	cpc	r6, r18
    77ed:	f4 03       	fmuls	r23, r20
    77ef:	11 8e       	std	Z+25, r1	; 0x19
    77f1:	62 20       	and	r6, r2
    77f3:	2e 00       	.word	0x002e	; ????
	...

Disassembly of section .bootloader:

00007800 <BootLoaderReset>:
    7800:	0c 94 c0 3f 	jmp	0x7f80	; 0x7f80 <__microBoot>

00007804 <_FigRomFPSupport>:
    7804:	e1 50       	subi	r30, 0x01	; 1
    7806:	20 40       	sbci	r18, 0x00	; 0
    7808:	30 40       	sbci	r19, 0x00	; 0
    780a:	00 40       	sbci	r16, 0x00	; 0

0000780c <_ComMantA>:
    780c:	e0 95       	com	r30
    780e:	20 95       	com	r18
    7810:	30 95       	com	r19
    7812:	00 95       	com	r16
    7814:	08 95       	ret

00007816 <_FSwapAB>:
    7816:	0f 01       	movw	r0, r30
    7818:	f7 01       	movw	r30, r14
    781a:	70 01       	movw	r14, r0
    781c:	09 01       	movw	r0, r18
    781e:	9b 01       	movw	r18, r22
    7820:	b0 01       	movw	r22, r0
    7822:	08 01       	movw	r0, r16
    7824:	8a 01       	movw	r16, r20
    7826:	a0 01       	movw	r20, r0
    7828:	11 24       	eor	r1, r1
    782a:	08 95       	ret

0000782c <_FLsrMantA>:
    782c:	06 95       	lsr	r16

0000782e <_FRorMantA>:
    782e:	37 95       	ror	r19
    7830:	27 95       	ror	r18
    7832:	e7 95       	ror	r30
    7834:	08 95       	ret

00007836 <_FUnpackClr>:
    7836:	81 e0       	ldi	r24, 0x01	; 1
    7838:	e8 94       	clt

0000783a <_FUnpack>:
    783a:	3e 91       	ld	r19, -X
    783c:	2e 91       	ld	r18, -X
    783e:	f1 2f       	mov	r31, r17
    7840:	e0 e8       	ldi	r30, 0x80	; 128
    7842:	0e 0f       	add	r16, r30
    7844:	0e 2b       	or	r16, r30
    7846:	e0 e0       	ldi	r30, 0x00	; 0
    7848:	11 1f       	adc	r17, r17
    784a:	19 f4       	brne	.+6      	; 0x7852 <_FUnpack10>
    784c:	0f 77       	andi	r16, 0x7F	; 127
    784e:	0e f0       	brts	.+2      	; 0x7852 <_FUnpack10>
    7850:	20 fb       	bst	r18, 0

00007852 <_FUnpack10>:
    7852:	08 95       	ret

00007854 <_FTwosCompDiv4>:
    7854:	eb df       	rcall	.-42     	; 0x782c <_FLsrMantA>
    7856:	ea df       	rcall	.-44     	; 0x782c <_FLsrMantA>

00007858 <_FTwosComp>:
    7858:	f7 fd       	sbrc	r31, 7
    785a:	d4 df       	rcall	.-88     	; 0x7804 <_FigRomFPSupport>
    785c:	08 95       	ret

0000785e <_FDenormSwap>:
    785e:	db df       	rcall	.-74     	; 0x7816 <_FSwapAB>

00007860 <_FDenorm10>:
    7860:	06 95       	lsr	r16
    7862:	37 95       	ror	r19
    7864:	27 95       	ror	r18
    7866:	e7 95       	ror	r30
    7868:	13 95       	inc	r17

0000786a <_FDenorm>:
    786a:	15 17       	cp	r17, r21
    786c:	c8 f3       	brcs	.-14     	; 0x7860 <_FDenorm10>
    786e:	b9 f7       	brne	.-18     	; 0x785e <_FDenormSwap>
    7870:	08 95       	ret

00007872 <_FPrep>:
    7872:	99 27       	eor	r25, r25
    7874:	e0 df       	rcall	.-64     	; 0x7836 <_FUnpackClr>
    7876:	ff 2e       	mov	r15, r31
    7878:	ee 2e       	mov	r14, r30
    787a:	b9 01       	movw	r22, r18
    787c:	a8 01       	movw	r20, r16
    787e:	1e 91       	ld	r17, -X
    7880:	0e 91       	ld	r16, -X
    7882:	db df       	rcall	.-74     	; 0x783a <_FUnpack>
    7884:	08 95       	ret

00007886 <_FPMuLDivExp>:
    7886:	ff 25       	eor	r31, r15
    7888:	15 0f       	add	r17, r21
    788a:	91 1d       	adc	r25, r1
    788c:	1f 57       	subi	r17, 0x7F	; 127
    788e:	91 09       	sbc	r25, r1
    7890:	08 95       	ret

00007892 <_FPack>:
    7892:	11 24       	eor	r1, r1
    7894:	f6 f0       	brts	.+60     	; 0x78d2 <_FPOverflow>
    7896:	04 c0       	rjmp	.+8      	; 0x78a0 <_FPack05>

00007898 <_FPack02>:
    7898:	ee 0f       	add	r30, r30
    789a:	22 1f       	adc	r18, r18
    789c:	33 1f       	adc	r19, r19
    789e:	00 1f       	adc	r16, r16

000078a0 <_FPack05>:
    78a0:	11 50       	subi	r17, 0x01	; 1
    78a2:	90 40       	sbci	r25, 0x00	; 0
    78a4:	07 ff       	sbrs	r16, 7
    78a6:	c2 f7       	brpl	.-16     	; 0x7898 <_FPack02>

000078a8 <_FPack10>:
    78a8:	1f 5f       	subi	r17, 0xFF	; 255
    78aa:	9f 4f       	sbci	r25, 0xFF	; 255
    78ac:	ee 0f       	add	r30, r30
    78ae:	e0 e0       	ldi	r30, 0x00	; 0
    78b0:	21 1d       	adc	r18, r1
    78b2:	31 1d       	adc	r19, r1
    78b4:	01 1d       	adc	r16, r1
    78b6:	c0 f3       	brcs	.-16     	; 0x78a8 <_FPack10>
    78b8:	99 23       	and	r25, r25
    78ba:	51 f4       	brne	.+20     	; 0x78d0 <_FPRange>
    78bc:	11 23       	and	r17, r17
    78be:	51 f0       	breq	.+20     	; 0x78d4 <_FPUnderflow>

000078c0 <_FPack40>:
    78c0:	00 0f       	add	r16, r16
    78c2:	ff 0f       	add	r31, r31
    78c4:	17 95       	ror	r17
    78c6:	07 95       	ror	r16

000078c8 <_FExit>:
    78c8:	2d 93       	st	X+, r18
    78ca:	3d 93       	st	X+, r19

000078cc <_FExitEnd>:
    78cc:	0c 94 67 30 	jmp	0x60ce	; 0x60ce <Rom_VMkFigExit>

000078d0 <_FPRange>:
    78d0:	0a f0       	brmi	.+2      	; 0x78d4 <_FPUnderflow>

000078d2 <_FPOverflow>:
    78d2:	68 94       	set

000078d4 <_FPUnderflow>:
    78d4:	11 27       	eor	r17, r17
    78d6:	00 27       	eor	r16, r16
    78d8:	98 01       	movw	r18, r16
    78da:	20 f9       	bld	r18, 0
    78dc:	ee 27       	eor	r30, r30
    78de:	f4 cf       	rjmp	.-24     	; 0x78c8 <_FExit>
    78e0:	ce 77       	andi	r28, 0x7E	; 126
    78e2:	00 66       	ori	r16, 0x60	; 96
    78e4:	2b 00       	.word	0x002b	; ????

000078e6 <_FigRomFPlus>:
    78e6:	23 00       	.word	0x0023	; ????

000078e8 <_FAdd>:
    78e8:	c4 df       	rcall	.-120    	; 0x7872 <_FPrep>
    78ea:	6e f0       	brts	.+26     	; 0x7906 <_FAddExitErr>
    78ec:	be df       	rcall	.-132    	; 0x786a <_FDenorm>
    78ee:	b2 df       	rcall	.-156    	; 0x7854 <_FTwosCompDiv4>
    78f0:	92 df       	rcall	.-220    	; 0x7816 <_FSwapAB>
    78f2:	b0 df       	rcall	.-160    	; 0x7854 <_FTwosCompDiv4>

000078f4 <_FAddRound>:
    78f4:	ee 0d       	add	r30, r14
    78f6:	26 1f       	adc	r18, r22
    78f8:	37 1f       	adc	r19, r23
    78fa:	04 1f       	adc	r16, r20
    78fc:	1e 5f       	subi	r17, 0xFE	; 254
    78fe:	9f 4f       	sbci	r25, 0xFF	; 255

00007900 <_FAddEnd>:
    7900:	f0 2f       	mov	r31, r16
    7902:	07 fd       	sbrc	r16, 7
    7904:	7f df       	rcall	.-258    	; 0x7804 <_FigRomFPSupport>

00007906 <_FAddExitErr>:
    7906:	c5 cf       	rjmp	.-118    	; 0x7892 <_FPack>
    7908:	e0 78       	andi	r30, 0x80	; 128
    790a:	00 66       	ori	r16, 0x60	; 96
    790c:	2f 00       	.word	0x002f	; ????

0000790e <_FigRomFSlash>:
    790e:	23 00       	.word	0x0023	; ????

00007910 <_FDiv>:
    7910:	b0 df       	rcall	.-160    	; 0x7872 <_FPrep>
    7912:	01 f3       	breq	.-64     	; 0x78d4 <_FPUnderflow>
    7914:	50 30       	cpi	r21, 0x00	; 0
    7916:	e9 f2       	breq	.-70     	; 0x78d2 <_FPOverflow>
    7918:	50 95       	com	r21
    791a:	b5 df       	rcall	.-150    	; 0x7886 <_FPMuLDivExp>
    791c:	87 df       	rcall	.-242    	; 0x782c <_FLsrMantA>
    791e:	7b df       	rcall	.-266    	; 0x7816 <_FSwapAB>
    7920:	85 df       	rcall	.-246    	; 0x782c <_FLsrMantA>
    7922:	79 df       	rcall	.-270    	; 0x7816 <_FSwapAB>
    7924:	81 e2       	ldi	r24, 0x21	; 33
    7926:	08 c0       	rjmp	.+16     	; 0x7938 <_FDiv15>

00007928 <_FDiv10>:
    7928:	ff 1c       	adc	r15, r15
    792a:	00 1c       	adc	r0, r0
    792c:	11 1c       	adc	r1, r1
    792e:	55 1f       	adc	r21, r21
    7930:	ee 0f       	add	r30, r30
    7932:	22 1f       	adc	r18, r18
    7934:	33 1f       	adc	r19, r19
    7936:	00 1f       	adc	r16, r16

00007938 <_FDiv15>:
    7938:	ee 15       	cp	r30, r14
    793a:	26 07       	cpc	r18, r22
    793c:	37 07       	cpc	r19, r23
    793e:	04 07       	cpc	r16, r20
    7940:	20 f0       	brcs	.+8      	; 0x794a <_FDiv20>
    7942:	ee 19       	sub	r30, r14
    7944:	26 0b       	sbc	r18, r22
    7946:	37 0b       	sbc	r19, r23
    7948:	04 0b       	sbc	r16, r20

0000794a <_FDiv20>:
    794a:	8a 95       	dec	r24
    794c:	69 f7       	brne	.-38     	; 0x7928 <_FDiv10>
    794e:	ef 2d       	mov	r30, r15
    7950:	90 01       	movw	r18, r0
    7952:	05 2f       	mov	r16, r21
    7954:	5b df       	rcall	.-330    	; 0x780c <_ComMantA>

00007956 <_FDiv25>:
    7956:	9d cf       	rjmp	.-198    	; 0x7892 <_FPack>
    7958:	08 79       	andi	r16, 0x98	; 152
    795a:	00 66       	ori	r16, 0x60	; 96
    795c:	2a 00       	.word	0x002a	; ????

0000795e <_FigRomFStar>:
    795e:	23 00       	.word	0x0023	; ????

00007960 <_FMul>:
    7960:	88 df       	rcall	.-240    	; 0x7872 <_FPrep>
    7962:	91 df       	rcall	.-222    	; 0x7886 <_FPMuLDivExp>
    7964:	ee 24       	eor	r14, r14
    7966:	55 27       	eor	r21, r21
    7968:	ff 24       	eor	r15, r15
    796a:	f0 7f       	andi	r31, 0xF0	; 240
    796c:	f6 60       	ori	r31, 0x06	; 6
    796e:	88 27       	eor	r24, r24

00007970 <_FMul05>:
    7970:	ee 2d       	mov	r30, r14
    7972:	e5 2e       	mov	r14, r21
    7974:	5f 2d       	mov	r21, r15
    7976:	ff 24       	eor	r15, r15
    7978:	26 9f       	mul	r18, r22
    797a:	e0 0d       	add	r30, r0
    797c:	e1 1c       	adc	r14, r1
    797e:	58 1f       	adc	r21, r24
    7980:	f8 1e       	adc	r15, r24
    7982:	27 9f       	mul	r18, r23
    7984:	e0 0c       	add	r14, r0
    7986:	51 1d       	adc	r21, r1
    7988:	f8 1e       	adc	r15, r24
    798a:	24 9f       	mul	r18, r20
    798c:	50 0d       	add	r21, r0
    798e:	f1 1c       	adc	r15, r1

00007990 <_FMul07>:
    7990:	23 2f       	mov	r18, r19
    7992:	30 2f       	mov	r19, r16
    7994:	fa 95       	dec	r31
    7996:	f2 fd       	sbrc	r31, 2
    7998:	eb cf       	rjmp	.-42     	; 0x7970 <_FMul05>
    799a:	2e 2d       	mov	r18, r14
    799c:	35 2f       	mov	r19, r21
    799e:	0f 2d       	mov	r16, r15
    79a0:	78 cf       	rjmp	.-272    	; 0x7892 <_FPack>
    79a2:	58 79       	andi	r21, 0x98	; 152
    79a4:	00 66       	ori	r16, 0x60	; 96
    79a6:	6e 65       	ori	r22, 0x5E	; 94
    79a8:	67 00       	.word	0x0067	; ????

000079aa <_FigRomFneg>:
    79aa:	23 00       	.word	0x0023	; ????

000079ac <_FNeg>:
    79ac:	10 58       	subi	r17, 0x80	; 128
    79ae:	8e cf       	rjmp	.-228    	; 0x78cc <_FExitEnd>
    79b0:	a2 79       	andi	r26, 0x92	; 146
    79b2:	00 66       	ori	r16, 0x60	; 96
    79b4:	2d 00       	.word	0x002d	; ????

000079b6 <_FigRomFSub>:
    79b6:	aa 79       	andi	r26, 0x9A	; 154
    79b8:	e6 78       	andi	r30, 0x86	; 134
    79ba:	2e b0       	in	r2, 0x0e	; 14
    79bc:	79 80       	ldd	r7, Y+1	; 0x01
    79be:	32 64       	ori	r19, 0x42	; 66
    79c0:	72 6f       	ori	r23, 0xF2	; 242
    79c2:	70 00       	.word	0x0070	; ????
    79c4:	03 03       	mulsu	r16, r19
    79c6:	bb 79       	andi	r27, 0x9B	; 155
    79c8:	80 32       	cpi	r24, 0x20	; 32
    79ca:	6f 76       	andi	r22, 0x6F	; 111
    79cc:	65 72       	andi	r22, 0x25	; 37
    79ce:	00 c8       	rjmp	.-4096   	; 0x69d0 <_FigRomShell_1+0x5>
    79d0:	c6 79       	andi	r28, 0x96	; 150
    79d2:	80 32       	cpi	r24, 0x20	; 32
    79d4:	73 77       	andi	r23, 0x73	; 115
    79d6:	61 70       	andi	r22, 0x01	; 1
    79d8:	00 c9       	rjmp	.-3584   	; 0x6bda <_FigRomElse+0x11>
    79da:	d0 79       	andi	r29, 0x90	; 144
    79dc:	80 64       	ori	r24, 0x40	; 64
    79de:	3e 72       	andi	r19, 0x2E	; 46
    79e0:	00 13       	cpse	r16, r16
    79e2:	13 da       	rcall	.-3034   	; 0x6e0a <_FigRomOpenvlistClose_2+0xd>
    79e4:	79 80       	ldd	r7, Y+1	; 0x01
    79e6:	64 72       	andi	r22, 0x24	; 36
    79e8:	3e 00       	.word	0x003e	; ????
    79ea:	11 11       	cpse	r17, r1
    79ec:	e3 79       	andi	r30, 0x93	; 147
    79ee:	00 64       	ori	r16, 0x40	; 64
    79f0:	2c 00       	.word	0x002c	; ????

000079f2 <_FigRomDComma>:
    79f2:	1b 29       	or	r17, r11
    79f4:	63 29       	or	r22, r3
    79f6:	63 2e       	mov	r6, r19
    79f8:	ec 79       	andi	r30, 0x9C	; 156
    79fa:	00 64       	ori	r16, 0x40	; 64
    79fc:	30 3c       	cpi	r19, 0xC0	; 192
	...

000079ff <_FigRomD0Lt>:
    79ff:	1b 03       	fmul	r17, r19
    7a01:	15 2e       	mov	r1, r21
    7a03:	f8 79       	andi	r31, 0x98	; 152
    7a05:	00 66       	ori	r16, 0x60	; 96
    7a07:	3c 00       	.word	0x003c	; ????

00007a09 <_FigRomFLt>:
    7a09:	b6 79       	andi	r27, 0x96	; 150
    7a0b:	ff 79       	andi	r31, 0x9F	; 159
    7a0d:	2e 03       	fmul	r18, r22
    7a0f:	7a 00       	.word	0x007a	; ????
    7a11:	66 69       	ori	r22, 0x96	; 150
    7a13:	6e 74       	andi	r22, 0x4E	; 78
	...

00007a16 <_FigRomFint>:
    7a16:	23 00       	.word	0x0023	; ????

00007a18 <_FInt>:
    7a18:	0e df       	rcall	.-484    	; 0x7836 <_FUnpackClr>
    7a1a:	5f e9       	ldi	r21, 0x9F	; 159
    7a1c:	26 df       	rcall	.-436    	; 0x786a <_FDenorm>
    7a1e:	1c df       	rcall	.-456    	; 0x7858 <_FTwosComp>
    7a20:	ed 93       	st	X+, r30
    7a22:	2d 93       	st	X+, r18
    7a24:	10 2f       	mov	r17, r16
    7a26:	03 2f       	mov	r16, r19
    7a28:	51 cf       	rjmp	.-350    	; 0x78cc <_FExitEnd>
    7a2a:	0e 7a       	andi	r16, 0xAE	; 174
    7a2c:	00 66       	ori	r16, 0x60	; 96
    7a2e:	6c 6f       	ori	r22, 0xFC	; 252
    7a30:	61 74       	andi	r22, 0x41	; 65
	...

00007a33 <_FigRomFloat>:
    7a33:	23 2e       	mov	r2, r19

00007a34 <_Float>:
    7a34:	2e 91       	ld	r18, -X
    7a36:	ee 91       	ld	r30, -X
    7a38:	30 2f       	mov	r19, r16
    7a3a:	01 2f       	mov	r16, r17
    7a3c:	1f e9       	ldi	r17, 0x9F	; 159
    7a3e:	99 27       	eor	r25, r25
    7a40:	e8 94       	clt
    7a42:	5e cf       	rjmp	.-324    	; 0x7900 <_FAddEnd>

00007a44 <_FigRom1Dot0>:
    7a44:	47 00       	.word	0x0047	; ????
    7a46:	00 00       	nop
    7a48:	40 47       	sbci	r20, 0x70	; 112

00007a49 <_FigRom10Dot0>:
    7a49:	47 00       	.word	0x0047	; ????
    7a4b:	00 a0       	lds	r16, 0x00
    7a4d:	41 13       	cpse	r20, r17

00007a4e <_FigRomOpenfnumClose>:
    7a4e:	13 16       	cp	r1, r19
    7a50:	22 13       	cpse	r18, r18
    7a52:	33 7a       	andi	r19, 0xA3	; 163
    7a54:	44 7a       	andi	r20, 0xA4	; 164
    7a56:	12 04       	cpc	r1, r2
    7a58:	0c 12       	cpse	r0, r28
    7a5a:	de 6a       	ori	r29, 0xAE	; 174
    7a5c:	2b 08       	sbc	r2, r11

00007a5e <_FigRomOpenfnumClose_2>:
    7a5e:	49 7a       	andi	r20, 0xA9	; 169
    7a60:	5e 79       	andi	r21, 0x9E	; 158
    7a62:	06 fb       	bst	r16, 6

00007a64 <_FigRomOpenfnumClose_1>:
    7a64:	11 15       	cp	r17, r1
    7a66:	04 05       	cpc	r16, r4
    7a68:	0e 79       	andi	r16, 0x9E	; 158
    7a6a:	05 03       	mulsu	r16, r21

00007a6c <_FigRomOpenfnumClose_3>:
    7a6c:	5e 79       	andi	r21, 0x9E	; 158

00007a6e <_FigRomOpenfnumClose_4>:
    7a6e:	11 01       	movw	r2, r2
    7a70:	ff ff       	.word	0xffff	; ????
    7a72:	2e 2b       	or	r18, r30

00007a73 <_FigRomFscale>:
    7a73:	2b 2b       	or	r18, r27
    7a75:	2b 2c       	mov	r2, r11
    7a77:	27 2b       	or	r18, r23
    7a79:	08 03       	fmul	r16, r16

00007a7a <_FigRomFscale_1>:
    7a7a:	03 21       	and	r16, r3
    7a7c:	13 03       	mulsu	r17, r19
    7a7e:	03 1a       	sub	r0, r19
    7a80:	1a 13       	cpse	r17, r26
    7a82:	13 49       	sbci	r17, 0x93	; 147
    7a84:	7a 5e       	subi	r23, 0xEA	; 234
    7a86:	79 48       	sbci	r23, 0x89	; 137
    7a88:	48 09       	sbc	r20, r8
    7a8a:	7a 04       	cpc	r7, r10
    7a8c:	02 0f       	add	r16, r18

00007a8e <_FigRomFscale_2>:
    7a8e:	11 11       	cpse	r17, r1
    7a90:	11 06       	cpc	r1, r17
    7a92:	e8 13       	cpse	r30, r24
    7a94:	49 03       	fmul	r20, r17
    7a96:	03 11       	cpse	r16, r3
    7a98:	2e 2a       	or	r2, r30
    7a9a:	7a 00       	.word	0x007a	; ????
    7a9c:	23 66       	ori	r18, 0x63	; 99
    7a9e:	64 00       	.word	0x0064	; ????

00007aa0 <_FigRomHashfd>:
    7aa0:	13 1a       	sub	r1, r19
    7aa2:	1a 16       	cp	r1, r26
    7aa4:	7a 1a       	sub	r7, r26
    7aa6:	2c 30       	cpi	r18, 0x0C	; 12
    7aa8:	16 12       	cpse	r1, r22
    7aaa:	1f 33       	cpi	r17, 0x3F	; 63
    7aac:	7a b6       	in	r7, 0x3a	; 58
    7aae:	79 49       	sbci	r23, 0x99	; 153
    7ab0:	7a 5e       	subi	r23, 0xEA	; 234
    7ab2:	79 11       	cpse	r23, r9
    7ab4:	22 2e       	mov	r2, r18
    7ab6:	99 7a       	andi	r25, 0xA9	; 169
    7ab8:	00 23       	and	r16, r16
    7aba:	66 00       	.word	0x0066	; ????

00007abc <_FigRomHashf>:
    7abc:	1a 1a       	sub	r1, r26
    7abe:	0d 04       	cpc	r0, r13
    7ac0:	18 44       	sbci	r17, 0x48	; 72
    7ac2:	7a 48       	sbci	r23, 0x8A	; 138
    7ac4:	48 09       	sbc	r20, r8
    7ac6:	7a 1c       	adc	r7, r10
    7ac8:	13 04       	cpc	r1, r3
    7aca:	0a 03       	fmul	r16, r18
    7acc:	03 01       	movw	r0, r6
    7ace:	ff ff       	.word	0xffff	; ????
    7ad0:	01 9f       	mul	r16, r17
    7ad2:	41 49       	sbci	r20, 0x91	; 145

00007ad4 <_FigRomHashf_2>:
    7ad4:	73 7a       	andi	r23, 0xA3	; 163
    7ad6:	05 07       	cpc	r16, r21

00007ad8 <_FigRomHashf_1>:
    7ad8:	1a 1a       	sub	r1, r26
    7ada:	2b 2c       	mov	r2, r11
    7adc:	01 13       	cpse	r16, r17

00007ade <_FigRomHashf_3>:
    7ade:	2b bb       	out	0x1b, r18	; 27
    7ae0:	6c bb       	out	0x1c, r22	; 28
    7ae2:	6c 03       	fmul	r22, r20
    7ae4:	03 2c       	mov	r0, r3
    7ae6:	2b 12       	cpse	r2, r27
    7ae8:	15 16       	cp	r1, r21
    7aea:	1c 42       	sbci	r17, 0x2C	; 44
    7aec:	6c 6c       	ori	r22, 0xCC	; 204
    7aee:	2c 65       	ori	r18, 0x5C	; 92
    7af0:	6c 6c       	ori	r22, 0xCC	; 204
    7af2:	11 04       	cpc	r1, r1
    7af4:	06 49       	sbci	r16, 0x96	; 150
    7af6:	03 03       	mulsu	r16, r19
    7af8:	05 03       	mulsu	r16, r21

00007afa <_FigRomHashf_4>:
    7afa:	0e 79       	andi	r16, 0x9E	; 158

00007afc <_FigRomHashf_5>:
    7afc:	dc 62       	ori	r29, 0x2C	; 44
    7afe:	01 f8       	bld	r0, 1
    7b00:	ff 1a       	sub	r15, r31
    7b02:	fd 62       	ori	r31, 0x2D	; 45
    7b04:	1d a0       	lds	r17, 0x8d
    7b06:	7a 2c       	mov	r7, r10
    7b08:	2e 1a       	sub	r2, r30
    7b0a:	1f 22       	and	r1, r31
    7b0c:	2c 06       	cpc	r2, r28
    7b0e:	2b 08       	sbc	r2, r11

00007b10 <_FigRomHashf_6>:
    7b10:	a0 7a       	andi	r26, 0xA0	; 160
    7b12:	06 fd       	sbrc	r16, 6
    7b14:	03 2e       	mov	r0, r19
    7b16:	b6 7a       	andi	r27, 0xA6	; 166
    7b18:	00 66       	ori	r16, 0x60	; 96
    7b1a:	2e 00       	.word	0x002e	; ????

00007b1c <_FigRomFDot>:
    7b1c:	1b 1a       	sub	r1, r27
    7b1e:	01 ff       	sbrs	r16, 1
    7b20:	7f 0c       	add	r7, r15
    7b22:	8b 6c       	ori	r24, 0xCB	; 203
    7b24:	bc 7a       	andi	r27, 0xAC	; 172
    7b26:	ac 6c       	ori	r26, 0xCC	; 204
    7b28:	9a 6c       	ori	r25, 0xCA	; 202
    7b2a:	24 61       	ori	r18, 0x14	; 20
    7b2c:	3e 61       	ori	r19, 0x1E	; 30
    7b2e:	2e 3c       	cpi	r18, 0xCE	; 206

00007b2f <_FigRomPacket>:
    7b2f:	3c 7f       	andi	r19, 0xFC	; 252
    7b31:	03 2c       	mov	r0, r3

00007b32 <_FigRomFlkr>:
    7b32:	2c 09       	sbc	r18, r12
    7b34:	01 26       	eor	r0, r17
    7b36:	01 25       	eor	r16, r1
    7b38:	2e 2c       	mov	r2, r14

00007b39 <_FigRomSlow>:
    7b39:	2c 83       	std	Y+4, r18	; 0x04
    7b3b:	2c 43       	sbci	r18, 0x3C	; 60
    7b3d:	25 03       	mulsu	r18, r21
    7b3f:	77 6e       	ori	r23, 0xE7	; 231
    7b41:	2e 2c       	mov	r2, r14

00007b42 <_FigRomPluspcint2>:
    7b42:	2c bf       	out	0x3c, r18	; 60
    7b44:	2c 6d       	ori	r18, 0xDC	; 220
    7b46:	0a 03       	fmul	r16, r18
    7b48:	2e 01       	movw	r4, r28

00007b49 <_FigRomTapeClr>:
    7b49:	01 8c       	ldd	r0, Z+25	; 0x19
    7b4b:	03 2c       	mov	r0, r3
    7b4d:	22 2b       	or	r18, r18
    7b4f:	30 2e       	mov	r3, r16

00007b51 <_FigRomTapeFrom>:
    7b51:	23 c8       	rjmp	.-4026   	; 0x6b99 <_FigRomBack+0xb>
    7b53:	01 7d       	andi	r16, 0xD1	; 209
    7b55:	01 0e       	add	r0, r17
    7b57:	94 1e       	adc	r9, r20
    7b59:	3f d7       	rcall	.+3710   	; 0x89d9 <_UpgradeSpm+0x9eb>

00007b5a <_FigRomTape10>:
    7b5a:	d7 01       	movw	r26, r14
    7b5c:	8c 01       	movw	r16, r24

00007b5e <_FigRomTapeExit>:
    7b5e:	0c 94 67 30 	jmp	0x60ce	; 0x60ce <Rom_VMkFigExit>

00007b62 <_FigRomPlustapeFrom>:
    7b62:	32 7b       	andi	r19, 0xB2	; 178
    7b64:	2b 2c       	mov	r2, r11
    7b66:	44 25       	eor	r20, r4
    7b68:	1c 2c       	mov	r1, r12
    7b6a:	02 32       	cpi	r16, 0x22	; 34
    7b6c:	22 22       	and	r2, r18
    7b6e:	2c 45       	sbci	r18, 0x5C	; 92
    7b70:	25 01       	movw	r4, r10
    7b72:	b2 19       	sub	r27, r2
    7b74:	2f 7b       	andi	r18, 0xBF	; 191
    7b76:	2c 10       	cpse	r2, r12
    7b78:	36 1c       	adc	r3, r6
    7b7a:	2f 7b       	andi	r18, 0xBF	; 191
    7b7c:	2c 07       	cpc	r18, r28
    7b7e:	16 25       	eor	r17, r6
    7b80:	2c e3       	ldi	r18, 0x3C	; 60
    7b82:	1b 2c       	mov	r1, r11
    7b84:	03 0c       	add	r0, r3
    7b86:	32 2f       	mov	r19, r18
    7b88:	7b 25       	eor	r23, r11
    7b8a:	2c 04       	cpc	r2, r12
    7b8c:	2c fb       	.word	0xfb2c	; ????
    7b8e:	2c 68       	ori	r18, 0x8C	; 140
    7b90:	0a 03       	fmul	r16, r18
    7b92:	2c 40       	sbci	r18, 0x0C	; 12
    7b94:	42 7b       	andi	r20, 0xB2	; 178
    7b96:	49 7b       	andi	r20, 0xB9	; 185

00007b98 <_FigRomPlustapeFrom_1>:
    7b98:	2b 51       	subi	r18, 0x1B	; 27
    7b9a:	7b 74       	andi	r23, 0x4B	; 75
    7b9c:	63 04       	cpc	r6, r3
    7b9e:	fa 49       	sbci	r31, 0x9A	; 154
    7ba0:	7b 2e       	mov	r7, r27

00007ba2 <_FigRomCrc>:
    7ba2:	23 00       	.word	0x0023	; ????
    7ba4:	c8 01       	movw	r24, r16
    7ba6:	7e 91       	ld	r23, -X
    7ba8:	6e 91       	ld	r22, -X
    7baa:	7d 01       	movw	r14, r26
    7bac:	0e 94 0f 3f 	call	0x7e1e	; 0x7e1e <CrcCCIT16>
    7bb0:	d4 cf       	rjmp	.-88     	; 0x7b5a <_FigRomTape10>

00007bb2 <_FigRomBadTape>:
    7bb2:	54 61       	ori	r21, 0x14	; 20
    7bb4:	70 65       	ori	r23, 0x50	; 80
    7bb6:	20 3a       	cpi	r18, 0xA0	; 160
    7bb8:	2d 28       	or	r2, r13
    7bba:	20 00       	.word	0x0020	; ????

00007bbc <_FigRomSubtape>:
    7bbc:	2b 42       	sbci	r18, 0x2B	; 43
    7bbe:	7b 2b       	or	r23, r27
    7bc0:	39 7b       	andi	r19, 0xB9	; 185
    7bc2:	2f 7b       	andi	r18, 0xBF	; 191
    7bc4:	2c 0d       	add	r18, r12
    7bc6:	16 26       	eor	r1, r22
    7bc8:	42 01       	movw	r8, r4
    7bca:	b2 7b       	andi	r27, 0xB2	; 178
    7bcc:	c5 64       	ori	r28, 0x45	; 69
    7bce:	2e 16       	cp	r2, r30
    7bd0:	7b 00       	.word	0x007b	; ????
    7bd2:	65 61       	ori	r22, 0x15	; 21
    7bd4:	72 00       	.word	0x0072	; ????

00007bd6 <_FigRomEar>:
    7bd6:	62 7b       	andi	r22, 0xB2	; 178
    7bd8:	1c 24       	eor	r1, r12
    7bda:	2c 02       	muls	r18, r28
    7bdc:	14 42       	sbci	r17, 0x24	; 36
    7bde:	04 2e       	mov	r0, r20
    7be0:	1c 2c       	mov	r1, r12
    7be2:	03 16       	cp	r0, r19
    7be4:	26 1b       	sub	r18, r22
    7be6:	2c 01       	movw	r4, r24
    7be8:	16 26       	eor	r1, r22
    7bea:	13 74       	andi	r17, 0x43	; 67
    7bec:	63 14       	cp	r6, r3
    7bee:	04 09       	sbc	r16, r4
    7bf0:	83 62       	ori	r24, 0x23	; 35
    7bf2:	1d 12       	cpse	r1, r29
    7bf4:	2c 06       	cpc	r2, r28
    7bf6:	33 42       	sbci	r19, 0x23	; 35

00007bf8 <_FigRomEar_2>:
    7bf8:	12 2b       	or	r17, r18
    7bfa:	08 21       	and	r16, r8

00007bfb <_FigRomEar_3>:
    7bfb:	21 51       	subi	r18, 0x11	; 17
    7bfd:	7b 74       	andi	r23, 0x4B	; 75
    7bff:	63 04       	cpc	r6, r3
    7c01:	08 1a       	sub	r0, r24
    7c03:	2c 40       	sbci	r18, 0x0C	; 12
    7c05:	36 2c       	mov	r3, r6
    7c07:	40 16       	cp	r4, r16

00007c09 <_FigRomEar_4>:
    7c09:	06 f1       	brts	.+64     	; 0x7c4b <_FigRomMicStore_1+0x27>
    7c0b:	03 11       	cpse	r16, r3

00007c0d <_FigRomEar_1>:
    7c0d:	bc 7b       	andi	r27, 0xBC	; 188
    7c0f:	2e 23       	and	r18, r30

00007c10 <_FigRomAmpCount>:
    7c10:	23 00       	.word	0x0023	; ????
    7c12:	11 27       	eor	r17, r17
    7c14:	68 e0       	ldi	r22, 0x08	; 8

00007c16 <ampCount10>:
    7c16:	11 95       	neg	r17
    7c18:	00 0f       	add	r16, r16
    7c1a:	10 40       	sbci	r17, 0x00	; 0
    7c1c:	6a 95       	dec	r22
    7c1e:	d9 f7       	brne	.-10     	; 0x7c16 <ampCount10>
    7c20:	9e cf       	rjmp	.-196    	; 0x7b5e <_FigRomTapeExit>

00007c22 <_FigRomMicStore>:
    7c22:	1b 13       	cpse	r17, r27

00007c24 <_FigRomMicStore_1>:
    7c24:	01 1a       	sub	r0, r17
    7c26:	01 24       	eor	r0, r1
    7c28:	2c 08       	sbc	r2, r12
    7c2a:	15 42       	sbci	r17, 0x25	; 37
    7c2c:	04 f7       	brge	.-64     	; 0x7bee <_FigRomEar+0x18>
    7c2e:	1c 01       	movw	r2, r24
    7c30:	19 01       	movw	r2, r18
    7c32:	25 10       	cpse	r2, r5
    7c34:	7c 1a       	sub	r7, r28
    7c36:	1a 0e       	add	r1, r26
    7c38:	1c 11       	cpse	r17, r12
    7c3a:	16 15       	cp	r17, r6
    7c3c:	2c 80       	ldd	r2, Y+4	; 0x04
    7c3e:	0c 2c       	mov	r0, r12
    7c40:	10 0d       	add	r17, r0
    7c42:	2c 0f       	add	r18, r28
    7c44:	01 1a       	sub	r0, r17
    7c46:	01 0a       	sbc	r0, r17
    7c48:	03 15       	cp	r16, r3
    7c4a:	14 16       	cp	r1, r20
    7c4c:	1c 22       	and	r1, r28
    7c4e:	03 09       	sbc	r16, r3
    7c50:	16 2e       	mov	r1, r22

00007c52 <_FigRomTotape>:
    7c52:	2c 06       	cpc	r2, r28
    7c54:	33 1a       	sub	r3, r19
    7c56:	16 1b       	sub	r17, r22
    7c58:	08 01       	movw	r0, r16

00007c59 <_FigRomTotape_1>:
    7c59:	01 00       	.word	0x0001	; ????
    7c5b:	c0 2b       	or	r28, r16
    7c5d:	2f 21       	and	r18, r15
    7c5f:	2c 40       	sbci	r18, 0x0C	; 12
    7c61:	16 21       	and	r17, r6
    7c63:	08 13       	cpse	r16, r24

00007c64 <_FigRomTotape_2>:
    7c64:	13 21       	and	r17, r3
    7c66:	24 1c       	adc	r2, r4
    7c68:	13 22       	and	r1, r19
    7c6a:	7c 2b       	or	r23, r28
    7c6c:	11 11       	cpse	r17, r1
    7c6e:	a2 7b       	andi	r26, 0xB2	; 178
    7c70:	06 f3       	brts	.-64     	; 0x7c32 <_FigRomMicStore_1+0xe>
    7c72:	2c 05       	cpc	r18, r12
    7c74:	2b 08       	sbc	r2, r11

00007c76 <_FigRomTotape_3>:
    7c76:	13 12       	cpse	r1, r19
    7c78:	22 7c       	andi	r18, 0xC2	; 194
    7c7a:	1c 14       	cp	r1, r12
    7c7c:	14 01       	movw	r2, r8
    7c7e:	00 40       	sbci	r16, 0x00	; 0
    7c80:	0c 11       	cpse	r16, r12
    7c82:	2c 08       	sbc	r2, r12
    7c84:	32 06       	cpc	r3, r18
    7c86:	f0 03       	fmuls	r23, r16
    7c88:	03 2c       	mov	r0, r3
    7c8a:	40 07       	cpc	r20, r16
    7c8c:	cd 2e       	mov	r12, r29

00007c8e <_FigRomSlashTotape>:
    7c8e:	2b 2c       	mov	r2, r11
    7c90:	6e 25       	eor	r22, r14
    7c92:	2c 45       	sbci	r18, 0x5C	; 92
    7c94:	25 2b       	or	r18, r21
    7c96:	39 7b       	andi	r19, 0xB9	; 185
    7c98:	2e 03       	fmul	r18, r22

00007c99 <_FigRomPlusTotape>:
    7c99:	03 2c       	mov	r0, r3
    7c9b:	40 2c       	mov	r4, r0
    7c9d:	bf 2c       	mov	r11, r15
    7c9f:	2a 0a       	sbc	r2, r26
    7ca1:	03 2c       	mov	r0, r3
    7ca3:	42 2c       	mov	r4, r2
    7ca5:	44 25       	eor	r20, r4
    7ca7:	2c 03       	fmul	r18, r20
    7ca9:	8e 7c       	andi	r24, 0xCE	; 206
    7cab:	2c 37       	cpi	r18, 0x7C	; 124
    7cad:	2c 47       	sbci	r18, 0x7C	; 124
    7caf:	25 2b       	or	r18, r21
    7cb1:	01 1a       	sub	r0, r17
    7cb3:	01 25       	eor	r16, r1
    7cb5:	2e 99       	sbic	0x05, 6	; 5

00007cb6 <_FigRomAudioOutHeader>:
    7cb6:	99 7c       	andi	r25, 0xC9	; 201
    7cb8:	e9 60       	ori	r30, 0x09	; 9
    7cba:	70 61       	ori	r23, 0x10	; 16
    7cbc:	53 74       	andi	r21, 0x43	; 67
    7cbe:	61 72       	andi	r22, 0x21	; 33
    7cc0:	74 20       	and	r7, r4
    7cc2:	52 65       	ori	r21, 0x52	; 82
    7cc4:	63 2c       	mov	r6, r3
    7cc6:	20 68       	ori	r18, 0x80	; 128
    7cc8:	69 74       	andi	r22, 0x49	; 73
    7cca:	20 6b       	ori	r18, 0xB0	; 176
    7ccc:	65 79       	andi	r22, 0x95	; 149
    7cce:	2e 00       	.word	0x002e	; ????
    7cd0:	a4 60       	ori	r26, 0x04	; 4
    7cd2:	03 32       	cpi	r16, 0x23	; 35
    7cd4:	7b 2c       	mov	r7, r11
    7cd6:	02 2c       	mov	r0, r2
    7cd8:	6e 25       	eor	r22, r14
    7cda:	2f 7b       	andi	r18, 0xBF	; 191
    7cdc:	13 12       	cpse	r1, r19
    7cde:	25 12       	cpse	r2, r21
    7ce0:	22 27       	eor	r18, r18
    7ce2:	12 2c       	mov	r1, r2
    7ce4:	03 16       	cp	r0, r19
    7ce6:	27 2c       	mov	r2, r7
    7ce8:	22 60       	ori	r18, 0x02	; 2
    7cea:	67 12       	cpse	r6, r23
    7cec:	63 1c       	adc	r6, r3
    7cee:	cf 66       	ori	r28, 0x6F	; 111
    7cf0:	22 12       	cpse	r2, r18
    7cf2:	2c 05       	cpc	r18, r12
    7cf4:	16 1b       	sub	r17, r22
    7cf6:	36 2b       	or	r19, r22
    7cf8:	11 2e       	mov	r1, r17

00007cfa <LastLink>:
    7cfa:	cf 7b       	andi	r28, 0xBF	; 191
    7cfc:	00 6d       	ori	r16, 0xD0	; 208
    7cfe:	69 63       	ori	r22, 0x39	; 57
	...

00007d01 <_FigRomMic>:
    7d01:	13 1a       	sub	r1, r19
    7d03:	42 01       	movw	r8, r4
    7d05:	3f 00       	.word	0x003f	; ????
    7d07:	16 2c       	mov	r1, r6
    7d09:	06 32       	cpi	r16, 0x26	; 38
    7d0b:	1a 1a       	sub	r1, r26
    7d0d:	2c 02       	muls	r18, r28
    7d0f:	11 b6       	in	r1, 0x31	; 49
    7d11:	7c 2c       	mov	r7, r12
    7d13:	01 52       	subi	r16, 0x21	; 33
    7d15:	7c 1b       	sub	r23, r28
    7d17:	2b 08       	sbc	r2, r11

00007d19 <_FigRomMic_1>:
    7d19:	1a 21       	and	r17, r10
    7d1b:	2c 06       	cpc	r2, r28
    7d1d:	33 16       	cp	r3, r19
    7d1f:	2f 7b       	andi	r18, 0xBF	; 191
    7d21:	2c 40       	sbci	r18, 0x0C	; 12
    7d23:	36 2f       	mov	r19, r22
    7d25:	7b 2c       	mov	r7, r11
    7d27:	01 52       	subi	r16, 0x21	; 33
    7d29:	7c 06       	cpc	r7, r28
    7d2b:	ee 03       	fmulsu	r22, r22
    7d2d:	03 2b       	or	r16, r19
    7d2f:	8e 7c       	andi	r24, 0xCE	; 206
    7d31:	2e 00       	.word	0x002e	; ????
	...

00007d34 <__vector_5>:
    7d34:	1f 92       	push	r1
    7d36:	0f 92       	push	r0
    7d38:	0f b6       	in	r0, 0x3f	; 63
    7d3a:	0f 92       	push	r0
    7d3c:	11 24       	eor	r1, r1
    7d3e:	2f 93       	push	r18
    7d40:	3f 93       	push	r19
    7d42:	8f 93       	push	r24
    7d44:	9f 93       	push	r25
    7d46:	af 93       	push	r26
    7d48:	bf 93       	push	r27
    7d4a:	ef 93       	push	r30
    7d4c:	ff 93       	push	r31
    7d4e:	26 b5       	in	r18, 0x26	; 38
    7d50:	80 91 68 00 	lds	r24, 0x0068
    7d54:	8b 7f       	andi	r24, 0xFB	; 251
    7d56:	80 93 68 00 	sts	0x0068, r24
    7d5a:	78 94       	sei
    7d5c:	ef e7       	ldi	r30, 0x7F	; 127
    7d5e:	f3 e0       	ldi	r31, 0x03	; 3
    7d60:	81 81       	ldd	r24, Z+1	; 0x01
    7d62:	32 2f       	mov	r19, r18
    7d64:	38 1b       	sub	r19, r24
    7d66:	21 83       	std	Z+1, r18	; 0x01
    7d68:	80 81       	ld	r24, Z
    7d6a:	98 2f       	mov	r25, r24
    7d6c:	96 95       	lsr	r25
    7d6e:	96 95       	lsr	r25
    7d70:	92 0f       	add	r25, r18
    7d72:	97 bd       	out	0x27, r25	; 39
    7d74:	a9 9a       	sbi	0x15, 1	; 21
    7d76:	90 81       	ld	r25, Z
    7d78:	86 95       	lsr	r24
    7d7a:	89 0f       	add	r24, r25
    7d7c:	87 95       	ror	r24
    7d7e:	90 e4       	ldi	r25, 0x40	; 64
    7d80:	90 93 1a 01 	sts	0x011A, r25
    7d84:	90 91 6e 00 	lds	r25, 0x006E
    7d88:	92 60       	ori	r25, 0x02	; 2
    7d8a:	90 93 6e 00 	sts	0x006E, r25
    7d8e:	95 81       	ldd	r25, Z+5	; 0x05
    7d90:	21 e0       	ldi	r18, 0x01	; 1
    7d92:	83 17       	cp	r24, r19
    7d94:	08 f4       	brcc	.+2      	; 0x7d98 <__vector_5+0x64>
    7d96:	20 e0       	ldi	r18, 0x00	; 0
    7d98:	30 93 7e 03 	sts	0x037E, r19
    7d9c:	84 81       	ldd	r24, Z+4	; 0x04
    7d9e:	82 30       	cpi	r24, 0x02	; 2
    7da0:	99 f0       	breq	.+38     	; 0x7dc8 <__vector_5+0x94>
    7da2:	83 30       	cpi	r24, 0x03	; 3
    7da4:	18 f4       	brcc	.+6      	; 0x7dac <__vector_5+0x78>
    7da6:	88 23       	and	r24, r24
    7da8:	31 f0       	breq	.+12     	; 0x7db6 <__vector_5+0x82>
    7daa:	23 c0       	rjmp	.+70     	; 0x7df2 <__vector_5+0xbe>
    7dac:	8b 30       	cpi	r24, 0x0B	; 11
    7dae:	79 f0       	breq	.+30     	; 0x7dce <__vector_5+0x9a>
    7db0:	8c 30       	cpi	r24, 0x0C	; 12
    7db2:	f9 f4       	brne	.+62     	; 0x7df2 <__vector_5+0xbe>
    7db4:	25 c0       	rjmp	.+74     	; 0x7e00 <__vector_5+0xcc>
    7db6:	90 31       	cpi	r25, 0x10	; 16
    7db8:	18 f0       	brcs	.+6      	; 0x7dc0 <__vector_5+0x8c>
    7dba:	21 30       	cpi	r18, 0x01	; 1
    7dbc:	09 f5       	brne	.+66     	; 0x7e00 <__vector_5+0xcc>
    7dbe:	1d c0       	rjmp	.+58     	; 0x7dfa <__vector_5+0xc6>
    7dc0:	22 23       	and	r18, r18
    7dc2:	e9 f4       	brne	.+58     	; 0x7dfe <__vector_5+0xca>
    7dc4:	9f 5f       	subi	r25, 0xFF	; 255
    7dc6:	1c c0       	rjmp	.+56     	; 0x7e00 <__vector_5+0xcc>
    7dc8:	84 e0       	ldi	r24, 0x04	; 4
    7dca:	82 1b       	sub	r24, r18
    7dcc:	19 c0       	rjmp	.+50     	; 0x7e00 <__vector_5+0xcc>
    7dce:	99 0f       	add	r25, r25
    7dd0:	92 2b       	or	r25, r18
    7dd2:	a2 81       	ldd	r26, Z+2	; 0x02
    7dd4:	b3 81       	ldd	r27, Z+3	; 0x03
    7dd6:	9d 93       	st	X+, r25
    7dd8:	80 85       	ldd	r24, Z+8	; 0x08
    7dda:	91 85       	ldd	r25, Z+9	; 0x09
    7ddc:	8e 5b       	subi	r24, 0xBE	; 190
    7dde:	9f 4f       	sbci	r25, 0xFF	; 255
    7de0:	a8 17       	cp	r26, r24
    7de2:	b9 07       	cpc	r27, r25
    7de4:	11 f4       	brne	.+4      	; 0x7dea <__vector_5+0xb6>
    7de6:	80 e0       	ldi	r24, 0x00	; 0
    7de8:	01 c0       	rjmp	.+2      	; 0x7dec <__vector_5+0xb8>
    7dea:	82 e0       	ldi	r24, 0x02	; 2
    7dec:	b3 83       	std	Z+3, r27	; 0x03
    7dee:	a2 83       	std	Z+2, r26	; 0x02
    7df0:	06 c0       	rjmp	.+12     	; 0x7dfe <__vector_5+0xca>
    7df2:	99 0f       	add	r25, r25
    7df4:	92 2b       	or	r25, r18
    7df6:	8f 5f       	subi	r24, 0xFF	; 255
    7df8:	03 c0       	rjmp	.+6      	; 0x7e00 <__vector_5+0xcc>
    7dfa:	83 e0       	ldi	r24, 0x03	; 3
    7dfc:	01 c0       	rjmp	.+2      	; 0x7e00 <__vector_5+0xcc>
    7dfe:	90 e0       	ldi	r25, 0x00	; 0
    7e00:	84 83       	std	Z+4, r24	; 0x04
    7e02:	95 83       	std	Z+5, r25	; 0x05
    7e04:	ff 91       	pop	r31
    7e06:	ef 91       	pop	r30
    7e08:	bf 91       	pop	r27
    7e0a:	af 91       	pop	r26
    7e0c:	9f 91       	pop	r25
    7e0e:	8f 91       	pop	r24
    7e10:	3f 91       	pop	r19
    7e12:	2f 91       	pop	r18
    7e14:	0f 90       	pop	r0
    7e16:	0f be       	out	0x3f, r0	; 63
    7e18:	0f 90       	pop	r0
    7e1a:	1f 90       	pop	r1
    7e1c:	18 95       	reti

00007e1e <CrcCCIT16>:
    7e1e:	9c 01       	movw	r18, r24
    7e20:	83 2f       	mov	r24, r19
    7e22:	92 2f       	mov	r25, r18
    7e24:	86 27       	eor	r24, r22
    7e26:	30 e1       	ldi	r19, 0x10	; 16
    7e28:	38 9f       	mul	r19, r24
    7e2a:	81 25       	eor	r24, r1
    7e2c:	38 9f       	mul	r19, r24
    7e2e:	90 25       	eor	r25, r0
    7e30:	20 e2       	ldi	r18, 0x20	; 32
    7e32:	28 9f       	mul	r18, r24
    7e34:	80 25       	eor	r24, r0
    7e36:	91 25       	eor	r25, r1
    7e38:	11 24       	eor	r1, r1
    7e3a:	08 95       	ret

00007e3c <TapeIn>:
    7e3c:	af 92       	push	r10
    7e3e:	bf 92       	push	r11
    7e40:	cf 92       	push	r12
    7e42:	df 92       	push	r13
    7e44:	ef 92       	push	r14
    7e46:	ff 92       	push	r15
    7e48:	0f 93       	push	r16
    7e4a:	1f 93       	push	r17
    7e4c:	cf 93       	push	r28
    7e4e:	df 93       	push	r29
    7e50:	08 2f       	mov	r16, r24
    7e52:	cf e7       	ldi	r28, 0x7F	; 127
    7e54:	d3 e0       	ldi	r29, 0x03	; 3
    7e56:	c8 84       	ldd	r12, Y+8	; 0x08
    7e58:	d9 84       	ldd	r13, Y+9	; 0x09
    7e5a:	8c 81       	ldd	r24, Y+4	; 0x04
    7e5c:	88 23       	and	r24, r24
    7e5e:	e9 f3       	breq	.-6      	; 0x7e5a <TapeIn+0x1e>
    7e60:	8c 81       	ldd	r24, Y+4	; 0x04
    7e62:	88 23       	and	r24, r24
    7e64:	e9 f7       	brne	.-6      	; 0x7e60 <TapeIn+0x24>
    7e66:	ea 81       	ldd	r30, Y+2	; 0x02
    7e68:	fb 81       	ldd	r31, Y+3	; 0x03
    7e6a:	b2 90       	ld	r11, -Z
    7e6c:	a2 90       	ld	r10, -Z
    7e6e:	8a 85       	ldd	r24, Y+10	; 0x0a
    7e70:	9b 85       	ldd	r25, Y+11	; 0x0b
    7e72:	9c 01       	movw	r18, r24
    7e74:	20 50       	subi	r18, 0x00	; 0
    7e76:	3f 4f       	sbci	r19, 0xFF	; 255
    7e78:	e2 17       	cp	r30, r18
    7e7a:	f3 07       	cpc	r31, r19
    7e7c:	08 f0       	brcs	.+2      	; 0x7e80 <TapeIn+0x44>
    7e7e:	fc 01       	movw	r30, r24
    7e80:	fb 83       	std	Y+3, r31	; 0x03
    7e82:	ea 83       	std	Y+2, r30	; 0x02
    7e84:	f9 87       	std	Y+9, r31	; 0x09
    7e86:	e8 87       	std	Y+8, r30	; 0x08
    7e88:	76 01       	movw	r14, r12
    7e8a:	10 e0       	ldi	r17, 0x00	; 0
    7e8c:	8f ef       	ldi	r24, 0xFF	; 255
    7e8e:	9f ef       	ldi	r25, 0xFF	; 255
    7e90:	f7 01       	movw	r30, r14
    7e92:	61 91       	ld	r22, Z+
    7e94:	7f 01       	movw	r14, r30
    7e96:	0e 94 0f 3f 	call	0x7e1e	; 0x7e1e <CrcCCIT16>
    7e9a:	1f 5f       	subi	r17, 0xFF	; 255
    7e9c:	10 34       	cpi	r17, 0x40	; 64
    7e9e:	c1 f7       	brne	.-16     	; 0x7e90 <TapeIn+0x54>
    7ea0:	8a 15       	cp	r24, r10
    7ea2:	9b 05       	cpc	r25, r11
    7ea4:	d9 f4       	brne	.+54     	; 0x7edc <TapeIn+0xa0>
    7ea6:	20 2f       	mov	r18, r16
    7ea8:	26 95       	lsr	r18
    7eaa:	26 95       	lsr	r18
    7eac:	26 95       	lsr	r18
    7eae:	07 70       	andi	r16, 0x07	; 7
    7eb0:	81 e0       	ldi	r24, 0x01	; 1
    7eb2:	90 e0       	ldi	r25, 0x00	; 0
    7eb4:	38 2f       	mov	r19, r24
    7eb6:	01 c0       	rjmp	.+2      	; 0x7eba <TapeIn+0x7e>
    7eb8:	33 0f       	add	r19, r19
    7eba:	0a 95       	dec	r16
    7ebc:	ea f7       	brpl	.-6      	; 0x7eb8 <TapeIn+0x7c>
    7ebe:	fe 01       	movw	r30, r28
    7ec0:	e2 0f       	add	r30, r18
    7ec2:	f1 1d       	adc	r31, r1
    7ec4:	27 85       	ldd	r18, Z+15	; 0x0f
    7ec6:	83 2f       	mov	r24, r19
    7ec8:	82 23       	and	r24, r18
    7eca:	29 f4       	brne	.+10     	; 0x7ed6 <TapeIn+0x9a>
    7ecc:	8d 85       	ldd	r24, Y+13	; 0x0d
    7ece:	9e 85       	ldd	r25, Y+14	; 0x0e
    7ed0:	01 96       	adiw	r24, 0x01	; 1
    7ed2:	9e 87       	std	Y+14, r25	; 0x0e
    7ed4:	8d 87       	std	Y+13, r24	; 0x0d
    7ed6:	23 2b       	or	r18, r19
    7ed8:	27 87       	std	Z+15, r18	; 0x0f
    7eda:	02 c0       	rjmp	.+4      	; 0x7ee0 <TapeIn+0xa4>
    7edc:	cc 24       	eor	r12, r12
    7ede:	dd 24       	eor	r13, r13
    7ee0:	c6 01       	movw	r24, r12
    7ee2:	df 91       	pop	r29
    7ee4:	cf 91       	pop	r28
    7ee6:	1f 91       	pop	r17
    7ee8:	0f 91       	pop	r16
    7eea:	ff 90       	pop	r15
    7eec:	ef 90       	pop	r14
    7eee:	df 90       	pop	r13
    7ef0:	cf 90       	pop	r12
    7ef2:	bf 90       	pop	r11
    7ef4:	af 90       	pop	r10
    7ef6:	08 95       	ret

00007ef8 <__vector_14>:
    7ef8:	78 94       	sei
    7efa:	8f 93       	push	r24
    7efc:	8f b7       	in	r24, 0x3f	; 63
    7efe:	8f 93       	push	r24
    7f00:	9f 93       	push	r25
    7f02:	80 91 1a 01 	lds	r24, 0x011A
    7f06:	86 fd       	sbrc	r24, 6
    7f08:	22 c0       	rjmp	.+68     	; 0x7f4e <MicByteInt50>
    7f0a:	98 2f       	mov	r25, r24
    7f0c:	9f 71       	andi	r25, 0x1F	; 31
    7f0e:	90 31       	cpi	r25, 0x10	; 16
    7f10:	29 f4       	brne	.+10     	; 0x7f1c <MicByteInt10>
    7f12:	87 50       	subi	r24, 0x07	; 7
    7f14:	4a f4       	brpl	.+18     	; 0x7f28 <MicByteInt20>
    7f16:	8a e0       	ldi	r24, 0x0A	; 10
    7f18:	90 ec       	ldi	r25, 0xC0	; 192
    7f1a:	06 c0       	rjmp	.+12     	; 0x7f28 <MicByteInt20>

00007f1c <MicByteInt10>:
    7f1c:	9f 70       	andi	r25, 0x0F	; 15
    7f1e:	98 30       	cpi	r25, 0x08	; 8
    7f20:	9b b5       	in	r25, 0x2b	; 43
    7f22:	11 f4       	brne	.+4      	; 0x7f28 <MicByteInt20>
    7f24:	90 91 19 01 	lds	r25, 0x0119

00007f28 <MicByteInt20>:
    7f28:	99 0f       	add	r25, r25
    7f2a:	9b bd       	out	0x2b, r25	; 43
    7f2c:	96 e1       	ldi	r25, 0x16	; 22
    7f2e:	08 f0       	brcs	.+2      	; 0x7f32 <MicByteInt30>
    7f30:	97 e3       	ldi	r25, 0x37	; 55

00007f32 <MicByteInt30>:
    7f32:	97 bd       	out	0x27, r25	; 39
    7f34:	90 93 7e 03 	sts	0x037E, r25
    7f38:	98 2f       	mov	r25, r24
    7f3a:	81 50       	subi	r24, 0x01	; 1
    7f3c:	9f 70       	andi	r25, 0x0F	; 15
    7f3e:	11 f0       	breq	.+4      	; 0x7f44 <MicByteInt45>
    7f40:	80 93 1a 01 	sts	0x011A, r24

00007f44 <MicByteInt45>:
    7f44:	9f 91       	pop	r25
    7f46:	8f 91       	pop	r24
    7f48:	8f bf       	out	0x3f, r24	; 63
    7f4a:	8f 91       	pop	r24
    7f4c:	08 95       	ret

00007f4e <MicByteInt50>:
    7f4e:	89 7f       	andi	r24, 0xF9	; 249
    7f50:	80 93 1a 01 	sts	0x011A, r24
    7f54:	80 91 6e 00 	lds	r24, 0x006E
    7f58:	8d 7f       	andi	r24, 0xFD	; 253
    7f5a:	80 93 6e 00 	sts	0x006E, r24
    7f5e:	8b b3       	in	r24, 0x1b	; 27
    7f60:	84 60       	ori	r24, 0x04	; 4
    7f62:	8b bb       	out	0x1b, r24	; 27
    7f64:	80 91 68 00 	lds	r24, 0x0068
    7f68:	84 60       	ori	r24, 0x04	; 4
    7f6a:	80 93 68 00 	sts	0x0068, r24
    7f6e:	ea cf       	rjmp	.-44     	; 0x7f44 <MicByteInt45>

Disassembly of section .microboot:

00007f80 <__microBoot>:
    7f80:	f0 e1       	ldi	r31, 0x10	; 16
    7f82:	f7 b9       	out	0x07, r31	; 7
    7f84:	ef e0       	ldi	r30, 0x0F	; 15
    7f86:	e8 b9       	out	0x08, r30	; 8
    7f88:	0e e2       	ldi	r16, 0x2E	; 46
    7f8a:	04 b9       	out	0x04, r16	; 4
    7f8c:	0e e2       	ldi	r16, 0x2E	; 46
    7f8e:	05 b9       	out	0x05, r16	; 5
    7f90:	57 9a       	sbi	0x0a, 7	; 10
    7f92:	5f 98       	cbi	0x0b, 7	; 11

00007f94 <uBoot10>:
    7f94:	31 96       	adiw	r30, 0x01	; 1
    7f96:	f1 f7       	brne	.-4      	; 0x7f94 <uBoot10>

00007f98 <uBoot12>:
    7f98:	30 99       	sbic	0x06, 0	; 6
    7f9a:	09 94       	ijmp
    7f9c:	44 9a       	sbi	0x08, 4	; 8
    7f9e:	32 99       	sbic	0x06, 2	; 6
    7fa0:	fb cf       	rjmp	.-10     	; 0x7f98 <uBoot12>
    7fa2:	02 e5       	ldi	r16, 0x52	; 82
    7fa4:	0c bd       	out	0x2c, r16	; 44
    7fa6:	2a 98       	cbi	0x05, 2	; 5
    7fa8:	43 e0       	ldi	r20, 0x03	; 3
    7faa:	4e bd       	out	0x2e, r20	; 46
    7fac:	1a d0       	rcall	.+52     	; 0x7fe2 <_UpgradeGetSpiByte>
    7fae:	e0 e2       	ldi	r30, 0x20	; 32
    7fb0:	18 d0       	rcall	.+48     	; 0x7fe2 <_UpgradeGetSpiByte>
    7fb2:	ee 27       	eor	r30, r30
    7fb4:	16 d0       	rcall	.+44     	; 0x7fe2 <_UpgradeGetSpiByte>
    7fb6:	15 d0       	rcall	.+42     	; 0x7fe2 <_UpgradeGetSpiByte>
    7fb8:	32 97       	sbiw	r30, 0x02	; 2
    7fba:	4f e7       	ldi	r20, 0x7F	; 127

00007fbc <_Upgrader>:
    7fbc:	30 e4       	ldi	r19, 0x40	; 64

00007fbe <_Upgrader10>:
    7fbe:	32 96       	adiw	r30, 0x02	; 2
    7fc0:	10 d0       	rcall	.+32     	; 0x7fe2 <_UpgradeGetSpiByte>
    7fc2:	01 2c       	mov	r0, r1
    7fc4:	0e d0       	rcall	.+28     	; 0x7fe2 <_UpgradeGetSpiByte>
    7fc6:	51 e0       	ldi	r21, 0x01	; 1
    7fc8:	12 d0       	rcall	.+36     	; 0x7fee <_UpgradeSpm>
    7fca:	3a 95       	dec	r19
    7fcc:	c1 f7       	brne	.-16     	; 0x7fbe <_Upgrader10>
    7fce:	34 9a       	sbi	0x06, 4	; 6
    7fd0:	53 e0       	ldi	r21, 0x03	; 3
    7fd2:	0d d0       	rcall	.+26     	; 0x7fee <_UpgradeSpm>
    7fd4:	55 e0       	ldi	r21, 0x05	; 5
    7fd6:	0b d0       	rcall	.+22     	; 0x7fee <_UpgradeSpm>
    7fd8:	4a 95       	dec	r20
    7fda:	81 f7       	brne	.-32     	; 0x7fbc <_Upgrader>
    7fdc:	51 e1       	ldi	r21, 0x11	; 17
    7fde:	07 d0       	rcall	.+14     	; 0x7fee <_UpgradeSpm>
    7fe0:	d9 cf       	rjmp	.-78     	; 0x7f94 <uBoot10>

00007fe2 <_UpgradeGetSpiByte>:
    7fe2:	2d b5       	in	r18, 0x2d	; 45
    7fe4:	27 ff       	sbrs	r18, 7
    7fe6:	fd cf       	rjmp	.-6      	; 0x7fe2 <_UpgradeGetSpiByte>
    7fe8:	1e b4       	in	r1, 0x2e	; 46
    7fea:	ee bd       	out	0x2e, r30	; 46
    7fec:	08 95       	ret

00007fee <_UpgradeSpm>:
    7fee:	07 b7       	in	r16, 0x37	; 55
    7ff0:	00 fd       	sbrc	r16, 0
    7ff2:	fd cf       	rjmp	.-6      	; 0x7fee <_UpgradeSpm>
    7ff4:	57 bf       	out	0x37, r21	; 55
    7ff6:	e8 95       	spm
    7ff8:	08 95       	ret

Disassembly of section .bss:

00800100 <gKScanUnbounced>:
	...

00800101 <gOldKScan>:
	...

00800102 <gKeyState>:
	...

00800103 <gKeyGroup>:
	...

00800105 <gFlashPage>:
	...

00800106 <gSysVars>:
	...

00800123 <gScanRow>:
	...

00800124 <gClock>:
	...

00800126 <gFrameSyncState>:
	...

00800127 <gVideoBuff>:
	...
