
FIGnitionPAL.elf:     file format elf32-avr


Disassembly of section .data:

00800100 <gSwUartState>:
	...

00800101 <gSwUartCh>:
	...

00800102 <gVPtr>:
	...

00800104 <gScanRow>:
	...

Disassembly of section .text:

00000000 <__vectors>:
       0:	0c 94 d4 02 	jmp	0x5a8	; 0x5a8 <__ctors_end>
       4:	0c 94 e6 02 	jmp	0x5cc	; 0x5cc <__bad_interrupt>
       8:	0c 94 e6 02 	jmp	0x5cc	; 0x5cc <__bad_interrupt>
       c:	0c 94 a5 12 	jmp	0x254a	; 0x254a <__vector_3>
      10:	0c 94 e6 02 	jmp	0x5cc	; 0x5cc <__bad_interrupt>
      14:	0c 94 e6 02 	jmp	0x5cc	; 0x5cc <__bad_interrupt>
      18:	0c 94 e6 02 	jmp	0x5cc	; 0x5cc <__bad_interrupt>
      1c:	0c 94 e6 02 	jmp	0x5cc	; 0x5cc <__bad_interrupt>
      20:	0c 94 e6 02 	jmp	0x5cc	; 0x5cc <__bad_interrupt>
      24:	0c 94 e6 02 	jmp	0x5cc	; 0x5cc <__bad_interrupt>
      28:	0c 94 e6 02 	jmp	0x5cc	; 0x5cc <__bad_interrupt>
      2c:	0c 94 83 10 	jmp	0x2106	; 0x2106 <__vector_11>
      30:	0c 94 e6 02 	jmp	0x5cc	; 0x5cc <__bad_interrupt>
      34:	0c 94 e6 02 	jmp	0x5cc	; 0x5cc <__bad_interrupt>
      38:	0c 94 69 0c 	jmp	0x18d2	; 0x18d2 <__vector_14>
      3c:	0c 94 e6 02 	jmp	0x5cc	; 0x5cc <__bad_interrupt>
      40:	0c 94 e6 02 	jmp	0x5cc	; 0x5cc <__bad_interrupt>
      44:	0c 94 e6 02 	jmp	0x5cc	; 0x5cc <__bad_interrupt>
      48:	0c 94 e6 02 	jmp	0x5cc	; 0x5cc <__bad_interrupt>
      4c:	0c 94 e6 02 	jmp	0x5cc	; 0x5cc <__bad_interrupt>
      50:	0c 94 e6 02 	jmp	0x5cc	; 0x5cc <__bad_interrupt>
      54:	0c 94 e6 02 	jmp	0x5cc	; 0x5cc <__bad_interrupt>
      58:	0c 94 e6 02 	jmp	0x5cc	; 0x5cc <__bad_interrupt>
      5c:	0c 94 e6 02 	jmp	0x5cc	; 0x5cc <__bad_interrupt>
      60:	0c 94 e6 02 	jmp	0x5cc	; 0x5cc <__bad_interrupt>
      64:	0c 94 e6 02 	jmp	0x5cc	; 0x5cc <__bad_interrupt>

00000068 <gSingleKeyCode>:
      68:	08 0b       	sbc	r16, r24
      6a:	09 07       	cpc	r16, r25
      6c:	00 0a       	sbc	r0, r16
      6e:	20 0d       	add	r18, r0
      70:	08 0b       	sbc	r16, r24
      72:	09 7f       	andi	r16, 0xF9	; 249
      74:	00 0a       	sbc	r0, r16
      76:	1b 0a       	sbc	r1, r27

00000078 <gKeyCode>:
      78:	d2 31       	cpi	r29, 0x12	; 18
      7a:	32 33       	cpi	r19, 0x32	; 50
      7c:	d2 34       	cpi	r29, 0x42	; 66
      7e:	35 2d       	mov	r19, r5
      80:	2e de       	rcall	.-932    	; 0xfffffcde <__eeprom_end+0xff7efcde>
      82:	2c 21       	and	r18, r12
      84:	3a ab       	std	Y+50, r19	; 0x32
      86:	3b 22       	and	r3, r27
      88:	61 62       	ori	r22, 0x21	; 33
      8a:	73 63       	ori	r23, 0x33	; 51
      8c:	64 65       	ori	r22, 0x54	; 84
      8e:	73 66       	ori	r23, 0x63	; 99
      90:	6d 6e       	ori	r22, 0xED	; 237
      92:	6f 7a       	andi	r22, 0xAF	; 175
      94:	70 71       	andi	r23, 0x10	; 16
      96:	72 7a       	andi	r23, 0xA2	; 162
      98:	c3 36       	cpi	r28, 0x63	; 99
      9a:	37 38       	cpi	r19, 0x87	; 135
      9c:	c3 39       	cpi	r28, 0x93	; 147
      9e:	30 2b       	or	r19, r16
      a0:	2a cd       	rjmp	.-1452   	; 0xfffffaf6 <__eeprom_end+0xff7efaf6>
      a2:	2f 24       	eor	r2, r15
      a4:	28 cd       	rjmp	.-1456   	; 0xfffffaf6 <__eeprom_end+0xff7efaf6>
      a6:	29 3d       	cpi	r18, 0xD9	; 217
      a8:	67 68       	ori	r22, 0x87	; 135
      aa:	73 69       	ori	r23, 0x93	; 147
      ac:	6a 6b       	ori	r22, 0xBA	; 186
      ae:	73 6c       	ori	r23, 0xC3	; 195
      b0:	74 75       	andi	r23, 0x54	; 84
      b2:	76 7a       	andi	r23, 0xA6	; 166
      b4:	77 78       	andi	r23, 0x87	; 135
      b6:	79 7a       	andi	r23, 0xA9	; 169
      b8:	00 7c       	andi	r16, 0xC0	; 192
      ba:	40 23       	and	r20, r16
      bc:	00 34       	cpi	r16, 0x40	; 64
      be:	35 2d       	mov	r19, r5
      c0:	7f 00       	.word	0x007f	; ????
      c2:	25 3f       	cpi	r18, 0xF5	; 245
      c4:	7b 00       	.word	0x007b	; ????
      c6:	7d 27       	eor	r23, r29
      c8:	41 42       	sbci	r20, 0x21	; 33
      ca:	53 43       	sbci	r21, 0x33	; 51
      cc:	44 45       	sbci	r20, 0x54	; 84
      ce:	53 46       	sbci	r21, 0x63	; 99
      d0:	4d 4e       	sbci	r20, 0xED	; 237
      d2:	4f 5a       	subi	r20, 0xAF	; 175
      d4:	50 51       	subi	r21, 0x10	; 16
      d6:	52 5a       	subi	r21, 0xA2	; 162
      d8:	00 36       	cpi	r16, 0x60	; 96
      da:	37 38       	cpi	r19, 0x87	; 135
      dc:	00 39       	cpi	r16, 0x90	; 144
      de:	3c 3e       	cpi	r19, 0xEC	; 236
      e0:	5e 00       	.word	0x005e	; ????
      e2:	5c 60       	ori	r21, 0x0C	; 12
      e4:	5b 00       	.word	0x005b	; ????
      e6:	5d 26       	eor	r5, r29
      e8:	47 48       	sbci	r20, 0x87	; 135
      ea:	53 49       	sbci	r21, 0x93	; 147
      ec:	4a 4b       	sbci	r20, 0xBA	; 186
      ee:	53 4c       	sbci	r21, 0xC3	; 195
      f0:	54 55       	subi	r21, 0x54	; 84
      f2:	56 5a       	subi	r21, 0xA6	; 166
      f4:	57 58       	subi	r21, 0x87	; 135
      f6:	59 5a       	subi	r21, 0xA9	; 169

000000f8 <kStartupImage>:
      f8:	10 05       	cpc	r17, r0
      fa:	05 20       	and	r0, r5
      fc:	20 20       	and	r2, r0
      fe:	20 20       	and	r2, r0
     100:	20 20       	and	r2, r0
     102:	20 20       	and	r2, r0
     104:	20 20       	and	r2, r0
     106:	05 20       	and	r0, r5
     108:	20 20       	and	r2, r0
     10a:	20 20       	and	r2, r0
     10c:	20 20       	and	r2, r0
     10e:	20 20       	and	r2, r0
     110:	20 84       	ldd	r2, Z+8	; 0x08
     112:	84 84       	ldd	r8, Z+12	; 0x0c
     114:	06 07       	cpc	r16, r22
     116:	84 84       	ldd	r8, Z+12	; 0x0c
     118:	84 84       	ldd	r8, Z+12	; 0x0c
     11a:	84 84       	ldd	r8, Z+12	; 0x0c
     11c:	84 06       	cpc	r8, r20
     11e:	84 84       	ldd	r8, Z+12	; 0x0c
     120:	84 84       	ldd	r8, Z+12	; 0x0c
     122:	07 84       	ldd	r0, Z+15	; 0x0f
     124:	84 84       	ldd	r8, Z+12	; 0x0c
     126:	84 84       	ldd	r8, Z+12	; 0x0c
     128:	84 84       	ldd	r8, Z+12	; 0x0c
     12a:	a0 20       	and	r10, r0
     12c:	20 15       	cp	r18, r0
     12e:	95 00       	.word	0x0095	; ????
     130:	a0 01       	movw	r20, r0
     132:	15 a0       	ldd	r1, Z+37	; 0x25
     134:	a0 01       	movw	r20, r0
     136:	15 95       	asr	r17
     138:	a0 20       	and	r10, r0
     13a:	15 95       	asr	r17
     13c:	00 a0       	ldd	r0, Z+32	; 0x20
     13e:	01 15       	cp	r16, r1
     140:	a0 a0       	ldd	r10, Z+32	; 0x20
     142:	01 a0       	ldd	r0, Z+33	; 0x21
     144:	20 20       	and	r2, r0
     146:	15 95       	asr	r17
     148:	a0 20       	and	r10, r0
     14a:	a0 15       	cp	r26, r0
     14c:	95 20       	and	r9, r5
     14e:	a0 15       	cp	r26, r0
     150:	95 a0       	ldd	r9, Z+37	; 0x25
     152:	20 15       	cp	r18, r0
     154:	95 a0       	ldd	r9, Z+37	; 0x25
     156:	20 a0       	ldd	r2, Z+32	; 0x20
     158:	15 95       	asr	r17
     15a:	20 a0       	ldd	r2, Z+32	; 0x20
     15c:	a0 20       	and	r10, r0
     15e:	20 15       	cp	r18, r0
     160:	95 02       	muls	r25, r21
     162:	a0 a0       	ldd	r10, Z+32	; 0x20
     164:	15 95       	asr	r17
     166:	20 a0       	ldd	r2, Z+32	; 0x20
     168:	15 95       	asr	r17
     16a:	02 a0       	ldd	r0, Z+34	; 0x22
     16c:	15 95       	asr	r17
     16e:	02 a0       	ldd	r0, Z+34	; 0x22
     170:	03 15       	cp	r16, r3
     172:	95 20       	and	r9, r5
     174:	a0 20       	and	r10, r0
     176:	20 20       	and	r2, r0
     178:	20 20       	and	r2, r0
     17a:	20 20       	and	r2, r0
     17c:	a0 20       	and	r10, r0
     17e:	20 20       	and	r2, r0
     180:	20 20       	and	r2, r0
     182:	20 20       	and	r2, r0
     184:	20 20       	and	r2, r0
     186:	20 20       	and	r2, r0
     188:	20 20       	and	r2, r0
     18a:	20 20       	and	r2, r0
     18c:	20 20       	and	r2, r0
     18e:	20 20       	and	r2, r0
     190:	20 20       	and	r2, r0
     192:	20 20       	and	r2, r0
     194:	a0 03       	fmuls	r18, r16
     196:	20 20       	and	r2, r0
     198:	20 20       	and	r2, r0
     19a:	20 20       	and	r2, r0
     19c:	20 20       	and	r2, r0
     19e:	20 20       	and	r2, r0
     1a0:	20 20       	and	r2, r0
     1a2:	20 20       	and	r2, r0
     1a4:	20 20       	and	r2, r0
     1a6:	20 3f       	cpi	r18, 0xF0	; 240

000001a7 <kChrSet>:
     1a7:	3f 7f       	andi	r19, 0xFF	; 255
     1a9:	ff ff       	.word	0xffff	; ????
     1ab:	ff ff       	.word	0xffff	; ????
     1ad:	ff ff       	.word	0xffff	; ????
     1af:	fc fe       	.word	0xfefc	; ????
     1b1:	ff ff       	.word	0xffff	; ????
     1b3:	ff ff       	.word	0xffff	; ????
     1b5:	ff ff       	.word	0xffff	; ????
     1b7:	ff ff       	.word	0xffff	; ????
     1b9:	ff ff       	.word	0xffff	; ????
     1bb:	ff ff       	.word	0xffff	; ????
     1bd:	7f 3f       	cpi	r23, 0xFF	; 255
     1bf:	ff ff       	.word	0xffff	; ????
     1c1:	ff ff       	.word	0xffff	; ????
     1c3:	ff ff       	.word	0xffff	; ????
     1c5:	fe fc       	.word	0xfcfe	; ????
     1c7:	00 ff       	sbrs	r16, 0
     1c9:	00 ff       	sbrs	r16, 0
     1cb:	00 ff       	sbrs	r16, 0
     1cd:	00 ff       	sbrs	r16, 0
     1cf:	ff ff       	.word	0xffff	; ????
     1d1:	ff ff       	.word	0xffff	; ????
     1d3:	ff ff       	.word	0xffff	; ????
     1d5:	ff 00       	.word	0x00ff	; ????
     1d7:	0f 0f       	add	r16, r31
     1d9:	0f 0f       	add	r16, r31
     1db:	0f 0f       	add	r16, r31
     1dd:	0f 00       	.word	0x000f	; ????
     1df:	f0 f0       	brcs	.+60     	; 0x21d <kChrSet+0x76>
     1e1:	f0 f0       	brcs	.+60     	; 0x21f <kChrSet+0x78>
     1e3:	f0 f0       	brcs	.+60     	; 0x221 <kChrSet+0x7a>
     1e5:	f0 00       	.word	0x00f0	; ????
     1e7:	ff 80       	ldd	r15, Y+7	; 0x07
     1e9:	80 80       	ld	r8, Z
     1eb:	80 80       	ld	r8, Z
     1ed:	80 80       	ld	r8, Z
     1ef:	ff 00       	.word	0x00ff	; ????
     1f1:	00 00       	nop
     1f3:	00 00       	nop
     1f5:	00 00       	nop
     1f7:	ff 01       	movw	r30, r30
     1f9:	01 01       	movw	r0, r2
     1fb:	01 01       	movw	r0, r2
     1fd:	01 01       	movw	r0, r2
     1ff:	80 80       	ld	r8, Z
     201:	80 80       	ld	r8, Z
     203:	80 80       	ld	r8, Z
     205:	80 80       	ld	r8, Z
     207:	01 01       	movw	r0, r2
     209:	01 01       	movw	r0, r2
     20b:	01 01       	movw	r0, r2
     20d:	01 01       	movw	r0, r2
     20f:	80 80       	ld	r8, Z
     211:	80 80       	ld	r8, Z
     213:	80 80       	ld	r8, Z
     215:	80 ff       	sbrs	r24, 0
     217:	00 00       	nop
     219:	00 00       	nop
     21b:	00 00       	nop
     21d:	00 ff       	sbrs	r16, 0
     21f:	01 01       	movw	r0, r2
     221:	01 01       	movw	r0, r2
     223:	01 01       	movw	r0, r2
     225:	01 ff       	sbrs	r16, 1
     227:	3f 7f       	andi	r19, 0xFF	; 255
     229:	ff ff       	.word	0xffff	; ????
     22b:	ff ff       	.word	0xffff	; ????
     22d:	ff 00       	.word	0x00ff	; ????
     22f:	0f 0f       	add	r16, r31
     231:	0f 0f       	add	r16, r31
     233:	00 00       	nop
     235:	00 00       	nop
     237:	f0 f0       	brcs	.+60     	; 0x275 <kChrSet+0xce>
     239:	f0 f0       	brcs	.+60     	; 0x277 <kChrSet+0xd0>
     23b:	00 00       	nop
     23d:	00 00       	nop
     23f:	ff ff       	.word	0xffff	; ????
     241:	ff ff       	.word	0xffff	; ????
	...
     24b:	0f 0f       	add	r16, r31
     24d:	0f 0f       	add	r16, r31
     24f:	0f 0f       	add	r16, r31
     251:	0f 0f       	add	r16, r31
     253:	0f 0f       	add	r16, r31
     255:	0f 0f       	add	r16, r31
     257:	f0 f0       	brcs	.+60     	; 0x295 <kChrSet+0xee>
     259:	f0 f0       	brcs	.+60     	; 0x297 <kChrSet+0xf0>
     25b:	0f 0f       	add	r16, r31
     25d:	0f 0f       	add	r16, r31
     25f:	ff ff       	.word	0xffff	; ????
     261:	ff ff       	.word	0xffff	; ????
     263:	0f 0f       	add	r16, r31
     265:	0f 0f       	add	r16, r31
     267:	00 00       	nop
     269:	00 00       	nop
     26b:	55 aa       	std	Z+53, r5	; 0x35
     26d:	55 aa       	std	Z+53, r5	; 0x35
     26f:	55 aa       	std	Z+53, r5	; 0x35
     271:	55 aa       	std	Z+53, r5	; 0x35
     273:	00 00       	nop
     275:	00 00       	nop
     277:	50 50       	subi	r21, 0x00	; 0
     279:	50 50       	subi	r21, 0x00	; 0
     27b:	50 50       	subi	r21, 0x00	; 0
     27d:	50 50       	subi	r21, 0x00	; 0
     27f:	55 aa       	std	Z+53, r5	; 0x35
     281:	55 aa       	std	Z+53, r5	; 0x35
     283:	55 aa       	std	Z+53, r5	; 0x35
     285:	55 aa       	std	Z+53, r5	; 0x35
     287:	00 00       	nop
     289:	18 3c       	cpi	r17, 0xC8	; 200
     28b:	3c 18       	sub	r3, r12
     28d:	00 00       	nop
     28f:	3c 7e       	andi	r19, 0xEC	; 236
     291:	ff ff       	.word	0xffff	; ????
     293:	ff ff       	.word	0xffff	; ????
     295:	7e 3c       	cpi	r23, 0xCE	; 206
     297:	3e 41       	sbci	r19, 0x1E	; 30
     299:	9c ac       	ldd	r9, Y+60	; 0x3c
     29b:	9f 40       	sbci	r25, 0x0F	; 15
     29d:	3f 00       	.word	0x003f	; ????
     29f:	00 00       	nop
     2a1:	8e 95 26 c8 	call	0x61904c	; 0x61904c <RamDict+0x610fca>
     2a5:	f0 00       	.word	0x00f0	; ????
	...
     2af:	00 10       	cpse	r0, r0
     2b1:	10 10       	cpse	r1, r0
     2b3:	10 00       	.word	0x0010	; ????
     2b5:	10 00       	.word	0x0010	; ????
     2b7:	00 24       	eor	r0, r0
     2b9:	24 00       	.word	0x0024	; ????
     2bb:	00 00       	nop
     2bd:	00 00       	nop
     2bf:	00 24       	eor	r0, r0
     2c1:	7e 24       	eor	r7, r14
     2c3:	24 7e       	andi	r18, 0xE4	; 228
     2c5:	24 00       	.word	0x0024	; ????
     2c7:	00 08       	sbc	r0, r0
     2c9:	1e 28       	or	r1, r14
     2cb:	1c 0a       	sbc	r1, r28
     2cd:	3c 08       	sbc	r3, r12
     2cf:	00 62       	ori	r16, 0x20	; 32
     2d1:	64 08       	sbc	r6, r4
     2d3:	10 26       	eor	r1, r16
     2d5:	46 00       	.word	0x0046	; ????
     2d7:	00 10       	cpse	r0, r0
     2d9:	28 10       	cpse	r2, r8
     2db:	2a 44       	sbci	r18, 0x4A	; 74
     2dd:	3a 00       	.word	0x003a	; ????
     2df:	00 08       	sbc	r0, r0
     2e1:	10 00       	.word	0x0010	; ????
     2e3:	00 00       	nop
     2e5:	00 00       	nop
     2e7:	00 04       	cpc	r0, r0
     2e9:	08 08       	sbc	r0, r8
     2eb:	08 08       	sbc	r0, r8
     2ed:	04 00       	.word	0x0004	; ????
     2ef:	00 20       	and	r0, r0
     2f1:	10 10       	cpse	r1, r0
     2f3:	10 10       	cpse	r1, r0
     2f5:	20 00       	.word	0x0020	; ????
     2f7:	00 00       	nop
     2f9:	14 08       	sbc	r1, r4
     2fb:	3e 08       	sbc	r3, r14
     2fd:	14 00       	.word	0x0014	; ????
     2ff:	00 00       	nop
     301:	08 08       	sbc	r0, r8
     303:	3e 08       	sbc	r3, r14
     305:	08 00       	.word	0x0008	; ????
     307:	00 00       	nop
     309:	00 00       	nop
     30b:	00 08       	sbc	r0, r0
     30d:	08 10       	cpse	r0, r8
     30f:	00 00       	nop
     311:	00 00       	nop
     313:	3e 00       	.word	0x003e	; ????
     315:	00 00       	nop
     317:	00 00       	nop
     319:	00 00       	nop
     31b:	00 18       	sub	r0, r0
     31d:	18 00       	.word	0x0018	; ????
     31f:	00 00       	nop
     321:	02 04       	cpc	r0, r2
     323:	08 10       	cpse	r0, r8
     325:	20 00       	.word	0x0020	; ????
     327:	00 3c       	cpi	r16, 0xC0	; 192
     329:	46 4a       	sbci	r20, 0xA6	; 166
     32b:	52 62       	ori	r21, 0x22	; 34
     32d:	3c 00       	.word	0x003c	; ????
     32f:	00 18       	sub	r0, r0
     331:	28 08       	sbc	r2, r8
     333:	08 08       	sbc	r0, r8
     335:	3e 00       	.word	0x003e	; ????
     337:	00 3c       	cpi	r16, 0xC0	; 192
     339:	42 02       	muls	r20, r18
     33b:	3c 40       	sbci	r19, 0x0C	; 12
     33d:	7e 00       	.word	0x007e	; ????
     33f:	00 3c       	cpi	r16, 0xC0	; 192
     341:	42 0c       	add	r4, r2
     343:	02 42       	sbci	r16, 0x22	; 34
     345:	3c 00       	.word	0x003c	; ????
     347:	00 08       	sbc	r0, r0
     349:	18 28       	or	r1, r8
     34b:	48 7e       	andi	r20, 0xE8	; 232
     34d:	08 00       	.word	0x0008	; ????
     34f:	00 7e       	andi	r16, 0xE0	; 224
     351:	40 7c       	andi	r20, 0xC0	; 192
     353:	02 42       	sbci	r16, 0x22	; 34
     355:	3c 00       	.word	0x003c	; ????
     357:	00 3c       	cpi	r16, 0xC0	; 192
     359:	40 7c       	andi	r20, 0xC0	; 192
     35b:	42 42       	sbci	r20, 0x22	; 34
     35d:	3c 00       	.word	0x003c	; ????
     35f:	00 7e       	andi	r16, 0xE0	; 224
     361:	02 04       	cpc	r0, r2
     363:	08 10       	cpse	r0, r8
     365:	10 00       	.word	0x0010	; ????
     367:	00 3c       	cpi	r16, 0xC0	; 192
     369:	42 3c       	cpi	r20, 0xC2	; 194
     36b:	42 42       	sbci	r20, 0x22	; 34
     36d:	3c 00       	.word	0x003c	; ????
     36f:	00 3c       	cpi	r16, 0xC0	; 192
     371:	42 42       	sbci	r20, 0x22	; 34
     373:	3e 02       	muls	r19, r30
     375:	3c 00       	.word	0x003c	; ????
     377:	00 00       	nop
     379:	00 10       	cpse	r0, r0
     37b:	00 00       	nop
     37d:	10 00       	.word	0x0010	; ????
     37f:	00 00       	nop
     381:	10 00       	.word	0x0010	; ????
     383:	00 10       	cpse	r0, r0
     385:	10 20       	and	r1, r0
     387:	00 00       	nop
     389:	04 08       	sbc	r0, r4
     38b:	10 08       	sbc	r1, r0
     38d:	04 00       	.word	0x0004	; ????
     38f:	00 00       	nop
     391:	00 3e       	cpi	r16, 0xE0	; 224
     393:	00 3e       	cpi	r16, 0xE0	; 224
     395:	00 00       	nop
     397:	00 00       	nop
     399:	10 08       	sbc	r1, r0
     39b:	04 08       	sbc	r0, r4
     39d:	10 00       	.word	0x0010	; ????
     39f:	00 3c       	cpi	r16, 0xC0	; 192
     3a1:	42 04       	cpc	r4, r2
     3a3:	08 00       	.word	0x0008	; ????
     3a5:	08 00       	.word	0x0008	; ????
     3a7:	00 3c       	cpi	r16, 0xC0	; 192
     3a9:	4a 56       	subi	r20, 0x6A	; 106
     3ab:	5e 40       	sbci	r21, 0x0E	; 14
     3ad:	3c 00       	.word	0x003c	; ????
     3af:	00 3c       	cpi	r16, 0xC0	; 192
     3b1:	42 42       	sbci	r20, 0x22	; 34
     3b3:	7e 42       	sbci	r23, 0x2E	; 46
     3b5:	42 00       	.word	0x0042	; ????
     3b7:	00 7c       	andi	r16, 0xC0	; 192
     3b9:	42 7c       	andi	r20, 0xC2	; 194
     3bb:	42 42       	sbci	r20, 0x22	; 34
     3bd:	7c 00       	.word	0x007c	; ????
     3bf:	00 3c       	cpi	r16, 0xC0	; 192
     3c1:	42 40       	sbci	r20, 0x02	; 2
     3c3:	40 42       	sbci	r20, 0x20	; 32
     3c5:	3c 00       	.word	0x003c	; ????
     3c7:	00 78       	andi	r16, 0x80	; 128
     3c9:	44 42       	sbci	r20, 0x24	; 36
     3cb:	42 44       	sbci	r20, 0x42	; 66
     3cd:	78 00       	.word	0x0078	; ????
     3cf:	00 7e       	andi	r16, 0xE0	; 224
     3d1:	40 7c       	andi	r20, 0xC0	; 192
     3d3:	40 40       	sbci	r20, 0x00	; 0
     3d5:	7e 00       	.word	0x007e	; ????
     3d7:	00 7e       	andi	r16, 0xE0	; 224
     3d9:	40 7c       	andi	r20, 0xC0	; 192
     3db:	40 40       	sbci	r20, 0x00	; 0
     3dd:	40 00       	.word	0x0040	; ????
     3df:	00 3c       	cpi	r16, 0xC0	; 192
     3e1:	42 40       	sbci	r20, 0x02	; 2
     3e3:	4e 42       	sbci	r20, 0x2E	; 46
     3e5:	3c 00       	.word	0x003c	; ????
     3e7:	00 42       	sbci	r16, 0x20	; 32
     3e9:	42 7e       	andi	r20, 0xE2	; 226
     3eb:	42 42       	sbci	r20, 0x22	; 34
     3ed:	42 00       	.word	0x0042	; ????
     3ef:	00 3e       	cpi	r16, 0xE0	; 224
     3f1:	08 08       	sbc	r0, r8
     3f3:	08 08       	sbc	r0, r8
     3f5:	3e 00       	.word	0x003e	; ????
     3f7:	00 02       	muls	r16, r16
     3f9:	02 02       	muls	r16, r18
     3fb:	42 42       	sbci	r20, 0x22	; 34
     3fd:	3c 00       	.word	0x003c	; ????
     3ff:	00 44       	sbci	r16, 0x40	; 64
     401:	48 70       	andi	r20, 0x08	; 8
     403:	48 44       	sbci	r20, 0x48	; 72
     405:	42 00       	.word	0x0042	; ????
     407:	00 40       	sbci	r16, 0x00	; 0
     409:	40 40       	sbci	r20, 0x00	; 0
     40b:	40 40       	sbci	r20, 0x00	; 0
     40d:	7e 00       	.word	0x007e	; ????
     40f:	00 42       	sbci	r16, 0x20	; 32
     411:	66 5a       	subi	r22, 0xA6	; 166
     413:	42 42       	sbci	r20, 0x22	; 34
     415:	42 00       	.word	0x0042	; ????
     417:	00 42       	sbci	r16, 0x20	; 32
     419:	62 52       	subi	r22, 0x22	; 34
     41b:	4a 46       	sbci	r20, 0x6A	; 106
     41d:	42 00       	.word	0x0042	; ????
     41f:	00 3c       	cpi	r16, 0xC0	; 192
     421:	42 42       	sbci	r20, 0x22	; 34
     423:	42 42       	sbci	r20, 0x22	; 34
     425:	3c 00       	.word	0x003c	; ????
     427:	00 7c       	andi	r16, 0xC0	; 192
     429:	42 42       	sbci	r20, 0x22	; 34
     42b:	7c 40       	sbci	r23, 0x0C	; 12
     42d:	40 00       	.word	0x0040	; ????
     42f:	00 3c       	cpi	r16, 0xC0	; 192
     431:	42 42       	sbci	r20, 0x22	; 34
     433:	52 4a       	sbci	r21, 0xA2	; 162
     435:	3c 00       	.word	0x003c	; ????
     437:	00 7c       	andi	r16, 0xC0	; 192
     439:	42 42       	sbci	r20, 0x22	; 34
     43b:	7c 44       	sbci	r23, 0x4C	; 76
     43d:	42 00       	.word	0x0042	; ????
     43f:	00 3c       	cpi	r16, 0xC0	; 192
     441:	40 3c       	cpi	r20, 0xC0	; 192
     443:	02 42       	sbci	r16, 0x22	; 34
     445:	3c 00       	.word	0x003c	; ????
     447:	00 fe       	sbrs	r0, 0
     449:	10 10       	cpse	r1, r0
     44b:	10 10       	cpse	r1, r0
     44d:	10 00       	.word	0x0010	; ????
     44f:	00 42       	sbci	r16, 0x20	; 32
     451:	42 42       	sbci	r20, 0x22	; 34
     453:	42 42       	sbci	r20, 0x22	; 34
     455:	3c 00       	.word	0x003c	; ????
     457:	00 42       	sbci	r16, 0x20	; 32
     459:	42 42       	sbci	r20, 0x22	; 34
     45b:	42 24       	eor	r4, r2
     45d:	18 00       	.word	0x0018	; ????
     45f:	00 41       	sbci	r16, 0x10	; 16
     461:	41 2a       	or	r4, r17
     463:	2a 14       	cp	r2, r10
     465:	14 00       	.word	0x0014	; ????
     467:	00 42       	sbci	r16, 0x20	; 32
     469:	24 18       	sub	r2, r4
     46b:	18 24       	eor	r1, r8
     46d:	42 00       	.word	0x0042	; ????
     46f:	00 82       	st	Z, r0
     471:	44 28       	or	r4, r4
     473:	10 10       	cpse	r1, r0
     475:	10 00       	.word	0x0010	; ????
     477:	00 7e       	andi	r16, 0xE0	; 224
     479:	04 08       	sbc	r0, r4
     47b:	10 20       	and	r1, r0
     47d:	7e 00       	.word	0x007e	; ????
     47f:	00 0e       	add	r0, r16
     481:	08 08       	sbc	r0, r8
     483:	08 08       	sbc	r0, r8
     485:	0e 00       	.word	0x000e	; ????
     487:	00 00       	nop
     489:	40 20       	and	r4, r0
     48b:	10 08       	sbc	r1, r0
     48d:	04 00       	.word	0x0004	; ????
     48f:	00 70       	andi	r16, 0x00	; 0
     491:	10 10       	cpse	r1, r0
     493:	10 10       	cpse	r1, r0
     495:	70 00       	.word	0x0070	; ????
     497:	00 10       	cpse	r0, r0
     499:	28 44       	sbci	r18, 0x48	; 72
	...
     4a3:	00 00       	nop
     4a5:	00 ff       	sbrs	r16, 0
     4a7:	00 1c       	adc	r0, r0
     4a9:	22 78       	andi	r18, 0x82	; 130
     4ab:	20 20       	and	r2, r0
     4ad:	7e 00       	.word	0x007e	; ????
     4af:	00 00       	nop
     4b1:	38 04       	cpc	r3, r8
     4b3:	3c 44       	sbci	r19, 0x4C	; 76
     4b5:	3c 00       	.word	0x003c	; ????
     4b7:	00 20       	and	r0, r0
     4b9:	20 3c       	cpi	r18, 0xC0	; 192
     4bb:	22 22       	and	r2, r18
     4bd:	3c 00       	.word	0x003c	; ????
     4bf:	00 00       	nop
     4c1:	1c 20       	and	r1, r12
     4c3:	20 20       	and	r2, r0
     4c5:	1c 00       	.word	0x001c	; ????
     4c7:	00 04       	cpc	r0, r0
     4c9:	04 3c       	cpi	r16, 0xC4	; 196
     4cb:	44 44       	sbci	r20, 0x44	; 68
     4cd:	3c 00       	.word	0x003c	; ????
     4cf:	00 00       	nop
     4d1:	38 44       	sbci	r19, 0x48	; 72
     4d3:	78 40       	sbci	r23, 0x08	; 8
     4d5:	3c 00       	.word	0x003c	; ????
     4d7:	00 0c       	add	r0, r0
     4d9:	10 18       	sub	r1, r0
     4db:	10 10       	cpse	r1, r0
     4dd:	10 00       	.word	0x0010	; ????
     4df:	00 00       	nop
     4e1:	3c 44       	sbci	r19, 0x4C	; 76
     4e3:	44 3c       	cpi	r20, 0xC4	; 196
     4e5:	04 38       	cpi	r16, 0x84	; 132
     4e7:	00 40       	sbci	r16, 0x00	; 0
     4e9:	40 78       	andi	r20, 0x80	; 128
     4eb:	44 44       	sbci	r20, 0x44	; 68
     4ed:	44 00       	.word	0x0044	; ????
     4ef:	00 10       	cpse	r0, r0
     4f1:	00 30       	cpi	r16, 0x00	; 0
     4f3:	10 10       	cpse	r1, r0
     4f5:	38 00       	.word	0x0038	; ????
     4f7:	00 04       	cpc	r0, r0
     4f9:	00 04       	cpc	r0, r0
     4fb:	04 04       	cpc	r0, r4
     4fd:	24 18       	sub	r2, r4
     4ff:	00 20       	and	r0, r0
     501:	28 30       	cpi	r18, 0x08	; 8
     503:	30 28       	or	r3, r0
     505:	24 00       	.word	0x0024	; ????
     507:	00 10       	cpse	r0, r0
     509:	10 10       	cpse	r1, r0
     50b:	10 10       	cpse	r1, r0
     50d:	0c 00       	.word	0x000c	; ????
     50f:	00 00       	nop
     511:	68 54       	subi	r22, 0x48	; 72
     513:	54 54       	subi	r21, 0x44	; 68
     515:	54 00       	.word	0x0054	; ????
     517:	00 00       	nop
     519:	78 44       	sbci	r23, 0x48	; 72
     51b:	44 44       	sbci	r20, 0x44	; 68
     51d:	44 00       	.word	0x0044	; ????
     51f:	00 00       	nop
     521:	38 44       	sbci	r19, 0x48	; 72
     523:	44 44       	sbci	r20, 0x44	; 68
     525:	38 00       	.word	0x0038	; ????
     527:	00 00       	nop
     529:	78 44       	sbci	r23, 0x48	; 72
     52b:	44 78       	andi	r20, 0x84	; 132
     52d:	40 40       	sbci	r20, 0x00	; 0
     52f:	00 00       	nop
     531:	3c 44       	sbci	r19, 0x4C	; 76
     533:	44 3c       	cpi	r20, 0xC4	; 196
     535:	04 06       	cpc	r0, r20
     537:	00 00       	nop
     539:	1c 20       	and	r1, r12
     53b:	20 20       	and	r2, r0
     53d:	20 00       	.word	0x0020	; ????
     53f:	00 00       	nop
     541:	38 40       	sbci	r19, 0x08	; 8
     543:	38 04       	cpc	r3, r8
     545:	78 00       	.word	0x0078	; ????
     547:	00 10       	cpse	r0, r0
     549:	38 10       	cpse	r3, r8
     54b:	10 10       	cpse	r1, r0
     54d:	0c 00       	.word	0x000c	; ????
     54f:	00 00       	nop
     551:	44 44       	sbci	r20, 0x44	; 68
     553:	44 44       	sbci	r20, 0x44	; 68
     555:	38 00       	.word	0x0038	; ????
     557:	00 00       	nop
     559:	44 44       	sbci	r20, 0x44	; 68
     55b:	28 28       	or	r2, r8
     55d:	10 00       	.word	0x0010	; ????
     55f:	00 00       	nop
     561:	44 54       	subi	r20, 0x44	; 68
     563:	54 54       	subi	r21, 0x44	; 68
     565:	28 00       	.word	0x0028	; ????
     567:	00 00       	nop
     569:	44 28       	or	r4, r4
     56b:	10 28       	or	r1, r0
     56d:	44 00       	.word	0x0044	; ????
     56f:	00 00       	nop
     571:	44 44       	sbci	r20, 0x44	; 68
     573:	44 3c       	cpi	r20, 0xC4	; 196
     575:	04 38       	cpi	r16, 0x84	; 132
     577:	00 00       	nop
     579:	7c 08       	sbc	r7, r12
     57b:	10 20       	and	r1, r0
     57d:	7c 00       	.word	0x007c	; ????
     57f:	04 08       	sbc	r0, r4
     581:	08 30       	cpi	r16, 0x08	; 8
     583:	08 08       	sbc	r0, r8
     585:	04 00       	.word	0x0004	; ????
     587:	00 08       	sbc	r0, r0
     589:	08 08       	sbc	r0, r8
     58b:	08 08       	sbc	r0, r8
     58d:	08 00       	.word	0x0008	; ????
     58f:	20 10       	cpse	r2, r0
     591:	10 0c       	add	r1, r0
     593:	10 10       	cpse	r1, r0
     595:	20 00       	.word	0x0020	; ????
     597:	00 14       	cp	r0, r0
     599:	28 00       	.word	0x0028	; ????
     59b:	00 00       	nop
     59d:	00 00       	nop
     59f:	3c 42       	sbci	r19, 0x2C	; 44
     5a1:	99 a1       	ldd	r25, Y+33	; 0x21
     5a3:	a1 99       	sbic	0x14, 1	; 20
     5a5:	42 3c       	cpi	r20, 0xC2	; 194
	...

000005a8 <__ctors_end>:
     5a8:	11 24       	eor	r1, r1
     5aa:	1f be       	out	0x3f, r1	; 63
     5ac:	cf ef       	ldi	r28, 0xFF	; 255
     5ae:	d4 e0       	ldi	r29, 0x04	; 4
     5b0:	de bf       	out	0x3e, r29	; 62
     5b2:	cd bf       	out	0x3d, r28	; 61

000005b4 <__do_clear_bss>:
     5b4:	13 e0       	ldi	r17, 0x03	; 3
     5b6:	a6 e0       	ldi	r26, 0x06	; 6
     5b8:	b1 e0       	ldi	r27, 0x01	; 1
     5ba:	01 c0       	rjmp	.+2      	; 0x5be <.do_clear_bss_start>

000005bc <.do_clear_bss_loop>:
     5bc:	1d 92       	st	X+, r1

000005be <.do_clear_bss_start>:
     5be:	a8 3f       	cpi	r26, 0xF8	; 248
     5c0:	b1 07       	cpc	r27, r17
     5c2:	e1 f7       	brne	.-8      	; 0x5bc <.do_clear_bss_loop>
     5c4:	0e 94 b3 03 	call	0x766	; 0x766 <main>
     5c8:	0c 94 01 13 	jmp	0x2602	; 0x2602 <_exit>

000005cc <__bad_interrupt>:
     5cc:	0c 94 00 00 	jmp	0	; 0x0 <__vectors>

000005d0 <SerialFlashWriteEnable>:
     5d0:	2a 98       	cbi	0x05, 2	; 5
     5d2:	86 e0       	ldi	r24, 0x06	; 6
     5d4:	0e 94 23 0c 	call	0x1846	; 0x1846 <SpiMasterTransmit>
     5d8:	2a 9a       	sbi	0x05, 2	; 5
     5da:	08 95       	ret

000005dc <SerialFlashReadBlock>:
     5dc:	0f 93       	push	r16
     5de:	1f 93       	push	r17
     5e0:	cf 93       	push	r28
     5e2:	df 93       	push	r29
     5e4:	8c 01       	movw	r16, r24
     5e6:	eb 01       	movw	r28, r22
     5e8:	2a 98       	cbi	0x05, 2	; 5
     5ea:	83 e0       	ldi	r24, 0x03	; 3
     5ec:	0e 94 23 0c 	call	0x1846	; 0x1846 <SpiMasterTransmit>
     5f0:	81 2f       	mov	r24, r17
     5f2:	0e 94 23 0c 	call	0x1846	; 0x1846 <SpiMasterTransmit>
     5f6:	80 2f       	mov	r24, r16
     5f8:	0e 94 23 0c 	call	0x1846	; 0x1846 <SpiMasterTransmit>
     5fc:	80 e0       	ldi	r24, 0x00	; 0
     5fe:	0e 94 23 0c 	call	0x1846	; 0x1846 <SpiMasterTransmit>
     602:	00 e0       	ldi	r16, 0x00	; 0
     604:	10 e0       	ldi	r17, 0x00	; 0
     606:	0e 94 28 0c 	call	0x1850	; 0x1850 <SpiMasterAutoReadByte>
     60a:	89 93       	st	Y+, r24
     60c:	0f 5f       	subi	r16, 0xFF	; 255
     60e:	1f 4f       	sbci	r17, 0xFF	; 255
     610:	81 e0       	ldi	r24, 0x01	; 1
     612:	00 30       	cpi	r16, 0x00	; 0
     614:	18 07       	cpc	r17, r24
     616:	b9 f7       	brne	.-18     	; 0x606 <SerialFlashReadBlock+0x2a>
     618:	2a 9a       	sbi	0x05, 2	; 5
     61a:	df 91       	pop	r29
     61c:	cf 91       	pop	r28
     61e:	1f 91       	pop	r17
     620:	0f 91       	pop	r16
     622:	08 95       	ret

00000624 <SerialFlashID>:
     624:	0f 93       	push	r16
     626:	1f 93       	push	r17
     628:	2a 98       	cbi	0x05, 2	; 5
     62a:	8f e9       	ldi	r24, 0x9F	; 159
     62c:	0e 94 23 0c 	call	0x1846	; 0x1846 <SpiMasterTransmit>
     630:	0e 94 28 0c 	call	0x1850	; 0x1850 <SpiMasterAutoReadByte>
     634:	90 e0       	ldi	r25, 0x00	; 0
     636:	8f 37       	cpi	r24, 0x7F	; 127
     638:	91 05       	cpc	r25, r1
     63a:	19 f4       	brne	.+6      	; 0x642 <SerialFlashID+0x1e>
     63c:	0e 94 28 0c 	call	0x1850	; 0x1850 <SpiMasterAutoReadByte>
     640:	90 e0       	ldi	r25, 0x00	; 0
     642:	c7 97       	sbiw	r24, 0x37	; 55
     644:	19 f0       	breq	.+6      	; 0x64c <SerialFlashID+0x28>
     646:	2f ef       	ldi	r18, 0xFF	; 255
     648:	3f ef       	ldi	r19, 0xFF	; 255
     64a:	0a c0       	rjmp	.+20     	; 0x660 <SerialFlashID+0x3c>
     64c:	0e 94 28 0c 	call	0x1850	; 0x1850 <SpiMasterAutoReadByte>
     650:	18 2f       	mov	r17, r24
     652:	00 e0       	ldi	r16, 0x00	; 0
     654:	0e 94 28 0c 	call	0x1850	; 0x1850 <SpiMasterAutoReadByte>
     658:	28 2f       	mov	r18, r24
     65a:	30 e0       	ldi	r19, 0x00	; 0
     65c:	20 2b       	or	r18, r16
     65e:	31 2b       	or	r19, r17
     660:	2a 9a       	sbi	0x05, 2	; 5
     662:	c9 01       	movw	r24, r18
     664:	1f 91       	pop	r17
     666:	0f 91       	pop	r16
     668:	08 95       	ret

0000066a <SerialFlashRDSR>:
     66a:	2a 98       	cbi	0x05, 2	; 5
     66c:	85 e0       	ldi	r24, 0x05	; 5
     66e:	0e 94 23 0c 	call	0x1846	; 0x1846 <SpiMasterTransmit>
     672:	0e 94 28 0c 	call	0x1850	; 0x1850 <SpiMasterAutoReadByte>
     676:	2a 9a       	sbi	0x05, 2	; 5
     678:	08 95       	ret

0000067a <SerialFlashWaitReady>:
     67a:	0e 94 35 03 	call	0x66a	; 0x66a <SerialFlashRDSR>
     67e:	80 fd       	sbrc	r24, 0
     680:	fc cf       	rjmp	.-8      	; 0x67a <SerialFlashWaitReady>
     682:	08 95       	ret

00000684 <SerialFlashWriteBlock>:
     684:	0f 93       	push	r16
     686:	1f 93       	push	r17
     688:	cf 93       	push	r28
     68a:	df 93       	push	r29
     68c:	8c 01       	movw	r16, r24
     68e:	eb 01       	movw	r28, r22
     690:	0e 94 e8 02 	call	0x5d0	; 0x5d0 <SerialFlashWriteEnable>
     694:	2a 98       	cbi	0x05, 2	; 5
     696:	82 e0       	ldi	r24, 0x02	; 2
     698:	0e 94 23 0c 	call	0x1846	; 0x1846 <SpiMasterTransmit>
     69c:	81 2f       	mov	r24, r17
     69e:	0e 94 23 0c 	call	0x1846	; 0x1846 <SpiMasterTransmit>
     6a2:	80 2f       	mov	r24, r16
     6a4:	0e 94 23 0c 	call	0x1846	; 0x1846 <SpiMasterTransmit>
     6a8:	80 e0       	ldi	r24, 0x00	; 0
     6aa:	0e 94 23 0c 	call	0x1846	; 0x1846 <SpiMasterTransmit>
     6ae:	00 e0       	ldi	r16, 0x00	; 0
     6b0:	10 e0       	ldi	r17, 0x00	; 0
     6b2:	89 91       	ld	r24, Y+
     6b4:	0e 94 23 0c 	call	0x1846	; 0x1846 <SpiMasterTransmit>
     6b8:	0f 5f       	subi	r16, 0xFF	; 255
     6ba:	1f 4f       	sbci	r17, 0xFF	; 255
     6bc:	81 e0       	ldi	r24, 0x01	; 1
     6be:	00 30       	cpi	r16, 0x00	; 0
     6c0:	18 07       	cpc	r17, r24
     6c2:	b9 f7       	brne	.-18     	; 0x6b2 <SerialFlashWriteBlock+0x2e>
     6c4:	2a 9a       	sbi	0x05, 2	; 5
     6c6:	0e 94 3d 03 	call	0x67a	; 0x67a <SerialFlashWaitReady>
     6ca:	df 91       	pop	r29
     6cc:	cf 91       	pop	r28
     6ce:	1f 91       	pop	r17
     6d0:	0f 91       	pop	r16
     6d2:	08 95       	ret

000006d4 <SerialFlashEraseSector>:
     6d4:	0f 93       	push	r16
     6d6:	1f 93       	push	r17
     6d8:	cf 93       	push	r28
     6da:	df 93       	push	r29
     6dc:	8c 01       	movw	r16, r24
     6de:	0e 94 12 03 	call	0x624	; 0x624 <SerialFlashID>
     6e2:	80 70       	andi	r24, 0x00	; 0
     6e4:	80 50       	subi	r24, 0x00	; 0
     6e6:	90 42       	sbci	r25, 0x20	; 32
     6e8:	19 f4       	brne	.+6      	; 0x6f0 <SerialFlashEraseSector+0x1c>
     6ea:	c8 ed       	ldi	r28, 0xD8	; 216
     6ec:	d0 e0       	ldi	r29, 0x00	; 0
     6ee:	02 c0       	rjmp	.+4      	; 0x6f4 <SerialFlashEraseSector+0x20>
     6f0:	c0 e2       	ldi	r28, 0x20	; 32
     6f2:	d0 e0       	ldi	r29, 0x00	; 0
     6f4:	0e 94 e8 02 	call	0x5d0	; 0x5d0 <SerialFlashWriteEnable>
     6f8:	2a 98       	cbi	0x05, 2	; 5
     6fa:	8c 2f       	mov	r24, r28
     6fc:	0e 94 23 0c 	call	0x1846	; 0x1846 <SpiMasterTransmit>
     700:	81 2f       	mov	r24, r17
     702:	0e 94 23 0c 	call	0x1846	; 0x1846 <SpiMasterTransmit>
     706:	80 2f       	mov	r24, r16
     708:	0e 94 23 0c 	call	0x1846	; 0x1846 <SpiMasterTransmit>
     70c:	80 e0       	ldi	r24, 0x00	; 0
     70e:	0e 94 23 0c 	call	0x1846	; 0x1846 <SpiMasterTransmit>
     712:	2a 9a       	sbi	0x05, 2	; 5
     714:	0e 94 3d 03 	call	0x67a	; 0x67a <SerialFlashWaitReady>
     718:	df 91       	pop	r29
     71a:	cf 91       	pop	r28
     71c:	1f 91       	pop	r17
     71e:	0f 91       	pop	r16
     720:	08 95       	ret

00000722 <FignitionInit>:
     722:	83 b7       	in	r24, 0x33	; 51
     724:	81 60       	ori	r24, 0x01	; 1
     726:	83 bf       	out	0x33, r24	; 51
     728:	10 92 c1 00 	sts	0x00C1, r1
     72c:	80 e1       	ldi	r24, 0x10	; 16
     72e:	87 b9       	out	0x07, r24	; 7
     730:	3d 98       	cbi	0x07, 5	; 7
     732:	45 9a       	sbi	0x08, 5	; 8
     734:	8a b1       	in	r24, 0x0a	; 10
     736:	8e 7b       	andi	r24, 0xBE	; 190
     738:	8a b9       	out	0x0a, r24	; 10
     73a:	8b b1       	in	r24, 0x0b	; 11
     73c:	81 64       	ori	r24, 0x41	; 65
     73e:	8b b9       	out	0x0b, r24	; 11
     740:	1e ba       	out	0x1e, r1	; 30
     742:	0e 94 a6 11 	call	0x234c	; 0x234c <VideoCopyUDGs>
     746:	0e 94 bd 06 	call	0xd7a	; 0xd7a <KeyInit>
     74a:	0e 94 15 0c 	call	0x182a	; 0x182a <SpiMasterInit>
     74e:	0e 94 04 0c 	call	0x1808	; 0x1808 <SramInit>
     752:	1e ba       	out	0x1e, r1	; 30
     754:	10 92 6b 00 	sts	0x006B, r1
     758:	10 92 68 00 	sts	0x0068, r1
     75c:	0e 94 48 10 	call	0x2090	; 0x2090 <SyncInit>
     760:	0e 94 2e 0c 	call	0x185c	; 0x185c <StartupScreen>
     764:	08 95       	ret

00000766 <main>:
     766:	0e 94 91 03 	call	0x722	; 0x722 <FignitionInit>
     76a:	0e 94 c9 0a 	call	0x1592	; 0x1592 <Cls>
     76e:	8f ef       	ldi	r24, 0xFF	; 255
     770:	8d bf       	out	0x3d, r24	; 61
     772:	0c 94 c7 0d 	jmp	0x1b8e	; 0x1b8e <_VM>
     776:	08 95       	ret

00000778 <KeyHeart>:
     778:	0c c0       	rjmp	.+24     	; 0x792 <KeyHeart+0x1a>
     77a:	80 91 f5 03 	lds	r24, 0x03F5
     77e:	90 91 f6 03 	lds	r25, 0x03F6
     782:	24 e0       	ldi	r18, 0x04	; 4
     784:	95 95       	asr	r25
     786:	87 95       	ror	r24
     788:	2a 95       	dec	r18
     78a:	e1 f7       	brne	.-8      	; 0x784 <KeyHeart+0xc>
     78c:	81 70       	andi	r24, 0x01	; 1
     78e:	0e 94 c0 0b 	call	0x1780	; 0x1780 <SetLed>
     792:	0e 94 fd 06 	call	0xdfa	; 0xdfa <KeyP>
     796:	88 23       	and	r24, r24
     798:	81 f3       	breq	.-32     	; 0x77a <KeyHeart+0x2>
     79a:	08 95       	ret

0000079c <InterruptSpi>:
     79c:	29 9a       	sbi	0x05, 1	; 5
     79e:	8c b5       	in	r24, 0x2c	; 44
     7a0:	8f 7b       	andi	r24, 0xBF	; 191
     7a2:	8c bd       	out	0x2c, r24	; 44
     7a4:	20 91 84 00 	lds	r18, 0x0084
     7a8:	30 91 85 00 	lds	r19, 0x0085
     7ac:	2f 5f       	subi	r18, 0xFF	; 255
     7ae:	3f 4f       	sbci	r19, 0xFF	; 255
     7b0:	8d b5       	in	r24, 0x2d	; 45
     7b2:	8e b5       	in	r24, 0x2e	; 46
     7b4:	80 91 84 00 	lds	r24, 0x0084
     7b8:	90 91 85 00 	lds	r25, 0x0085
     7bc:	a9 01       	movw	r20, r18
     7be:	48 1b       	sub	r20, r24
     7c0:	59 0b       	sbc	r21, r25
     7c2:	57 ff       	sbrs	r21, 7
     7c4:	f5 cf       	rjmp	.-22     	; 0x7b0 <InterruptSpi+0x14>
     7c6:	8c b5       	in	r24, 0x2c	; 44
     7c8:	80 64       	ori	r24, 0x40	; 64
     7ca:	8c bd       	out	0x2c, r24	; 44
     7cc:	08 95       	ret

000007ce <WriteMem>:
     7ce:	fb 01       	movw	r30, r22
     7d0:	41 15       	cp	r20, r1
     7d2:	51 05       	cpc	r21, r1
     7d4:	01 f1       	breq	.+64     	; 0x816 <WriteMem+0x48>
     7d6:	9c 01       	movw	r18, r24
     7d8:	3f 77       	andi	r19, 0x7F	; 127
     7da:	84 e0       	ldi	r24, 0x04	; 4
     7dc:	0d b4       	in	r0, 0x2d	; 45
     7de:	07 fc       	sbrc	r0, 7
     7e0:	02 c0       	rjmp	.+4      	; 0x7e6 <WriteMem+0x18>
     7e2:	81 50       	subi	r24, 0x01	; 1
     7e4:	d9 f7       	brne	.-10     	; 0x7dc <WriteMem+0xe>
     7e6:	8e b5       	in	r24, 0x2e	; 46
     7e8:	29 9a       	sbi	0x05, 1	; 5
     7ea:	00 00       	nop
     7ec:	29 98       	cbi	0x05, 1	; 5
     7ee:	82 e0       	ldi	r24, 0x02	; 2
     7f0:	8e bd       	out	0x2e, r24	; 46
     7f2:	0d b4       	in	r0, 0x2d	; 45
     7f4:	07 fe       	sbrs	r0, 7
     7f6:	fd cf       	rjmp	.-6      	; 0x7f2 <WriteMem+0x24>
     7f8:	3e bd       	out	0x2e, r19	; 46
     7fa:	0d b4       	in	r0, 0x2d	; 45
     7fc:	07 fe       	sbrs	r0, 7
     7fe:	fd cf       	rjmp	.-6      	; 0x7fa <WriteMem+0x2c>
     800:	2e bd       	out	0x2e, r18	; 46
     802:	0d b4       	in	r0, 0x2d	; 45
     804:	07 fe       	sbrs	r0, 7
     806:	fd cf       	rjmp	.-6      	; 0x802 <WriteMem+0x34>
     808:	80 81       	ld	r24, Z
     80a:	8e bd       	out	0x2e, r24	; 46
     80c:	41 50       	subi	r20, 0x01	; 1
     80e:	50 40       	sbci	r21, 0x00	; 0
     810:	11 f0       	breq	.+4      	; 0x816 <WriteMem+0x48>
     812:	31 96       	adiw	r30, 0x01	; 1
     814:	f6 cf       	rjmp	.-20     	; 0x802 <WriteMem+0x34>
     816:	08 95       	ret

00000818 <VideoAt>:
     818:	99 e1       	ldi	r25, 0x19	; 25
     81a:	69 02       	muls	r22, r25
     81c:	b0 01       	movw	r22, r0
     81e:	11 24       	eor	r1, r1
     820:	99 27       	eor	r25, r25
     822:	87 fd       	sbrc	r24, 7
     824:	90 95       	com	r25
     826:	68 0f       	add	r22, r24
     828:	79 1f       	adc	r23, r25
     82a:	61 5f       	subi	r22, 0xF1	; 241
     82c:	7e 4f       	sbci	r23, 0xFE	; 254
     82e:	cb 01       	movw	r24, r22
     830:	08 95       	ret

00000832 <EditCh>:
     832:	0f 93       	push	r16
     834:	1f 93       	push	r17
     836:	cf 93       	push	r28
     838:	df 93       	push	r29
     83a:	ec 01       	movw	r28, r24
     83c:	06 2f       	mov	r16, r22
     83e:	60 c0       	rjmp	.+192    	; 0x900 <EditCh+0xce>
     840:	0a 30       	cpi	r16, 0x0A	; 10
     842:	01 f1       	breq	.+64     	; 0x884 <EditCh+0x52>
     844:	0b 30       	cpi	r16, 0x0B	; 11
     846:	40 f4       	brcc	.+16     	; 0x858 <EditCh+0x26>
     848:	08 30       	cpi	r16, 0x08	; 8
     84a:	49 f1       	breq	.+82     	; 0x89e <EditCh+0x6c>
     84c:	09 30       	cpi	r16, 0x09	; 9
     84e:	08 f5       	brcc	.+66     	; 0x892 <EditCh+0x60>
     850:	07 30       	cpi	r16, 0x07	; 7
     852:	09 f0       	breq	.+2      	; 0x856 <EditCh+0x24>
     854:	4e c0       	rjmp	.+156    	; 0x8f2 <EditCh+0xc0>
     856:	45 c0       	rjmp	.+138    	; 0x8e2 <EditCh+0xb0>
     858:	0d 30       	cpi	r16, 0x0D	; 13
     85a:	49 f1       	breq	.+82     	; 0x8ae <EditCh+0x7c>
     85c:	0e 30       	cpi	r16, 0x0E	; 14
     85e:	20 f4       	brcc	.+8      	; 0x868 <EditCh+0x36>
     860:	0b 30       	cpi	r16, 0x0B	; 11
     862:	09 f0       	breq	.+2      	; 0x866 <EditCh+0x34>
     864:	46 c0       	rjmp	.+140    	; 0x8f2 <EditCh+0xc0>
     866:	06 c0       	rjmp	.+12     	; 0x874 <EditCh+0x42>
     868:	03 3c       	cpi	r16, 0xC3	; 195
     86a:	19 f1       	breq	.+70     	; 0x8b2 <EditCh+0x80>
     86c:	0d 3c       	cpi	r16, 0xCD	; 205
     86e:	09 f0       	breq	.+2      	; 0x872 <EditCh+0x40>
     870:	40 c0       	rjmp	.+128    	; 0x8f2 <EditCh+0xc0>
     872:	32 c0       	rjmp	.+100    	; 0x8d8 <EditCh+0xa6>
     874:	89 81       	ldd	r24, Y+1	; 0x01
     876:	81 50       	subi	r24, 0x01	; 1
     878:	89 83       	std	Y+1, r24	; 0x01
     87a:	87 ff       	sbrs	r24, 7
     87c:	44 c0       	rjmp	.+136    	; 0x906 <EditCh+0xd4>
     87e:	83 e1       	ldi	r24, 0x13	; 19
     880:	89 83       	std	Y+1, r24	; 0x01
     882:	41 c0       	rjmp	.+130    	; 0x906 <EditCh+0xd4>
     884:	89 81       	ldd	r24, Y+1	; 0x01
     886:	8f 5f       	subi	r24, 0xFF	; 255
     888:	89 83       	std	Y+1, r24	; 0x01
     88a:	84 31       	cpi	r24, 0x14	; 20
     88c:	e4 f1       	brlt	.+120    	; 0x906 <EditCh+0xd4>
     88e:	19 82       	std	Y+1, r1	; 0x01
     890:	3a c0       	rjmp	.+116    	; 0x906 <EditCh+0xd4>
     892:	88 81       	ld	r24, Y
     894:	8f 5f       	subi	r24, 0xFF	; 255
     896:	88 83       	st	Y, r24
     898:	89 31       	cpi	r24, 0x19	; 25
     89a:	ac f1       	brlt	.+106    	; 0x906 <EditCh+0xd4>
     89c:	08 c0       	rjmp	.+16     	; 0x8ae <EditCh+0x7c>
     89e:	88 81       	ld	r24, Y
     8a0:	81 50       	subi	r24, 0x01	; 1
     8a2:	88 83       	st	Y, r24
     8a4:	87 ff       	sbrs	r24, 7
     8a6:	2f c0       	rjmp	.+94     	; 0x906 <EditCh+0xd4>
     8a8:	88 e1       	ldi	r24, 0x18	; 24
     8aa:	88 83       	st	Y, r24
     8ac:	e3 cf       	rjmp	.-58     	; 0x874 <EditCh+0x42>
     8ae:	18 82       	st	Y, r1
     8b0:	e9 cf       	rjmp	.-46     	; 0x884 <EditCh+0x52>
     8b2:	1a 81       	ldd	r17, Y+2	; 0x02
     8b4:	81 2f       	mov	r24, r17
     8b6:	6b 81       	ldd	r22, Y+3	; 0x03
     8b8:	0e 94 0c 04 	call	0x818	; 0x818 <VideoAt>
     8bc:	fc 01       	movw	r30, r24
     8be:	00 81       	ld	r16, Z
     8c0:	1f 5f       	subi	r17, 0xFF	; 255
     8c2:	1a 83       	std	Y+2, r17	; 0x02
     8c4:	19 31       	cpi	r17, 0x19	; 25
     8c6:	e4 f0       	brlt	.+56     	; 0x900 <EditCh+0xce>
     8c8:	1a 82       	std	Y+2, r1	; 0x02
     8ca:	8b 81       	ldd	r24, Y+3	; 0x03
     8cc:	8f 5f       	subi	r24, 0xFF	; 255
     8ce:	8b 83       	std	Y+3, r24	; 0x03
     8d0:	84 31       	cpi	r24, 0x14	; 20
     8d2:	b4 f0       	brlt	.+44     	; 0x900 <EditCh+0xce>
     8d4:	1b 82       	std	Y+3, r1	; 0x03
     8d6:	14 c0       	rjmp	.+40     	; 0x900 <EditCh+0xce>
     8d8:	88 81       	ld	r24, Y
     8da:	8a 83       	std	Y+2, r24	; 0x02
     8dc:	89 81       	ldd	r24, Y+1	; 0x01
     8de:	8b 83       	std	Y+3, r24	; 0x03
     8e0:	12 c0       	rjmp	.+36     	; 0x906 <EditCh+0xd4>
     8e2:	88 81       	ld	r24, Y
     8e4:	69 81       	ldd	r22, Y+1	; 0x01
     8e6:	0e 94 0c 04 	call	0x818	; 0x818 <VideoAt>
     8ea:	fc 01       	movw	r30, r24
     8ec:	80 e2       	ldi	r24, 0x20	; 32
     8ee:	80 83       	st	Z, r24
     8f0:	d6 cf       	rjmp	.-84     	; 0x89e <EditCh+0x6c>
     8f2:	88 81       	ld	r24, Y
     8f4:	69 81       	ldd	r22, Y+1	; 0x01
     8f6:	0e 94 0c 04 	call	0x818	; 0x818 <VideoAt>
     8fa:	fc 01       	movw	r30, r24
     8fc:	00 83       	st	Z, r16
     8fe:	c9 cf       	rjmp	.-110    	; 0x892 <EditCh+0x60>
     900:	00 23       	and	r16, r16
     902:	09 f0       	breq	.+2      	; 0x906 <EditCh+0xd4>
     904:	9d cf       	rjmp	.-198    	; 0x840 <EditCh+0xe>
     906:	df 91       	pop	r29
     908:	cf 91       	pop	r28
     90a:	1f 91       	pop	r17
     90c:	0f 91       	pop	r16
     90e:	08 95       	ret

00000910 <DoCmd>:
     910:	af 92       	push	r10
     912:	bf 92       	push	r11
     914:	cf 92       	push	r12
     916:	df 92       	push	r13
     918:	ef 92       	push	r14
     91a:	ff 92       	push	r15
     91c:	0f 93       	push	r16
     91e:	df 93       	push	r29
     920:	cf 93       	push	r28
     922:	00 d0       	rcall	.+0      	; 0x924 <DoCmd+0x14>
     924:	cd b7       	in	r28, 0x3d	; 61
     926:	de b7       	in	r29, 0x3e	; 62
     928:	7c 01       	movw	r14, r24
     92a:	6b 01       	movw	r12, r22
     92c:	5a 01       	movw	r10, r20
     92e:	80 e0       	ldi	r24, 0x00	; 0
     930:	65 e1       	ldi	r22, 0x15	; 21
     932:	0e 94 0c 04 	call	0x818	; 0x818 <VideoAt>
     936:	9a 83       	std	Y+2, r25	; 0x02
     938:	89 83       	std	Y+1, r24	; 0x01
     93a:	8f e3       	ldi	r24, 0x3F	; 63
     93c:	e9 81       	ldd	r30, Y+1	; 0x01
     93e:	fa 81       	ldd	r31, Y+2	; 0x02
     940:	80 83       	st	Z, r24
     942:	0e 94 0d 07 	call	0xe1a	; 0xe1a <Key>
     946:	08 2f       	mov	r16, r24
     948:	e9 81       	ldd	r30, Y+1	; 0x01
     94a:	fa 81       	ldd	r31, Y+2	; 0x02
     94c:	80 83       	st	Z, r24
     94e:	87 35       	cpi	r24, 0x57	; 87
     950:	09 f4       	brne	.+2      	; 0x954 <DoCmd+0x44>
     952:	50 c0       	rjmp	.+160    	; 0x9f4 <DoCmd+0xe4>
     954:	88 35       	cpi	r24, 0x58	; 88
     956:	50 f4       	brcc	.+20     	; 0x96c <DoCmd+0x5c>
     958:	85 34       	cpi	r24, 0x45	; 69
     95a:	09 f4       	brne	.+2      	; 0x95e <DoCmd+0x4e>
     95c:	53 c0       	rjmp	.+166    	; 0xa04 <DoCmd+0xf4>
     95e:	84 35       	cpi	r24, 0x54	; 84
     960:	09 f4       	brne	.+2      	; 0x964 <DoCmd+0x54>
     962:	56 c0       	rjmp	.+172    	; 0xa10 <DoCmd+0x100>
     964:	87 30       	cpi	r24, 0x07	; 7
     966:	09 f0       	breq	.+2      	; 0x96a <DoCmd+0x5a>
     968:	65 c0       	rjmp	.+202    	; 0xa34 <DoCmd+0x124>
     96a:	24 c0       	rjmp	.+72     	; 0x9b4 <DoCmd+0xa4>
     96c:	8a 35       	cpi	r24, 0x5A	; 90
     96e:	09 f4       	brne	.+2      	; 0x972 <DoCmd+0x62>
     970:	4c c0       	rjmp	.+152    	; 0xa0a <DoCmd+0xfa>
     972:	89 36       	cpi	r24, 0x69	; 105
     974:	21 f0       	breq	.+8      	; 0x97e <DoCmd+0x6e>
     976:	88 35       	cpi	r24, 0x58	; 88
     978:	09 f0       	breq	.+2      	; 0x97c <DoCmd+0x6c>
     97a:	5c c0       	rjmp	.+184    	; 0xa34 <DoCmd+0x124>
     97c:	41 c0       	rjmp	.+130    	; 0xa00 <DoCmd+0xf0>
     97e:	80 e0       	ldi	r24, 0x00	; 0
     980:	f5 01       	movw	r30, r10
     982:	61 81       	ldd	r22, Z+1	; 0x01
     984:	0e 94 0c 04 	call	0x818	; 0x818 <VideoAt>
     988:	7c 01       	movw	r14, r24
     98a:	88 e1       	ldi	r24, 0x18	; 24
     98c:	62 e1       	ldi	r22, 0x12	; 18
     98e:	0e 94 0c 04 	call	0x818	; 0x818 <VideoAt>
     992:	fc 01       	movw	r30, r24
     994:	03 c0       	rjmp	.+6      	; 0x99c <DoCmd+0x8c>
     996:	80 81       	ld	r24, Z
     998:	81 8f       	std	Z+25, r24	; 0x19
     99a:	31 97       	sbiw	r30, 0x01	; 1
     99c:	ee 15       	cp	r30, r14
     99e:	ff 05       	cpc	r31, r15
     9a0:	d0 f7       	brcc	.-12     	; 0x996 <DoCmd+0x86>
     9a2:	c7 01       	movw	r24, r14
     9a4:	49 96       	adiw	r24, 0x19	; 25
     9a6:	20 e2       	ldi	r18, 0x20	; 32
     9a8:	01 c0       	rjmp	.+2      	; 0x9ac <DoCmd+0x9c>
     9aa:	21 93       	st	Z+, r18
     9ac:	e8 17       	cp	r30, r24
     9ae:	f9 07       	cpc	r31, r25
     9b0:	e0 f3       	brcs	.-8      	; 0x9aa <DoCmd+0x9a>
     9b2:	44 c0       	rjmp	.+136    	; 0xa3c <DoCmd+0x12c>
     9b4:	80 e0       	ldi	r24, 0x00	; 0
     9b6:	f5 01       	movw	r30, r10
     9b8:	61 81       	ldd	r22, Z+1	; 0x01
     9ba:	0e 94 0c 04 	call	0x818	; 0x818 <VideoAt>
     9be:	7c 01       	movw	r14, r24
     9c0:	80 e0       	ldi	r24, 0x00	; 0
     9c2:	63 e1       	ldi	r22, 0x13	; 19
     9c4:	0e 94 0c 04 	call	0x818	; 0x818 <VideoAt>
     9c8:	9c 01       	movw	r18, r24
     9ca:	04 c0       	rjmp	.+8      	; 0x9d4 <DoCmd+0xc4>
     9cc:	f7 01       	movw	r30, r14
     9ce:	81 8d       	ldd	r24, Z+25	; 0x19
     9d0:	81 93       	st	Z+, r24
     9d2:	7f 01       	movw	r14, r30
     9d4:	e2 16       	cp	r14, r18
     9d6:	f3 06       	cpc	r15, r19
     9d8:	c8 f3       	brcs	.-14     	; 0x9cc <DoCmd+0xbc>
     9da:	c9 01       	movw	r24, r18
     9dc:	49 96       	adiw	r24, 0x19	; 25
     9de:	20 e2       	ldi	r18, 0x20	; 32
     9e0:	05 c0       	rjmp	.+10     	; 0x9ec <DoCmd+0xdc>
     9e2:	08 94       	sec
     9e4:	e1 1c       	adc	r14, r1
     9e6:	f1 1c       	adc	r15, r1
     9e8:	f7 01       	movw	r30, r14
     9ea:	20 83       	st	Z, r18
     9ec:	e8 16       	cp	r14, r24
     9ee:	f9 06       	cpc	r15, r25
     9f0:	c0 f3       	brcs	.-16     	; 0x9e2 <DoCmd+0xd2>
     9f2:	24 c0       	rjmp	.+72     	; 0xa3c <DoCmd+0x12c>
     9f4:	c7 01       	movw	r24, r14
     9f6:	b6 01       	movw	r22, r12
     9f8:	4f e0       	ldi	r20, 0x0F	; 15
     9fa:	51 e0       	ldi	r21, 0x01	; 1
     9fc:	0e 94 bb 09 	call	0x1376	; 0x1376 <VDskWrite>
     a00:	0b e1       	ldi	r16, 0x1B	; 27
     a02:	1c c0       	rjmp	.+56     	; 0xa3c <DoCmd+0x12c>
     a04:	0e 94 f9 09 	call	0x13f2	; 0x13f2 <VDskErase>
     a08:	fb cf       	rjmp	.-10     	; 0xa00 <DoCmd+0xf0>
     a0a:	0e 94 c9 0a 	call	0x1592	; 0x1592 <Cls>
     a0e:	16 c0       	rjmp	.+44     	; 0xa3c <DoCmd+0x12c>
     a10:	0e 94 1d 08 	call	0x103a	; 0x103a <TestVTable>
     a14:	13 c0       	rjmp	.+38     	; 0xa3c <DoCmd+0x12c>
     a16:	f5 01       	movw	r30, r10
     a18:	80 81       	ld	r24, Z
     a1a:	61 81       	ldd	r22, Z+1	; 0x01
     a1c:	0e 94 0c 04 	call	0x818	; 0x818 <VideoAt>
     a20:	fc 01       	movw	r30, r24
     a22:	80 81       	ld	r24, Z
     a24:	88 0f       	add	r24, r24
     a26:	88 0f       	add	r24, r24
     a28:	88 0f       	add	r24, r24
     a2a:	80 2b       	or	r24, r16
     a2c:	80 83       	st	Z, r24
     a2e:	0e 94 0d 07 	call	0xe1a	; 0xe1a <Key>
     a32:	08 2f       	mov	r16, r24
     a34:	00 53       	subi	r16, 0x30	; 48
     a36:	08 30       	cpi	r16, 0x08	; 8
     a38:	70 f3       	brcs	.-36     	; 0xa16 <DoCmd+0x106>
     a3a:	00 e0       	ldi	r16, 0x00	; 0
     a3c:	80 2f       	mov	r24, r16
     a3e:	0f 90       	pop	r0
     a40:	0f 90       	pop	r0
     a42:	cf 91       	pop	r28
     a44:	df 91       	pop	r29
     a46:	0f 91       	pop	r16
     a48:	ff 90       	pop	r15
     a4a:	ef 90       	pop	r14
     a4c:	df 90       	pop	r13
     a4e:	cf 90       	pop	r12
     a50:	bf 90       	pop	r11
     a52:	af 90       	pop	r10
     a54:	08 95       	ret

00000a56 <AltBlkRd>:
     a56:	97 fd       	sbrc	r25, 7
     a58:	02 c0       	rjmp	.+4      	; 0xa5e <AltBlkRd+0x8>
     a5a:	80 e0       	ldi	r24, 0x00	; 0
     a5c:	08 95       	ret
     a5e:	8f e0       	ldi	r24, 0x0F	; 15
     a60:	91 e0       	ldi	r25, 0x01	; 1
     a62:	60 e0       	ldi	r22, 0x00	; 0
     a64:	70 e0       	ldi	r23, 0x00	; 0
     a66:	40 e0       	ldi	r20, 0x00	; 0
     a68:	52 e0       	ldi	r21, 0x02	; 2
     a6a:	0e 94 f1 12 	call	0x25e2	; 0x25e2 <__eerd_block_m168>
     a6e:	81 e0       	ldi	r24, 0x01	; 1
     a70:	08 95       	ret

00000a72 <DskBlkRd>:
     a72:	ef 92       	push	r14
     a74:	ff 92       	push	r15
     a76:	0f 93       	push	r16
     a78:	1f 93       	push	r17
     a7a:	cf 93       	push	r28
     a7c:	df 93       	push	r29
     a7e:	8c 01       	movw	r16, r24
     a80:	8f ef       	ldi	r24, 0xFF	; 255
     a82:	9f ef       	ldi	r25, 0xFF	; 255
     a84:	6f e0       	ldi	r22, 0x0F	; 15
     a86:	71 e0       	ldi	r23, 0x01	; 1
     a88:	0e 94 9c 08 	call	0x1138	; 0x1138 <VDskFind>
     a8c:	7c 01       	movw	r14, r24
     a8e:	c8 01       	movw	r24, r16
     a90:	0e 94 2b 05 	call	0xa56	; 0xa56 <AltBlkRd>
     a94:	88 23       	and	r24, r24
     a96:	19 f0       	breq	.+6      	; 0xa9e <DskBlkRd+0x2c>
     a98:	ce ef       	ldi	r28, 0xFE	; 254
     a9a:	df ef       	ldi	r29, 0xFF	; 255
     a9c:	06 c0       	rjmp	.+12     	; 0xaaa <DskBlkRd+0x38>
     a9e:	c8 01       	movw	r24, r16
     aa0:	6f e0       	ldi	r22, 0x0F	; 15
     aa2:	71 e0       	ldi	r23, 0x01	; 1
     aa4:	0e 94 bb 08 	call	0x1176	; 0x1176 <VDskRead>
     aa8:	ec 01       	movw	r28, r24
     aaa:	ce 15       	cp	r28, r14
     aac:	df 05       	cpc	r29, r15
     aae:	11 f4       	brne	.+4      	; 0xab4 <DskBlkRd+0x42>
     ab0:	0e 94 c9 0a 	call	0x1592	; 0x1592 <Cls>
     ab4:	81 e0       	ldi	r24, 0x01	; 1
     ab6:	65 e1       	ldi	r22, 0x15	; 21
     ab8:	0e 94 43 0a 	call	0x1486	; 0x1486 <PrintAt>
     abc:	c8 01       	movw	r24, r16
     abe:	0e 94 8a 0b 	call	0x1714	; 0x1714 <DotHex>
     ac2:	80 e4       	ldi	r24, 0x40	; 64
     ac4:	0e 94 20 0d 	call	0x1a40	; 0x1a40 <Emit>
     ac8:	ce 01       	movw	r24, r28
     aca:	0e 94 8a 0b 	call	0x1714	; 0x1714 <DotHex>
     ace:	81 e2       	ldi	r24, 0x21	; 33
     ad0:	0e 94 20 0d 	call	0x1a40	; 0x1a40 <Emit>
     ad4:	c7 01       	movw	r24, r14
     ad6:	0e 94 8a 0b 	call	0x1714	; 0x1714 <DotHex>
     ada:	c7 01       	movw	r24, r14
     adc:	df 91       	pop	r29
     ade:	cf 91       	pop	r28
     ae0:	1f 91       	pop	r17
     ae2:	0f 91       	pop	r16
     ae4:	ff 90       	pop	r15
     ae6:	ef 90       	pop	r14
     ae8:	08 95       	ret

00000aea <_FigEdit>:
     aea:	2f 92       	push	r2
     aec:	3f 92       	push	r3
     aee:	4f 92       	push	r4
     af0:	5f 92       	push	r5
     af2:	6f 92       	push	r6
     af4:	7f 92       	push	r7
     af6:	8f 92       	push	r8
     af8:	9f 92       	push	r9
     afa:	af 92       	push	r10
     afc:	bf 92       	push	r11
     afe:	cf 92       	push	r12
     b00:	df 92       	push	r13
     b02:	ef 92       	push	r14
     b04:	ff 92       	push	r15
     b06:	0f 93       	push	r16
     b08:	1f 93       	push	r17
     b0a:	df 93       	push	r29
     b0c:	cf 93       	push	r28
     b0e:	00 d0       	rcall	.+0      	; 0xb10 <_FigEdit+0x26>
     b10:	00 d0       	rcall	.+0      	; 0xb12 <_FigEdit+0x28>
     b12:	cd b7       	in	r28, 0x3d	; 61
     b14:	de b7       	in	r29, 0x3e	; 62
     b16:	4c 01       	movw	r8, r24
     b18:	19 82       	std	Y+1, r1	; 0x01
     b1a:	1a 82       	std	Y+2, r1	; 0x02
     b1c:	8f ef       	ldi	r24, 0xFF	; 255
     b1e:	8b 83       	std	Y+3, r24	; 0x03
     b20:	0e 94 c9 0a 	call	0x1592	; 0x1592 <Cls>
     b24:	c4 01       	movw	r24, r8
     b26:	0e 94 39 05 	call	0xa72	; 0xa72 <DskBlkRd>
     b2a:	2c 01       	movw	r4, r24
     b2c:	97 fe       	sbrs	r9, 7
     b2e:	04 c0       	rjmp	.+8      	; 0xb38 <_FigEdit+0x4e>
     b30:	90 94       	com	r9
     b32:	81 94       	neg	r8
     b34:	91 08       	sbc	r9, r1
     b36:	93 94       	inc	r9
     b38:	83 e9       	ldi	r24, 0x93	; 147
     b3a:	68 2e       	mov	r6, r24
     b3c:	1e 01       	movw	r2, r28
     b3e:	08 94       	sec
     b40:	21 1c       	adc	r2, r1
     b42:	31 1c       	adc	r3, r1
     b44:	e0 90 f5 03 	lds	r14, 0x03F5
     b48:	f0 90 f6 03 	lds	r15, 0x03F6
     b4c:	89 81       	ldd	r24, Y+1	; 0x01
     b4e:	6a 81       	ldd	r22, Y+2	; 0x02
     b50:	0e 94 0c 04 	call	0x818	; 0x818 <VideoAt>
     b54:	5c 01       	movw	r10, r24
     b56:	8b 81       	ldd	r24, Y+3	; 0x03
     b58:	6c 81       	ldd	r22, Y+4	; 0x04
     b5a:	0e 94 0c 04 	call	0x818	; 0x818 <VideoAt>
     b5e:	6c 01       	movw	r12, r24
     b60:	f5 01       	movw	r30, r10
     b62:	70 80       	ld	r7, Z
     b64:	fc 01       	movw	r30, r24
     b66:	00 81       	ld	r16, Z
     b68:	80 91 f5 03 	lds	r24, 0x03F5
     b6c:	90 91 f6 03 	lds	r25, 0x03F6
     b70:	97 01       	movw	r18, r14
     b72:	28 1b       	sub	r18, r24
     b74:	39 0b       	sbc	r19, r25
     b76:	12 16       	cp	r1, r18
     b78:	13 06       	cpc	r1, r19
     b7a:	b4 f0       	brlt	.+44     	; 0xba8 <_FigEdit+0xbe>
     b7c:	f5 01       	movw	r30, r10
     b7e:	90 81       	ld	r25, Z
     b80:	90 58       	subi	r25, 0x80	; 128
     b82:	90 83       	st	Z, r25
     b84:	8b 81       	ldd	r24, Y+3	; 0x03
     b86:	8f 3f       	cpi	r24, 0xFF	; 255
     b88:	39 f0       	breq	.+14     	; 0xb98 <_FigEdit+0xae>
     b8a:	97 ff       	sbrs	r25, 7
     b8c:	03 c0       	rjmp	.+6      	; 0xb94 <_FigEdit+0xaa>
     b8e:	f6 01       	movw	r30, r12
     b90:	60 82       	st	Z, r6
     b92:	02 c0       	rjmp	.+4      	; 0xb98 <_FigEdit+0xae>
     b94:	f6 01       	movw	r30, r12
     b96:	00 83       	st	Z, r16
     b98:	e0 90 f5 03 	lds	r14, 0x03F5
     b9c:	f0 90 f6 03 	lds	r15, 0x03F6
     ba0:	22 e3       	ldi	r18, 0x32	; 50
     ba2:	30 e0       	ldi	r19, 0x00	; 0
     ba4:	e2 0e       	add	r14, r18
     ba6:	f3 1e       	adc	r15, r19
     ba8:	0e 94 fd 06 	call	0xdfa	; 0xdfa <KeyP>
     bac:	18 2f       	mov	r17, r24
     bae:	88 23       	and	r24, r24
     bb0:	d9 f2       	breq	.-74     	; 0xb68 <_FigEdit+0x7e>
     bb2:	f5 01       	movw	r30, r10
     bb4:	70 82       	st	Z, r7
     bb6:	f6 01       	movw	r30, r12
     bb8:	00 83       	st	Z, r16
     bba:	8b 3a       	cpi	r24, 0xAB	; 171
     bbc:	39 f4       	brne	.+14     	; 0xbcc <_FigEdit+0xe2>
     bbe:	c4 01       	movw	r24, r8
     bc0:	b2 01       	movw	r22, r4
     bc2:	a1 01       	movw	r20, r2
     bc4:	0e 94 88 04 	call	0x910	; 0x910 <DoCmd>
     bc8:	18 2f       	mov	r17, r24
     bca:	04 c0       	rjmp	.+8      	; 0xbd4 <_FigEdit+0xea>
     bcc:	c1 01       	movw	r24, r2
     bce:	61 2f       	mov	r22, r17
     bd0:	0e 94 19 04 	call	0x832	; 0x832 <EditCh>
     bd4:	1b 31       	cpi	r17, 0x1B	; 27
     bd6:	09 f0       	breq	.+2      	; 0xbda <_FigEdit+0xf0>
     bd8:	b5 cf       	rjmp	.-150    	; 0xb44 <_FigEdit+0x5a>
     bda:	80 e0       	ldi	r24, 0x00	; 0
     bdc:	64 e1       	ldi	r22, 0x14	; 20
     bde:	0e 94 43 0a 	call	0x1486	; 0x1486 <PrintAt>
     be2:	0f 90       	pop	r0
     be4:	0f 90       	pop	r0
     be6:	0f 90       	pop	r0
     be8:	0f 90       	pop	r0
     bea:	cf 91       	pop	r28
     bec:	df 91       	pop	r29
     bee:	1f 91       	pop	r17
     bf0:	0f 91       	pop	r16
     bf2:	ff 90       	pop	r15
     bf4:	ef 90       	pop	r14
     bf6:	df 90       	pop	r13
     bf8:	cf 90       	pop	r12
     bfa:	bf 90       	pop	r11
     bfc:	af 90       	pop	r10
     bfe:	9f 90       	pop	r9
     c00:	8f 90       	pop	r8
     c02:	7f 90       	pop	r7
     c04:	6f 90       	pop	r6
     c06:	5f 90       	pop	r5
     c08:	4f 90       	pop	r4
     c0a:	3f 90       	pop	r3
     c0c:	2f 90       	pop	r2
     c0e:	08 95       	ret

00000c10 <Log2>:
     c10:	48 2f       	mov	r20, r24
     c12:	28 2f       	mov	r18, r24
     c14:	30 e0       	ldi	r19, 0x00	; 0
     c16:	82 ff       	sbrs	r24, 2
     c18:	02 c0       	rjmp	.+4      	; 0xc1e <Log2+0xe>
     c1a:	82 e0       	ldi	r24, 0x02	; 2
     c1c:	04 c0       	rjmp	.+8      	; 0xc26 <Log2+0x16>
     c1e:	c9 01       	movw	r24, r18
     c20:	96 95       	lsr	r25
     c22:	87 95       	ror	r24
     c24:	81 70       	andi	r24, 0x01	; 1
     c26:	23 fd       	sbrc	r18, 3
     c28:	83 e0       	ldi	r24, 0x03	; 3
     c2a:	24 fd       	sbrc	r18, 4
     c2c:	84 e0       	ldi	r24, 0x04	; 4
     c2e:	25 fd       	sbrc	r18, 5
     c30:	85 e0       	ldi	r24, 0x05	; 5
     c32:	26 fd       	sbrc	r18, 6
     c34:	86 e0       	ldi	r24, 0x06	; 6
     c36:	47 fd       	sbrc	r20, 7
     c38:	87 e0       	ldi	r24, 0x07	; 7
     c3a:	08 95       	ret

00000c3c <IntKey>:
     c3c:	1f 93       	push	r17
     c3e:	cf 93       	push	r28
     c40:	df 93       	push	r29
     c42:	28 2f       	mov	r18, r24
     c44:	c0 91 0a 01 	lds	r28, 0x010A
     c48:	d0 91 0b 01 	lds	r29, 0x010B
     c4c:	10 91 07 01 	lds	r17, 0x0107
     c50:	80 91 f2 03 	lds	r24, 0x03F2
     c54:	28 17       	cp	r18, r24
     c56:	f1 f4       	brne	.+60     	; 0xc94 <IntKey+0x58>
     c58:	ce 01       	movw	r24, r28
     c5a:	83 70       	andi	r24, 0x03	; 3
     c5c:	90 70       	andi	r25, 0x00	; 0
     c5e:	02 97       	sbiw	r24, 0x02	; 2
     c60:	20 f0       	brcs	.+8      	; 0xc6a <IntKey+0x2e>
     c62:	80 91 09 01 	lds	r24, 0x0109
     c66:	87 ff       	sbrs	r24, 7
     c68:	07 c0       	rjmp	.+14     	; 0xc78 <IntKey+0x3c>
     c6a:	21 97       	sbiw	r28, 0x01	; 1
     c6c:	09 f0       	breq	.+2      	; 0xc70 <IntKey+0x34>
     c6e:	81 c0       	rjmp	.+258    	; 0xd72 <IntKey+0x136>
     c70:	80 91 09 01 	lds	r24, 0x0109
     c74:	86 30       	cpi	r24, 0x06	; 6
     c76:	24 f0       	brlt	.+8      	; 0xc80 <IntKey+0x44>
     c78:	81 50       	subi	r24, 0x01	; 1
     c7a:	80 93 09 01 	sts	0x0109, r24
     c7e:	79 c0       	rjmp	.+242    	; 0xd72 <IntKey+0x136>
     c80:	86 e0       	ldi	r24, 0x06	; 6
     c82:	80 93 09 01 	sts	0x0109, r24
     c86:	85 e0       	ldi	r24, 0x05	; 5
     c88:	90 e0       	ldi	r25, 0x00	; 0
     c8a:	90 93 0b 01 	sts	0x010B, r25
     c8e:	80 93 0a 01 	sts	0x010A, r24
     c92:	6f c0       	rjmp	.+222    	; 0xd72 <IntKey+0x136>
     c94:	20 93 f2 03 	sts	0x03F2, r18
     c98:	c1 30       	cpi	r28, 0x01	; 1
     c9a:	d1 05       	cpc	r29, r1
     c9c:	59 f0       	breq	.+22     	; 0xcb4 <IntKey+0x78>
     c9e:	c1 30       	cpi	r28, 0x01	; 1
     ca0:	d1 05       	cpc	r29, r1
     ca2:	58 f0       	brcs	.+22     	; 0xcba <IntKey+0x7e>
     ca4:	c2 30       	cpi	r28, 0x02	; 2
     ca6:	d1 05       	cpc	r29, r1
     ca8:	79 f0       	breq	.+30     	; 0xcc8 <IntKey+0x8c>
     caa:	c3 30       	cpi	r28, 0x03	; 3
     cac:	d1 05       	cpc	r29, r1
     cae:	09 f0       	breq	.+2      	; 0xcb2 <IntKey+0x76>
     cb0:	59 c0       	rjmp	.+178    	; 0xd64 <IntKey+0x128>
     cb2:	2b c0       	rjmp	.+86     	; 0xd0a <IntKey+0xce>
     cb4:	22 23       	and	r18, r18
     cb6:	09 f4       	brne	.+2      	; 0xcba <IntKey+0x7e>
     cb8:	53 c0       	rjmp	.+166    	; 0xd60 <IntKey+0x124>
     cba:	82 2f       	mov	r24, r18
     cbc:	0e 94 08 06 	call	0xc10	; 0xc10 <Log2>
     cc0:	80 93 07 01 	sts	0x0107, r24
     cc4:	22 96       	adiw	r28, 0x02	; 2
     cc6:	4e c0       	rjmp	.+156    	; 0xd64 <IntKey+0x128>
     cc8:	22 23       	and	r18, r18
     cca:	09 f5       	brne	.+66     	; 0xd0e <IntKey+0xd2>
     ccc:	80 91 09 01 	lds	r24, 0x0109
     cd0:	87 fd       	sbrc	r24, 7
     cd2:	46 c0       	rjmp	.+140    	; 0xd60 <IntKey+0x124>
     cd4:	e0 91 08 01 	lds	r30, 0x0108
     cd8:	14 30       	cpi	r17, 0x04	; 4
     cda:	29 f4       	brne	.+10     	; 0xce6 <IntKey+0xaa>
     cdc:	81 e0       	ldi	r24, 0x01	; 1
     cde:	8e 1b       	sub	r24, r30
     ce0:	80 93 08 01 	sts	0x0108, r24
     ce4:	3d c0       	rjmp	.+122    	; 0xd60 <IntKey+0x124>
     ce6:	f0 e0       	ldi	r31, 0x00	; 0
     ce8:	63 e0       	ldi	r22, 0x03	; 3
     cea:	ee 0f       	add	r30, r30
     cec:	ff 1f       	adc	r31, r31
     cee:	6a 95       	dec	r22
     cf0:	e1 f7       	brne	.-8      	; 0xcea <IntKey+0xae>
     cf2:	e1 0f       	add	r30, r17
     cf4:	f1 1d       	adc	r31, r1
     cf6:	e8 59       	subi	r30, 0x98	; 152
     cf8:	ff 4f       	sbci	r31, 0xFF	; 255
     cfa:	e4 91       	lpm	r30, Z+
     cfc:	e0 93 06 01 	sts	0x0106, r30
     d00:	10 92 08 01 	sts	0x0108, r1
     d04:	c4 e0       	ldi	r28, 0x04	; 4
     d06:	d0 e0       	ldi	r29, 0x00	; 0
     d08:	2d c0       	rjmp	.+90     	; 0xd64 <IntKey+0x128>
     d0a:	22 23       	and	r18, r18
     d0c:	49 f1       	breq	.+82     	; 0xd60 <IntKey+0x124>
     d0e:	81 e0       	ldi	r24, 0x01	; 1
     d10:	90 e0       	ldi	r25, 0x00	; 0
     d12:	01 2e       	mov	r0, r17
     d14:	02 c0       	rjmp	.+4      	; 0xd1a <IntKey+0xde>
     d16:	88 0f       	add	r24, r24
     d18:	99 1f       	adc	r25, r25
     d1a:	0a 94       	dec	r0
     d1c:	e2 f7       	brpl	.-8      	; 0xd16 <IntKey+0xda>
     d1e:	28 1b       	sub	r18, r24
     d20:	82 2f       	mov	r24, r18
     d22:	0e 94 08 06 	call	0xc10	; 0xc10 <Log2>
     d26:	e0 91 08 01 	lds	r30, 0x0108
     d2a:	f0 e0       	ldi	r31, 0x00	; 0
     d2c:	53 e0       	ldi	r21, 0x03	; 3
     d2e:	ee 0f       	add	r30, r30
     d30:	ff 1f       	adc	r31, r31
     d32:	5a 95       	dec	r21
     d34:	e1 f7       	brne	.-8      	; 0xd2e <IntKey+0xf2>
     d36:	e1 0f       	add	r30, r17
     d38:	f1 1d       	adc	r31, r1
     d3a:	43 e0       	ldi	r20, 0x03	; 3
     d3c:	ee 0f       	add	r30, r30
     d3e:	ff 1f       	adc	r31, r31
     d40:	4a 95       	dec	r20
     d42:	e1 f7       	brne	.-8      	; 0xd3c <IntKey+0x100>
     d44:	e8 0f       	add	r30, r24
     d46:	f1 1d       	adc	r31, r1
     d48:	e8 58       	subi	r30, 0x88	; 136
     d4a:	ff 4f       	sbci	r31, 0xFF	; 255
     d4c:	84 91       	lpm	r24, Z+
     d4e:	82 3d       	cpi	r24, 0xD2	; 210
     d50:	21 f0       	breq	.+8      	; 0xd5a <IntKey+0x11e>
     d52:	80 93 06 01 	sts	0x0106, r24
     d56:	10 92 08 01 	sts	0x0108, r1
     d5a:	c5 e0       	ldi	r28, 0x05	; 5
     d5c:	d0 e0       	ldi	r29, 0x00	; 0
     d5e:	02 c0       	rjmp	.+4      	; 0xd64 <IntKey+0x128>
     d60:	c0 e0       	ldi	r28, 0x00	; 0
     d62:	d0 e0       	ldi	r29, 0x00	; 0
     d64:	80 e1       	ldi	r24, 0x10	; 16
     d66:	80 93 09 01 	sts	0x0109, r24
     d6a:	d0 93 0b 01 	sts	0x010B, r29
     d6e:	c0 93 0a 01 	sts	0x010A, r28
     d72:	df 91       	pop	r29
     d74:	cf 91       	pop	r28
     d76:	1f 91       	pop	r17
     d78:	08 95       	ret

00000d7a <KeyInit>:
     d7a:	87 b1       	in	r24, 0x07	; 7
     d7c:	80 7f       	andi	r24, 0xF0	; 240
     d7e:	87 b9       	out	0x07, r24	; 7
     d80:	88 b1       	in	r24, 0x08	; 8
     d82:	8f 60       	ori	r24, 0x0F	; 15
     d84:	88 b9       	out	0x08, r24	; 8
     d86:	57 98       	cbi	0x0a, 7	; 10
     d88:	5f 9a       	sbi	0x0b, 7	; 11
     d8a:	20 98       	cbi	0x04, 0	; 4
     d8c:	28 9a       	sbi	0x05, 0	; 5
     d8e:	08 95       	ret

00000d90 <KeyScanRaw>:
     d90:	20 91 0d 01 	lds	r18, 0x010D
     d94:	22 23       	and	r18, r18
     d96:	51 f4       	brne	.+20     	; 0xdac <KeyScanRaw+0x1c>
     d98:	86 b1       	in	r24, 0x06	; 6
     d9a:	80 95       	com	r24
     d9c:	8f 70       	andi	r24, 0x0F	; 15
     d9e:	80 93 0e 01 	sts	0x010E, r24
     da2:	20 98       	cbi	0x04, 0	; 4
     da4:	28 9a       	sbi	0x05, 0	; 5
     da6:	57 9a       	sbi	0x0a, 7	; 10
     da8:	5f 98       	cbi	0x0b, 7	; 11
     daa:	0e c0       	rjmp	.+28     	; 0xdc8 <KeyScanRaw+0x38>
     dac:	96 b1       	in	r25, 0x06	; 6
     dae:	90 95       	com	r25
     db0:	9f 70       	andi	r25, 0x0F	; 15
     db2:	80 91 0e 01 	lds	r24, 0x010E
     db6:	82 95       	swap	r24
     db8:	80 7f       	andi	r24, 0xF0	; 240
     dba:	89 2b       	or	r24, r25
     dbc:	80 93 0e 01 	sts	0x010E, r24
     dc0:	57 98       	cbi	0x0a, 7	; 10
     dc2:	5f 9a       	sbi	0x0b, 7	; 11
     dc4:	20 9a       	sbi	0x04, 0	; 4
     dc6:	28 98       	cbi	0x05, 0	; 5
     dc8:	2f 5f       	subi	r18, 0xFF	; 255
     dca:	21 70       	andi	r18, 0x01	; 1
     dcc:	20 93 0d 01 	sts	0x010D, r18
     dd0:	80 91 0e 01 	lds	r24, 0x010E
     dd4:	08 95       	ret

00000dd6 <KeyScan>:
     dd6:	0e 94 c8 06 	call	0xd90	; 0xd90 <KeyScanRaw>
     dda:	98 2f       	mov	r25, r24
     ddc:	80 91 0d 01 	lds	r24, 0x010D
     de0:	88 23       	and	r24, r24
     de2:	51 f4       	brne	.+20     	; 0xdf8 <KeyScan+0x22>
     de4:	80 91 0c 01 	lds	r24, 0x010C
     de8:	98 17       	cp	r25, r24
     dea:	21 f4       	brne	.+8      	; 0xdf4 <KeyScan+0x1e>
     dec:	89 2f       	mov	r24, r25
     dee:	0e 94 1e 06 	call	0xc3c	; 0xc3c <IntKey>
     df2:	08 95       	ret
     df4:	90 93 0c 01 	sts	0x010C, r25
     df8:	08 95       	ret

00000dfa <KeyP>:
     dfa:	20 91 0a 01 	lds	r18, 0x010A
     dfe:	30 91 0b 01 	lds	r19, 0x010B
     e02:	22 fd       	sbrc	r18, 2
     e04:	02 c0       	rjmp	.+4      	; 0xe0a <KeyP+0x10>
     e06:	80 e0       	ldi	r24, 0x00	; 0
     e08:	08 95       	ret
     e0a:	80 91 06 01 	lds	r24, 0x0106
     e0e:	2b 7f       	andi	r18, 0xFB	; 251
     e10:	30 93 0b 01 	sts	0x010B, r19
     e14:	20 93 0a 01 	sts	0x010A, r18
     e18:	08 95       	ret

00000e1a <Key>:
     e1a:	cf 93       	push	r28
     e1c:	df 93       	push	r29
     e1e:	80 91 e9 03 	lds	r24, 0x03E9
     e22:	c0 91 e7 03 	lds	r28, 0x03E7
     e26:	d0 91 e8 03 	lds	r29, 0x03E8
     e2a:	c8 0f       	add	r28, r24
     e2c:	d1 1d       	adc	r29, r1
     e2e:	88 81       	ld	r24, Y
     e30:	80 58       	subi	r24, 0x80	; 128
     e32:	88 83       	st	Y, r24
     e34:	0e 94 fd 06 	call	0xdfa	; 0xdfa <KeyP>
     e38:	98 2f       	mov	r25, r24
     e3a:	88 23       	and	r24, r24
     e3c:	d9 f3       	breq	.-10     	; 0xe34 <Key+0x1a>
     e3e:	88 81       	ld	r24, Y
     e40:	80 58       	subi	r24, 0x80	; 128
     e42:	88 83       	st	Y, r24
     e44:	89 2f       	mov	r24, r25
     e46:	df 91       	pop	r29
     e48:	cf 91       	pop	r28
     e4a:	08 95       	ret

00000e4c <VDskEraseBlocks>:
     e4c:	0e 94 12 03 	call	0x624	; 0x624 <SerialFlashID>
     e50:	20 e2       	ldi	r18, 0x20	; 32
     e52:	83 31       	cpi	r24, 0x13	; 19
     e54:	92 07       	cpc	r25, r18
     e56:	49 f0       	breq	.+18     	; 0xe6a <VDskEraseBlocks+0x1e>
     e58:	20 e2       	ldi	r18, 0x20	; 32
     e5a:	83 31       	cpi	r24, 0x13	; 19
     e5c:	92 07       	cpc	r25, r18
     e5e:	40 f0       	brcs	.+16     	; 0xe70 <VDskEraseBlocks+0x24>
     e60:	83 51       	subi	r24, 0x13	; 19
     e62:	90 43       	sbci	r25, 0x30	; 48
     e64:	02 97       	sbiw	r24, 0x02	; 2
     e66:	20 f4       	brcc	.+8      	; 0xe70 <VDskEraseBlocks+0x24>
     e68:	06 c0       	rjmp	.+12     	; 0xe76 <VDskEraseBlocks+0x2a>
     e6a:	20 e0       	ldi	r18, 0x00	; 0
     e6c:	31 e0       	ldi	r19, 0x01	; 1
     e6e:	05 c0       	rjmp	.+10     	; 0xe7a <VDskEraseBlocks+0x2e>
     e70:	20 e0       	ldi	r18, 0x00	; 0
     e72:	30 e0       	ldi	r19, 0x00	; 0
     e74:	02 c0       	rjmp	.+4      	; 0xe7a <VDskEraseBlocks+0x2e>
     e76:	20 e1       	ldi	r18, 0x10	; 16
     e78:	30 e0       	ldi	r19, 0x00	; 0
     e7a:	c9 01       	movw	r24, r18
     e7c:	08 95       	ret

00000e7e <VDskBaseBlock>:
     e7e:	0e 94 12 03 	call	0x624	; 0x624 <SerialFlashID>
     e82:	20 e2       	ldi	r18, 0x20	; 32
     e84:	83 31       	cpi	r24, 0x13	; 19
     e86:	92 07       	cpc	r25, r18
     e88:	49 f0       	breq	.+18     	; 0xe9c <VDskBaseBlock+0x1e>
     e8a:	20 e2       	ldi	r18, 0x20	; 32
     e8c:	83 31       	cpi	r24, 0x13	; 19
     e8e:	92 07       	cpc	r25, r18
     e90:	40 f0       	brcs	.+16     	; 0xea2 <VDskBaseBlock+0x24>
     e92:	83 51       	subi	r24, 0x13	; 19
     e94:	90 43       	sbci	r25, 0x30	; 48
     e96:	02 97       	sbiw	r24, 0x02	; 2
     e98:	20 f4       	brcc	.+8      	; 0xea2 <VDskBaseBlock+0x24>
     e9a:	06 c0       	rjmp	.+12     	; 0xea8 <VDskBaseBlock+0x2a>
     e9c:	20 e0       	ldi	r18, 0x00	; 0
     e9e:	31 e0       	ldi	r19, 0x01	; 1
     ea0:	05 c0       	rjmp	.+10     	; 0xeac <VDskBaseBlock+0x2e>
     ea2:	20 e0       	ldi	r18, 0x00	; 0
     ea4:	30 e0       	ldi	r19, 0x00	; 0
     ea6:	02 c0       	rjmp	.+4      	; 0xeac <VDskBaseBlock+0x2e>
     ea8:	20 e8       	ldi	r18, 0x80	; 128
     eaa:	30 e0       	ldi	r19, 0x00	; 0
     eac:	c9 01       	movw	r24, r18
     eae:	08 95       	ret

00000eb0 <VDskSize>:
     eb0:	cf 93       	push	r28
     eb2:	df 93       	push	r29
     eb4:	0e 94 12 03 	call	0x624	; 0x624 <SerialFlashID>
     eb8:	20 e3       	ldi	r18, 0x30	; 48
     eba:	83 31       	cpi	r24, 0x13	; 19
     ebc:	92 07       	cpc	r25, r18
     ebe:	39 f0       	breq	.+14     	; 0xece <VDskSize+0x1e>
     ec0:	20 e3       	ldi	r18, 0x30	; 48
     ec2:	84 31       	cpi	r24, 0x14	; 20
     ec4:	92 07       	cpc	r25, r18
     ec6:	49 f0       	breq	.+18     	; 0xeda <VDskSize+0x2a>
     ec8:	83 51       	subi	r24, 0x13	; 19
     eca:	90 42       	sbci	r25, 0x20	; 32
     ecc:	19 f4       	brne	.+6      	; 0xed4 <VDskSize+0x24>
     ece:	c0 e0       	ldi	r28, 0x00	; 0
     ed0:	d8 e0       	ldi	r29, 0x08	; 8
     ed2:	05 c0       	rjmp	.+10     	; 0xede <VDskSize+0x2e>
     ed4:	c0 e0       	ldi	r28, 0x00	; 0
     ed6:	d0 e0       	ldi	r29, 0x00	; 0
     ed8:	02 c0       	rjmp	.+4      	; 0xede <VDskSize+0x2e>
     eda:	c0 e0       	ldi	r28, 0x00	; 0
     edc:	d0 e1       	ldi	r29, 0x10	; 16
     ede:	0e 94 3f 07 	call	0xe7e	; 0xe7e <VDskBaseBlock>
     ee2:	9e 01       	movw	r18, r28
     ee4:	28 1b       	sub	r18, r24
     ee6:	39 0b       	sbc	r19, r25
     ee8:	c9 01       	movw	r24, r18
     eea:	df 91       	pop	r29
     eec:	cf 91       	pop	r28
     eee:	08 95       	ret

00000ef0 <VDskNeedsPurge>:
     ef0:	0f 93       	push	r16
     ef2:	1f 93       	push	r17
     ef4:	cf 93       	push	r28
     ef6:	df 93       	push	r29
     ef8:	ec 01       	movw	r28, r24
     efa:	0e 94 58 07 	call	0xeb0	; 0xeb0 <VDskSize>
     efe:	8c 01       	movw	r16, r24
     f00:	0e 94 26 07 	call	0xe4c	; 0xe4c <VDskEraseBlocks>
     f04:	08 1b       	sub	r16, r24
     f06:	19 0b       	sbc	r17, r25
     f08:	16 95       	lsr	r17
     f0a:	07 95       	ror	r16
     f0c:	c0 17       	cp	r28, r16
     f0e:	d1 07       	cpc	r29, r17
     f10:	10 f4       	brcc	.+4      	; 0xf16 <VDskNeedsPurge+0x26>
     f12:	20 e0       	ldi	r18, 0x00	; 0
     f14:	0b c0       	rjmp	.+22     	; 0xf2c <VDskNeedsPurge+0x3c>
     f16:	0e 94 26 07 	call	0xe4c	; 0xe4c <VDskEraseBlocks>
     f1a:	20 e0       	ldi	r18, 0x00	; 0
     f1c:	01 97       	sbiw	r24, 0x01	; 1
     f1e:	96 95       	lsr	r25
     f20:	87 95       	ror	r24
     f22:	8c 23       	and	r24, r28
     f24:	9d 23       	and	r25, r29
     f26:	89 2b       	or	r24, r25
     f28:	09 f4       	brne	.+2      	; 0xf2c <VDskNeedsPurge+0x3c>
     f2a:	21 e0       	ldi	r18, 0x01	; 1
     f2c:	82 2f       	mov	r24, r18
     f2e:	df 91       	pop	r29
     f30:	cf 91       	pop	r28
     f32:	1f 91       	pop	r17
     f34:	0f 91       	pop	r16
     f36:	08 95       	ret

00000f38 <VDskEndTable>:
     f38:	cf 92       	push	r12
     f3a:	df 92       	push	r13
     f3c:	ef 92       	push	r14
     f3e:	ff 92       	push	r15
     f40:	0f 93       	push	r16
     f42:	1f 93       	push	r17
     f44:	6c 01       	movw	r12, r24
     f46:	7b 01       	movw	r14, r22
     f48:	0e 94 58 07 	call	0xeb0	; 0xeb0 <VDskSize>
     f4c:	8c 01       	movw	r16, r24
     f4e:	16 95       	lsr	r17
     f50:	07 95       	ror	r16
     f52:	01 50       	subi	r16, 0x01	; 1
     f54:	10 40       	sbci	r17, 0x00	; 0
     f56:	c8 01       	movw	r24, r16
     f58:	88 0f       	add	r24, r24
     f5a:	89 2f       	mov	r24, r25
     f5c:	88 1f       	adc	r24, r24
     f5e:	99 0b       	sbc	r25, r25
     f60:	91 95       	neg	r25
     f62:	8e 0d       	add	r24, r14
     f64:	9f 1d       	adc	r25, r15
     f66:	b6 01       	movw	r22, r12
     f68:	0e 94 ee 02 	call	0x5dc	; 0x5dc <SerialFlashReadBlock>
     f6c:	0f 77       	andi	r16, 0x7F	; 127
     f6e:	10 70       	andi	r17, 0x00	; 0
     f70:	00 0f       	add	r16, r16
     f72:	11 1f       	adc	r17, r17
     f74:	0c 0d       	add	r16, r12
     f76:	1d 1d       	adc	r17, r13
     f78:	f8 01       	movw	r30, r16
     f7a:	80 81       	ld	r24, Z
     f7c:	91 81       	ldd	r25, Z+1	; 0x01
     f7e:	1f 91       	pop	r17
     f80:	0f 91       	pop	r16
     f82:	ff 90       	pop	r15
     f84:	ef 90       	pop	r14
     f86:	df 90       	pop	r13
     f88:	cf 90       	pop	r12
     f8a:	08 95       	ret

00000f8c <VDskBaseTable>:
     f8c:	cf 93       	push	r28
     f8e:	df 93       	push	r29
     f90:	ec 01       	movw	r28, r24
     f92:	0e 94 ce 03 	call	0x79c	; 0x79c <InterruptSpi>
     f96:	ce 01       	movw	r24, r28
     f98:	60 e0       	ldi	r22, 0x00	; 0
     f9a:	70 e0       	ldi	r23, 0x00	; 0
     f9c:	0e 94 9c 07 	call	0xf38	; 0xf38 <VDskEndTable>
     fa0:	8f 5f       	subi	r24, 0xFF	; 255
     fa2:	9f 4f       	sbci	r25, 0xFF	; 255
     fa4:	e1 f4       	brne	.+56     	; 0xfde <VDskBaseTable+0x52>
     fa6:	0e 94 58 07 	call	0xeb0	; 0xeb0 <VDskSize>
     faa:	fc 01       	movw	r30, r24
     fac:	f6 95       	lsr	r31
     fae:	e7 95       	ror	r30
     fb0:	32 97       	sbiw	r30, 0x02	; 2
     fb2:	ef 77       	andi	r30, 0x7F	; 127
     fb4:	f0 70       	andi	r31, 0x00	; 0
     fb6:	ee 0f       	add	r30, r30
     fb8:	ff 1f       	adc	r31, r31
     fba:	ec 0f       	add	r30, r28
     fbc:	fd 1f       	adc	r31, r29
     fbe:	80 81       	ld	r24, Z
     fc0:	91 81       	ldd	r25, Z+1	; 0x01
     fc2:	8f 5f       	subi	r24, 0xFF	; 255
     fc4:	9f 4f       	sbci	r25, 0xFF	; 255
     fc6:	41 f0       	breq	.+16     	; 0xfd8 <VDskBaseTable+0x4c>
     fc8:	ce 01       	movw	r24, r28
     fca:	60 e1       	ldi	r22, 0x10	; 16
     fcc:	70 e0       	ldi	r23, 0x00	; 0
     fce:	0e 94 9c 07 	call	0xf38	; 0xf38 <VDskEndTable>
     fd2:	8f 5f       	subi	r24, 0xFF	; 255
     fd4:	9f 4f       	sbci	r25, 0xFF	; 255
     fd6:	19 f0       	breq	.+6      	; 0xfde <VDskBaseTable+0x52>
     fd8:	20 e1       	ldi	r18, 0x10	; 16
     fda:	30 e0       	ldi	r19, 0x00	; 0
     fdc:	02 c0       	rjmp	.+4      	; 0xfe2 <VDskBaseTable+0x56>
     fde:	20 e0       	ldi	r18, 0x00	; 0
     fe0:	30 e0       	ldi	r19, 0x00	; 0
     fe2:	c9 01       	movw	r24, r18
     fe4:	df 91       	pop	r29
     fe6:	cf 91       	pop	r28
     fe8:	08 95       	ret

00000fea <VDskReadVTableBlock>:
     fea:	ef 92       	push	r14
     fec:	ff 92       	push	r15
     fee:	1f 93       	push	r17
     ff0:	cf 93       	push	r28
     ff2:	df 93       	push	r29
     ff4:	ec 01       	movw	r28, r24
     ff6:	7b 01       	movw	r14, r22
     ff8:	cb 01       	movw	r24, r22
     ffa:	0e 94 c6 07 	call	0xf8c	; 0xf8c <VDskBaseTable>
     ffe:	89 2b       	or	r24, r25
    1000:	21 f0       	breq	.+8      	; 0x100a <VDskReadVTableBlock+0x20>
    1002:	80 e0       	ldi	r24, 0x00	; 0
    1004:	90 e4       	ldi	r25, 0x40	; 64
    1006:	c8 27       	eor	r28, r24
    1008:	d9 27       	eor	r29, r25
    100a:	d6 fd       	sbrc	r29, 6
    100c:	02 c0       	rjmp	.+4      	; 0x1012 <VDskReadVTableBlock+0x28>
    100e:	10 e0       	ldi	r17, 0x00	; 0
    1010:	01 c0       	rjmp	.+2      	; 0x1014 <VDskReadVTableBlock+0x2a>
    1012:	10 e1       	ldi	r17, 0x10	; 16
    1014:	df 73       	andi	r29, 0x3F	; 63
    1016:	cc 0f       	add	r28, r28
    1018:	cd 2f       	mov	r28, r29
    101a:	cc 1f       	adc	r28, r28
    101c:	dd 0b       	sbc	r29, r29
    101e:	d1 95       	neg	r29
    1020:	1c 0f       	add	r17, r28
    1022:	81 2f       	mov	r24, r17
    1024:	90 e0       	ldi	r25, 0x00	; 0
    1026:	b7 01       	movw	r22, r14
    1028:	0e 94 ee 02 	call	0x5dc	; 0x5dc <SerialFlashReadBlock>
    102c:	81 2f       	mov	r24, r17
    102e:	df 91       	pop	r29
    1030:	cf 91       	pop	r28
    1032:	1f 91       	pop	r17
    1034:	ff 90       	pop	r15
    1036:	ef 90       	pop	r14
    1038:	08 95       	ret

0000103a <TestVTable>:
    103a:	cf 93       	push	r28
    103c:	df 93       	push	r29
    103e:	0e 94 ce 03 	call	0x79c	; 0x79c <InterruptSpi>
    1042:	0e 94 c9 0a 	call	0x1592	; 0x1592 <Cls>
    1046:	c0 e0       	ldi	r28, 0x00	; 0
    1048:	d0 e0       	ldi	r29, 0x00	; 0
    104a:	15 c0       	rjmp	.+42     	; 0x1076 <TestVTable+0x3c>
    104c:	80 e0       	ldi	r24, 0x00	; 0
    104e:	65 e1       	ldi	r22, 0x15	; 21
    1050:	0e 94 43 0a 	call	0x1486	; 0x1486 <PrintAt>
    1054:	8f e0       	ldi	r24, 0x0F	; 15
    1056:	91 e0       	ldi	r25, 0x01	; 1
    1058:	0e 94 c6 07 	call	0xf8c	; 0xf8c <VDskBaseTable>
    105c:	8c 0f       	add	r24, r28
    105e:	9d 1f       	adc	r25, r29
    1060:	0e 94 8a 0b 	call	0x1714	; 0x1714 <DotHex>
    1064:	ce 01       	movw	r24, r28
    1066:	40 96       	adiw	r24, 0x10	; 16
    1068:	6f e0       	ldi	r22, 0x0F	; 15
    106a:	71 e0       	ldi	r23, 0x01	; 1
    106c:	0e 94 ee 02 	call	0x5dc	; 0x5dc <SerialFlashReadBlock>
    1070:	0e 94 0d 07 	call	0xe1a	; 0xe1a <Key>
    1074:	21 96       	adiw	r28, 0x01	; 1
    1076:	0e 94 58 07 	call	0xeb0	; 0xeb0 <VDskSize>
    107a:	96 95       	lsr	r25
    107c:	87 95       	ror	r24
    107e:	c8 17       	cp	r28, r24
    1080:	d9 07       	cpc	r29, r25
    1082:	20 f3       	brcs	.-56     	; 0x104c <TestVTable+0x12>
    1084:	df 91       	pop	r29
    1086:	cf 91       	pop	r28
    1088:	08 95       	ret

0000108a <VDskFindEntry>:
    108a:	8f 92       	push	r8
    108c:	9f 92       	push	r9
    108e:	af 92       	push	r10
    1090:	bf 92       	push	r11
    1092:	cf 92       	push	r12
    1094:	df 92       	push	r13
    1096:	ef 92       	push	r14
    1098:	ff 92       	push	r15
    109a:	0f 93       	push	r16
    109c:	1f 93       	push	r17
    109e:	cf 93       	push	r28
    10a0:	df 93       	push	r29
    10a2:	5c 01       	movw	r10, r24
    10a4:	6b 01       	movw	r12, r22
    10a6:	0e 94 58 07 	call	0xeb0	; 0xeb0 <VDskSize>
    10aa:	4c 01       	movw	r8, r24
    10ac:	96 94       	lsr	r9
    10ae:	87 94       	ror	r8
    10b0:	e1 2c       	mov	r14, r1
    10b2:	40 e8       	ldi	r20, 0x80	; 128
    10b4:	f4 2e       	mov	r15, r20
    10b6:	c0 e0       	ldi	r28, 0x00	; 0
    10b8:	d0 e0       	ldi	r29, 0x00	; 0
    10ba:	ce 01       	movw	r24, r28
    10bc:	9f 73       	andi	r25, 0x3F	; 63
    10be:	88 15       	cp	r24, r8
    10c0:	99 05       	cpc	r25, r9
    10c2:	20 f0       	brcs	.+8      	; 0x10cc <VDskFindEntry+0x42>
    10c4:	c0 70       	andi	r28, 0x00	; 0
    10c6:	d0 7c       	andi	r29, 0xC0	; 192
    10c8:	c0 50       	subi	r28, 0x00	; 0
    10ca:	d0 4c       	sbci	r29, 0xC0	; 192
    10cc:	8e 01       	movw	r16, r28
    10ce:	0f 77       	andi	r16, 0x7F	; 127
    10d0:	10 70       	andi	r17, 0x00	; 0
    10d2:	01 15       	cp	r16, r1
    10d4:	11 05       	cpc	r17, r1
    10d6:	21 f4       	brne	.+8      	; 0x10e0 <VDskFindEntry+0x56>
    10d8:	ce 01       	movw	r24, r28
    10da:	b6 01       	movw	r22, r12
    10dc:	0e 94 f5 07 	call	0xfea	; 0xfea <VDskReadVTableBlock>
    10e0:	00 0f       	add	r16, r16
    10e2:	11 1f       	adc	r17, r17
    10e4:	0c 0d       	add	r16, r12
    10e6:	1d 1d       	adc	r17, r13
    10e8:	f8 01       	movw	r30, r16
    10ea:	80 81       	ld	r24, Z
    10ec:	91 81       	ldd	r25, Z+1	; 0x01
    10ee:	8a 15       	cp	r24, r10
    10f0:	9b 05       	cpc	r25, r11
    10f2:	49 f0       	breq	.+18     	; 0x1106 <VDskFindEntry+0x7c>
    10f4:	8f 5f       	subi	r24, 0xFF	; 255
    10f6:	9f 4f       	sbci	r25, 0xFF	; 255
    10f8:	61 f4       	brne	.+24     	; 0x1112 <VDskFindEntry+0x88>
    10fa:	20 e0       	ldi	r18, 0x00	; 0
    10fc:	e2 16       	cp	r14, r18
    10fe:	20 e8       	ldi	r18, 0x80	; 128
    1100:	f2 06       	cpc	r15, r18
    1102:	51 f4       	brne	.+20     	; 0x1118 <VDskFindEntry+0x8e>
    1104:	17 c0       	rjmp	.+46     	; 0x1134 <VDskFindEntry+0xaa>
    1106:	8f ef       	ldi	r24, 0xFF	; 255
    1108:	a8 16       	cp	r10, r24
    110a:	8f ef       	ldi	r24, 0xFF	; 255
    110c:	b8 06       	cpc	r11, r24
    110e:	91 f0       	breq	.+36     	; 0x1134 <VDskFindEntry+0xaa>
    1110:	7e 01       	movw	r14, r28
    1112:	21 96       	adiw	r28, 0x01	; 1
    1114:	d7 ff       	sbrs	r29, 7
    1116:	d1 cf       	rjmp	.-94     	; 0x10ba <VDskFindEntry+0x30>
    1118:	c7 01       	movw	r24, r14
    111a:	df 91       	pop	r29
    111c:	cf 91       	pop	r28
    111e:	1f 91       	pop	r17
    1120:	0f 91       	pop	r16
    1122:	ff 90       	pop	r15
    1124:	ef 90       	pop	r14
    1126:	df 90       	pop	r13
    1128:	cf 90       	pop	r12
    112a:	bf 90       	pop	r11
    112c:	af 90       	pop	r10
    112e:	9f 90       	pop	r9
    1130:	8f 90       	pop	r8
    1132:	08 95       	ret
    1134:	7e 01       	movw	r14, r28
    1136:	f0 cf       	rjmp	.-32     	; 0x1118 <VDskFindEntry+0x8e>

00001138 <VDskFind>:
    1138:	cf 92       	push	r12
    113a:	df 92       	push	r13
    113c:	ef 92       	push	r14
    113e:	ff 92       	push	r15
    1140:	0f 93       	push	r16
    1142:	1f 93       	push	r17
    1144:	8c 01       	movw	r16, r24
    1146:	7b 01       	movw	r14, r22
    1148:	0e 94 ce 03 	call	0x79c	; 0x79c <InterruptSpi>
    114c:	0e 94 3f 07 	call	0xe7e	; 0xe7e <VDskBaseBlock>
    1150:	6c 01       	movw	r12, r24
    1152:	c8 01       	movw	r24, r16
    1154:	b7 01       	movw	r22, r14
    1156:	0e 94 45 08 	call	0x108a	; 0x108a <VDskFindEntry>
    115a:	9c 01       	movw	r18, r24
    115c:	3f 73       	andi	r19, 0x3F	; 63
    115e:	22 0f       	add	r18, r18
    1160:	33 1f       	adc	r19, r19
    1162:	2c 0d       	add	r18, r12
    1164:	3d 1d       	adc	r19, r13
    1166:	c9 01       	movw	r24, r18
    1168:	1f 91       	pop	r17
    116a:	0f 91       	pop	r16
    116c:	ff 90       	pop	r15
    116e:	ef 90       	pop	r14
    1170:	df 90       	pop	r13
    1172:	cf 90       	pop	r12
    1174:	08 95       	ret

00001176 <VDskRead>:
    1176:	0f 93       	push	r16
    1178:	1f 93       	push	r17
    117a:	cf 93       	push	r28
    117c:	df 93       	push	r29
    117e:	ec 01       	movw	r28, r24
    1180:	8b 01       	movw	r16, r22
    1182:	96 ff       	sbrs	r25, 6
    1184:	04 c0       	rjmp	.+8      	; 0x118e <VDskRead+0x18>
    1186:	0e 94 ce 03 	call	0x79c	; 0x79c <InterruptSpi>
    118a:	df 73       	andi	r29, 0x3F	; 63
    118c:	09 c0       	rjmp	.+18     	; 0x11a0 <VDskRead+0x2a>
    118e:	0e 94 9c 08 	call	0x1138	; 0x1138 <VDskFind>
    1192:	ec 01       	movw	r28, r24
    1194:	b8 01       	movw	r22, r16
    1196:	60 50       	subi	r22, 0x00	; 0
    1198:	7f 4f       	sbci	r23, 0xFF	; 255
    119a:	01 96       	adiw	r24, 0x01	; 1
    119c:	0e 94 ee 02 	call	0x5dc	; 0x5dc <SerialFlashReadBlock>
    11a0:	ce 01       	movw	r24, r28
    11a2:	b8 01       	movw	r22, r16
    11a4:	0e 94 ee 02 	call	0x5dc	; 0x5dc <SerialFlashReadBlock>
    11a8:	ce 01       	movw	r24, r28
    11aa:	df 91       	pop	r29
    11ac:	cf 91       	pop	r28
    11ae:	1f 91       	pop	r17
    11b0:	0f 91       	pop	r16
    11b2:	08 95       	ret

000011b4 <VDskPrepWrite>:
    11b4:	ef 92       	push	r14
    11b6:	ff 92       	push	r15
    11b8:	0f 93       	push	r16
    11ba:	1f 93       	push	r17
    11bc:	cf 93       	push	r28
    11be:	df 93       	push	r29
    11c0:	7c 01       	movw	r14, r24
    11c2:	8b 01       	movw	r16, r22
    11c4:	8f ef       	ldi	r24, 0xFF	; 255
    11c6:	9f ef       	ldi	r25, 0xFF	; 255
    11c8:	0e 94 45 08 	call	0x108a	; 0x108a <VDskFindEntry>
    11cc:	ec 01       	movw	r28, r24
    11ce:	0e 94 58 07 	call	0xeb0	; 0xeb0 <VDskSize>
    11d2:	96 95       	lsr	r25
    11d4:	87 95       	ror	r24
    11d6:	81 50       	subi	r24, 0x01	; 1
    11d8:	90 4c       	sbci	r25, 0xC0	; 192
    11da:	c8 17       	cp	r28, r24
    11dc:	d9 07       	cpc	r29, r25
    11de:	48 f0       	brcs	.+18     	; 0x11f2 <VDskPrepWrite+0x3e>
    11e0:	c8 01       	movw	r24, r16
    11e2:	0e 94 c6 07 	call	0xf8c	; 0xf8c <VDskBaseTable>
    11e6:	0e 94 6a 03 	call	0x6d4	; 0x6d4 <SerialFlashEraseSector>
    11ea:	80 e0       	ldi	r24, 0x00	; 0
    11ec:	90 e4       	ldi	r25, 0x40	; 64
    11ee:	c8 27       	eor	r28, r24
    11f0:	d9 27       	eor	r29, r25
    11f2:	ce 01       	movw	r24, r28
    11f4:	b8 01       	movw	r22, r16
    11f6:	0e 94 f5 07 	call	0xfea	; 0xfea <VDskReadVTableBlock>
    11fa:	cf 77       	andi	r28, 0x7F	; 127
    11fc:	d0 70       	andi	r29, 0x00	; 0
    11fe:	cc 0f       	add	r28, r28
    1200:	dd 1f       	adc	r29, r29
    1202:	c0 0f       	add	r28, r16
    1204:	d1 1f       	adc	r29, r17
    1206:	f9 82       	std	Y+1, r15	; 0x01
    1208:	e8 82       	st	Y, r14
    120a:	90 e0       	ldi	r25, 0x00	; 0
    120c:	b8 01       	movw	r22, r16
    120e:	0e 94 42 03 	call	0x684	; 0x684 <SerialFlashWriteBlock>
    1212:	df 91       	pop	r29
    1214:	cf 91       	pop	r28
    1216:	1f 91       	pop	r17
    1218:	0f 91       	pop	r16
    121a:	ff 90       	pop	r15
    121c:	ef 90       	pop	r14
    121e:	08 95       	ret

00001220 <VDskPhysPageForEntry>:
    1220:	cf 93       	push	r28
    1222:	df 93       	push	r29
    1224:	ec 01       	movw	r28, r24
    1226:	df 73       	andi	r29, 0x3F	; 63
    1228:	0e 94 58 07 	call	0xeb0	; 0xeb0 <VDskSize>
    122c:	c8 17       	cp	r28, r24
    122e:	d9 07       	cpc	r29, r25
    1230:	20 f0       	brcs	.+8      	; 0x123a <VDskPhysPageForEntry+0x1a>
    1232:	0e 94 58 07 	call	0xeb0	; 0xeb0 <VDskSize>
    1236:	c8 1b       	sub	r28, r24
    1238:	d9 0b       	sbc	r29, r25
    123a:	0e 94 3f 07 	call	0xe7e	; 0xe7e <VDskBaseBlock>
    123e:	9e 01       	movw	r18, r28
    1240:	22 0f       	add	r18, r18
    1242:	33 1f       	adc	r19, r19
    1244:	28 0f       	add	r18, r24
    1246:	39 1f       	adc	r19, r25
    1248:	c9 01       	movw	r24, r18
    124a:	df 91       	pop	r29
    124c:	cf 91       	pop	r28
    124e:	08 95       	ret

00001250 <VDskPurge>:
    1250:	4f 92       	push	r4
    1252:	5f 92       	push	r5
    1254:	6f 92       	push	r6
    1256:	7f 92       	push	r7
    1258:	8f 92       	push	r8
    125a:	9f 92       	push	r9
    125c:	af 92       	push	r10
    125e:	bf 92       	push	r11
    1260:	cf 92       	push	r12
    1262:	df 92       	push	r13
    1264:	ef 92       	push	r14
    1266:	ff 92       	push	r15
    1268:	0f 93       	push	r16
    126a:	1f 93       	push	r17
    126c:	cf 93       	push	r28
    126e:	df 93       	push	r29
    1270:	8c 01       	movw	r16, r24
    1272:	6b 01       	movw	r12, r22
    1274:	0e 94 26 07 	call	0xe4c	; 0xe4c <VDskEraseBlocks>
    1278:	96 95       	lsr	r25
    127a:	87 95       	ror	r24
    127c:	78 2e       	mov	r7, r24
    127e:	0e 94 58 07 	call	0xeb0	; 0xeb0 <VDskSize>
    1282:	27 2d       	mov	r18, r7
    1284:	30 e0       	ldi	r19, 0x00	; 0
    1286:	fc 01       	movw	r30, r24
    1288:	f6 95       	lsr	r31
    128a:	e7 95       	ror	r30
    128c:	e2 1b       	sub	r30, r18
    128e:	f3 0b       	sbc	r31, r19
    1290:	c8 01       	movw	r24, r16
    1292:	9f 73       	andi	r25, 0x3F	; 63
    1294:	8e 17       	cp	r24, r30
    1296:	9f 07       	cpc	r25, r31
    1298:	20 f0       	brcs	.+8      	; 0x12a2 <VDskPurge+0x52>
    129a:	e8 01       	movw	r28, r16
    129c:	ce 1b       	sub	r28, r30
    129e:	df 0b       	sbc	r29, r31
    12a0:	07 c0       	rjmp	.+14     	; 0x12b0 <VDskPurge+0x60>
    12a2:	e9 01       	movw	r28, r18
    12a4:	c0 0f       	add	r28, r16
    12a6:	d1 1f       	adc	r29, r17
    12a8:	80 e0       	ldi	r24, 0x00	; 0
    12aa:	90 e4       	ldi	r25, 0x40	; 64
    12ac:	c8 27       	eor	r28, r24
    12ae:	d9 27       	eor	r29, r25
    12b0:	67 2c       	mov	r6, r7
    12b2:	ce 01       	movw	r24, r28
    12b4:	0e 94 10 09 	call	0x1220	; 0x1220 <VDskPhysPageForEntry>
    12b8:	2c 01       	movw	r4, r24
    12ba:	c8 01       	movw	r24, r16
    12bc:	0e 94 10 09 	call	0x1220	; 0x1220 <VDskPhysPageForEntry>
    12c0:	5c 01       	movw	r10, r24
    12c2:	b6 01       	movw	r22, r12
    12c4:	60 50       	subi	r22, 0x00	; 0
    12c6:	7f 4f       	sbci	r23, 0xFF	; 255
    12c8:	ce 01       	movw	r24, r28
    12ca:	0e 94 f5 07 	call	0xfea	; 0xfea <VDskReadVTableBlock>
    12ce:	fe 01       	movw	r30, r28
    12d0:	ef 77       	andi	r30, 0x7F	; 127
    12d2:	f0 70       	andi	r31, 0x00	; 0
    12d4:	e0 58       	subi	r30, 0x80	; 128
    12d6:	ff 4f       	sbci	r31, 0xFF	; 255
    12d8:	ee 0f       	add	r30, r30
    12da:	ff 1f       	adc	r31, r31
    12dc:	ec 0d       	add	r30, r12
    12de:	fd 1d       	adc	r31, r13
    12e0:	80 80       	ld	r8, Z
    12e2:	91 80       	ldd	r9, Z+1	; 0x01
    12e4:	c4 01       	movw	r24, r8
    12e6:	b6 01       	movw	r22, r12
    12e8:	0e 94 45 08 	call	0x108a	; 0x108a <VDskFindEntry>
    12ec:	c8 17       	cp	r28, r24
    12ee:	d9 07       	cpc	r29, r25
    12f0:	31 f5       	brne	.+76     	; 0x133e <VDskPurge+0xee>
    12f2:	0e 94 3f 07 	call	0xe7e	; 0xe7e <VDskBaseBlock>
    12f6:	8e 01       	movw	r16, r28
    12f8:	1f 73       	andi	r17, 0x3F	; 63
    12fa:	00 0f       	add	r16, r16
    12fc:	11 1f       	adc	r17, r17
    12fe:	08 0f       	add	r16, r24
    1300:	19 1f       	adc	r17, r25
    1302:	c8 01       	movw	r24, r16
    1304:	b6 01       	movw	r22, r12
    1306:	0e 94 ee 02 	call	0x5dc	; 0x5dc <SerialFlashReadBlock>
    130a:	75 01       	movw	r14, r10
    130c:	08 94       	sec
    130e:	e1 1c       	adc	r14, r1
    1310:	f1 1c       	adc	r15, r1
    1312:	c5 01       	movw	r24, r10
    1314:	b6 01       	movw	r22, r12
    1316:	0e 94 42 03 	call	0x684	; 0x684 <SerialFlashWriteBlock>
    131a:	c8 01       	movw	r24, r16
    131c:	01 96       	adiw	r24, 0x01	; 1
    131e:	b6 01       	movw	r22, r12
    1320:	0e 94 ee 02 	call	0x5dc	; 0x5dc <SerialFlashReadBlock>
    1324:	57 01       	movw	r10, r14
    1326:	08 94       	sec
    1328:	a1 1c       	adc	r10, r1
    132a:	b1 1c       	adc	r11, r1
    132c:	c7 01       	movw	r24, r14
    132e:	b6 01       	movw	r22, r12
    1330:	0e 94 42 03 	call	0x684	; 0x684 <SerialFlashWriteBlock>
    1334:	c4 01       	movw	r24, r8
    1336:	b6 01       	movw	r22, r12
    1338:	0e 94 da 08 	call	0x11b4	; 0x11b4 <VDskPrepWrite>
    133c:	6a 94       	dec	r6
    133e:	7a 94       	dec	r7
    1340:	11 f0       	breq	.+4      	; 0x1346 <VDskPurge+0xf6>
    1342:	21 96       	adiw	r28, 0x01	; 1
    1344:	c4 cf       	rjmp	.-120    	; 0x12ce <VDskPurge+0x7e>
    1346:	c2 01       	movw	r24, r4
    1348:	0e 94 6a 03 	call	0x6d4	; 0x6d4 <SerialFlashEraseSector>
    134c:	80 e0       	ldi	r24, 0x00	; 0
    134e:	16 14       	cp	r1, r6
    1350:	0c f0       	brlt	.+2      	; 0x1354 <VDskPurge+0x104>
    1352:	81 e0       	ldi	r24, 0x01	; 1
    1354:	df 91       	pop	r29
    1356:	cf 91       	pop	r28
    1358:	1f 91       	pop	r17
    135a:	0f 91       	pop	r16
    135c:	ff 90       	pop	r15
    135e:	ef 90       	pop	r14
    1360:	df 90       	pop	r13
    1362:	cf 90       	pop	r12
    1364:	bf 90       	pop	r11
    1366:	af 90       	pop	r10
    1368:	9f 90       	pop	r9
    136a:	8f 90       	pop	r8
    136c:	7f 90       	pop	r7
    136e:	6f 90       	pop	r6
    1370:	5f 90       	pop	r5
    1372:	4f 90       	pop	r4
    1374:	08 95       	ret

00001376 <VDskWrite>:
    1376:	cf 92       	push	r12
    1378:	df 92       	push	r13
    137a:	ef 92       	push	r14
    137c:	ff 92       	push	r15
    137e:	0f 93       	push	r16
    1380:	1f 93       	push	r17
    1382:	cf 93       	push	r28
    1384:	df 93       	push	r29
    1386:	7c 01       	movw	r14, r24
    1388:	8b 01       	movw	r16, r22
    138a:	ea 01       	movw	r28, r20
    138c:	0e 94 ce 03 	call	0x79c	; 0x79c <InterruptSpi>
    1390:	c8 01       	movw	r24, r16
    1392:	be 01       	movw	r22, r28
    1394:	0e 94 42 03 	call	0x684	; 0x684 <SerialFlashWriteBlock>
    1398:	c1 2c       	mov	r12, r1
    139a:	31 e0       	ldi	r19, 0x01	; 1
    139c:	d3 2e       	mov	r13, r19
    139e:	cc 0e       	add	r12, r28
    13a0:	dd 1e       	adc	r13, r29
    13a2:	c8 01       	movw	r24, r16
    13a4:	01 96       	adiw	r24, 0x01	; 1
    13a6:	b6 01       	movw	r22, r12
    13a8:	0e 94 42 03 	call	0x684	; 0x684 <SerialFlashWriteBlock>
    13ac:	c7 01       	movw	r24, r14
    13ae:	be 01       	movw	r22, r28
    13b0:	0e 94 da 08 	call	0x11b4	; 0x11b4 <VDskPrepWrite>
    13b4:	ee 24       	eor	r14, r14
    13b6:	e3 94       	inc	r14
    13b8:	8f ef       	ldi	r24, 0xFF	; 255
    13ba:	9f ef       	ldi	r25, 0xFF	; 255
    13bc:	be 01       	movw	r22, r28
    13be:	0e 94 45 08 	call	0x108a	; 0x108a <VDskFindEntry>
    13c2:	8c 01       	movw	r16, r24
    13c4:	b6 01       	movw	r22, r12
    13c6:	0e 94 78 07 	call	0xef0	; 0xef0 <VDskNeedsPurge>
    13ca:	88 23       	and	r24, r24
    13cc:	49 f0       	breq	.+18     	; 0x13e0 <VDskWrite+0x6a>
    13ce:	ee 20       	and	r14, r14
    13d0:	39 f0       	breq	.+14     	; 0x13e0 <VDskWrite+0x6a>
    13d2:	c8 01       	movw	r24, r16
    13d4:	be 01       	movw	r22, r28
    13d6:	0e 94 28 09 	call	0x1250	; 0x1250 <VDskPurge>
    13da:	e8 2e       	mov	r14, r24
    13dc:	88 23       	and	r24, r24
    13de:	61 f7       	brne	.-40     	; 0x13b8 <VDskWrite+0x42>
    13e0:	df 91       	pop	r29
    13e2:	cf 91       	pop	r28
    13e4:	1f 91       	pop	r17
    13e6:	0f 91       	pop	r16
    13e8:	ff 90       	pop	r15
    13ea:	ef 90       	pop	r14
    13ec:	df 90       	pop	r13
    13ee:	cf 90       	pop	r12
    13f0:	08 95       	ret

000013f2 <VDskErase>:
    13f2:	cf 92       	push	r12
    13f4:	df 92       	push	r13
    13f6:	ef 92       	push	r14
    13f8:	ff 92       	push	r15
    13fa:	0f 93       	push	r16
    13fc:	1f 93       	push	r17
    13fe:	cf 93       	push	r28
    1400:	df 93       	push	r29
    1402:	0e 94 12 03 	call	0x624	; 0x624 <SerialFlashID>
    1406:	6c 01       	movw	r12, r24
    1408:	0e 94 26 07 	call	0xe4c	; 0xe4c <VDskEraseBlocks>
    140c:	c0 e0       	ldi	r28, 0x00	; 0
    140e:	d0 e0       	ldi	r29, 0x00	; 0
    1410:	7c 01       	movw	r14, r24
    1412:	08 94       	sec
    1414:	e1 08       	sbc	r14, r1
    1416:	f1 08       	sbc	r15, r1
    1418:	20 c0       	rjmp	.+64     	; 0x145a <VDskErase+0x68>
    141a:	83 e1       	ldi	r24, 0x13	; 19
    141c:	c8 16       	cp	r12, r24
    141e:	80 e2       	ldi	r24, 0x20	; 32
    1420:	d8 06       	cpc	r13, r24
    1422:	81 f4       	brne	.+32     	; 0x1444 <VDskErase+0x52>
    1424:	20 97       	sbiw	r28, 0x00	; 0
    1426:	71 f0       	breq	.+28     	; 0x1444 <VDskErase+0x52>
    1428:	c0 31       	cpi	r28, 0x10	; 16
    142a:	d1 05       	cpc	r29, r1
    142c:	59 f0       	breq	.+22     	; 0x1444 <VDskErase+0x52>
    142e:	c0 32       	cpi	r28, 0x20	; 32
    1430:	d1 05       	cpc	r29, r1
    1432:	41 f0       	breq	.+16     	; 0x1444 <VDskErase+0x52>
    1434:	c0 34       	cpi	r28, 0x40	; 64
    1436:	d1 05       	cpc	r29, r1
    1438:	29 f0       	breq	.+10     	; 0x1444 <VDskErase+0x52>
    143a:	ce 01       	movw	r24, r28
    143c:	8e 21       	and	r24, r14
    143e:	9f 21       	and	r25, r15
    1440:	89 2b       	or	r24, r25
    1442:	51 f4       	brne	.+20     	; 0x1458 <VDskErase+0x66>
    1444:	80 e0       	ldi	r24, 0x00	; 0
    1446:	65 e1       	ldi	r22, 0x15	; 21
    1448:	0e 94 43 0a 	call	0x1486	; 0x1486 <PrintAt>
    144c:	ce 01       	movw	r24, r28
    144e:	0e 94 8a 0b 	call	0x1714	; 0x1714 <DotHex>
    1452:	ce 01       	movw	r24, r28
    1454:	0e 94 6a 03 	call	0x6d4	; 0x6d4 <SerialFlashEraseSector>
    1458:	60 96       	adiw	r28, 0x10	; 16
    145a:	0e 94 58 07 	call	0xeb0	; 0xeb0 <VDskSize>
    145e:	8c 01       	movw	r16, r24
    1460:	0e 94 3f 07 	call	0xe7e	; 0xe7e <VDskBaseBlock>
    1464:	08 0f       	add	r16, r24
    1466:	19 1f       	adc	r17, r25
    1468:	c0 17       	cp	r28, r16
    146a:	d1 07       	cpc	r29, r17
    146c:	b0 f2       	brcs	.-84     	; 0x141a <VDskErase+0x28>
    146e:	df 91       	pop	r29
    1470:	cf 91       	pop	r28
    1472:	1f 91       	pop	r17
    1474:	0f 91       	pop	r16
    1476:	ff 90       	pop	r15
    1478:	ef 90       	pop	r14
    147a:	df 90       	pop	r13
    147c:	cf 90       	pop	r12
    147e:	08 95       	ret

00001480 <ForthDebugStep>:
    1480:	0e 94 bc 03 	call	0x778	; 0x778 <KeyHeart>
    1484:	08 95       	ret

00001486 <PrintAt>:
    1486:	99 e1       	ldi	r25, 0x19	; 25
    1488:	69 9f       	mul	r22, r25
    148a:	b0 01       	movw	r22, r0
    148c:	11 24       	eor	r1, r1
    148e:	61 5f       	subi	r22, 0xF1	; 241
    1490:	7e 4f       	sbci	r23, 0xFE	; 254
    1492:	70 93 e8 03 	sts	0x03E8, r23
    1496:	60 93 e7 03 	sts	0x03E7, r22
    149a:	80 93 e9 03 	sts	0x03E9, r24
    149e:	08 95       	ret

000014a0 <Scroll>:
    14a0:	ef e0       	ldi	r30, 0x0F	; 15
    14a2:	f1 e0       	ldi	r31, 0x01	; 1
    14a4:	81 8d       	ldd	r24, Z+25	; 0x19
    14a6:	81 93       	st	Z+, r24
    14a8:	83 e0       	ldi	r24, 0x03	; 3
    14aa:	ee 34       	cpi	r30, 0x4E	; 78
    14ac:	f8 07       	cpc	r31, r24
    14ae:	d0 f3       	brcs	.-12     	; 0x14a4 <Scroll+0x4>
    14b0:	02 c0       	rjmp	.+4      	; 0x14b6 <Scroll+0x16>
    14b2:	81 93       	st	Z+, r24
    14b4:	01 c0       	rjmp	.+2      	; 0x14b8 <Scroll+0x18>
    14b6:	80 e2       	ldi	r24, 0x20	; 32
    14b8:	93 e0       	ldi	r25, 0x03	; 3
    14ba:	e7 36       	cpi	r30, 0x67	; 103
    14bc:	f9 07       	cpc	r31, r25
    14be:	c8 f3       	brcs	.-14     	; 0x14b2 <Scroll+0x12>
    14c0:	80 91 e7 03 	lds	r24, 0x03E7
    14c4:	90 91 e8 03 	lds	r25, 0x03E8
    14c8:	49 97       	sbiw	r24, 0x19	; 25
    14ca:	90 93 e8 03 	sts	0x03E8, r25
    14ce:	80 93 e7 03 	sts	0x03E7, r24
    14d2:	08 95       	ret

000014d4 <EmitW>:
    14d4:	1f 93       	push	r17
    14d6:	cf 93       	push	r28
    14d8:	df 93       	push	r29
    14da:	ec 01       	movw	r28, r24
    14dc:	87 30       	cpi	r24, 0x07	; 7
    14de:	91 05       	cpc	r25, r1
    14e0:	51 f0       	breq	.+20     	; 0x14f6 <EmitW+0x22>
    14e2:	8d 30       	cpi	r24, 0x0D	; 13
    14e4:	91 05       	cpc	r25, r1
    14e6:	29 f4       	brne	.+10     	; 0x14f2 <EmitW+0x1e>
    14e8:	89 e1       	ldi	r24, 0x19	; 25
    14ea:	80 93 e9 03 	sts	0x03E9, r24
    14ee:	c0 e0       	ldi	r28, 0x00	; 0
    14f0:	d0 e0       	ldi	r29, 0x00	; 0
    14f2:	11 e0       	ldi	r17, 0x01	; 1
    14f4:	17 c0       	rjmp	.+46     	; 0x1524 <EmitW+0x50>
    14f6:	80 91 e9 03 	lds	r24, 0x03E9
    14fa:	88 23       	and	r24, r24
    14fc:	21 f0       	breq	.+8      	; 0x1506 <EmitW+0x32>
    14fe:	81 50       	subi	r24, 0x01	; 1
    1500:	80 93 e9 03 	sts	0x03E9, r24
    1504:	0c c0       	rjmp	.+24     	; 0x151e <EmitW+0x4a>
    1506:	88 e1       	ldi	r24, 0x18	; 24
    1508:	80 93 e9 03 	sts	0x03E9, r24
    150c:	80 91 e7 03 	lds	r24, 0x03E7
    1510:	90 91 e8 03 	lds	r25, 0x03E8
    1514:	49 97       	sbiw	r24, 0x19	; 25
    1516:	90 93 e8 03 	sts	0x03E8, r25
    151a:	80 93 e7 03 	sts	0x03E7, r24
    151e:	c0 e2       	ldi	r28, 0x20	; 32
    1520:	d0 e0       	ldi	r29, 0x00	; 0
    1522:	10 e0       	ldi	r17, 0x00	; 0
    1524:	80 91 e9 03 	lds	r24, 0x03E9
    1528:	89 31       	cpi	r24, 0x19	; 25
    152a:	70 f0       	brcs	.+28     	; 0x1548 <EmitW+0x74>
    152c:	10 92 e9 03 	sts	0x03E9, r1
    1530:	80 91 e7 03 	lds	r24, 0x03E7
    1534:	90 91 e8 03 	lds	r25, 0x03E8
    1538:	49 96       	adiw	r24, 0x19	; 25
    153a:	90 93 e8 03 	sts	0x03E8, r25
    153e:	80 93 e7 03 	sts	0x03E7, r24
    1542:	02 c0       	rjmp	.+4      	; 0x1548 <EmitW+0x74>
    1544:	0e 94 50 0a 	call	0x14a0	; 0x14a0 <Scroll>
    1548:	80 91 e7 03 	lds	r24, 0x03E7
    154c:	90 91 e8 03 	lds	r25, 0x03E8
    1550:	23 e0       	ldi	r18, 0x03	; 3
    1552:	87 36       	cpi	r24, 0x67	; 103
    1554:	92 07       	cpc	r25, r18
    1556:	b0 f7       	brcc	.-20     	; 0x1544 <EmitW+0x70>
    1558:	8f 50       	subi	r24, 0x0F	; 15
    155a:	91 40       	sbci	r25, 0x01	; 1
    155c:	30 f4       	brcc	.+12     	; 0x156a <EmitW+0x96>
    155e:	8f e0       	ldi	r24, 0x0F	; 15
    1560:	91 e0       	ldi	r25, 0x01	; 1
    1562:	90 93 e8 03 	sts	0x03E8, r25
    1566:	80 93 e7 03 	sts	0x03E7, r24
    156a:	20 97       	sbiw	r28, 0x00	; 0
    156c:	71 f0       	breq	.+28     	; 0x158a <EmitW+0xb6>
    156e:	80 91 e9 03 	lds	r24, 0x03E9
    1572:	e0 91 e7 03 	lds	r30, 0x03E7
    1576:	f0 91 e8 03 	lds	r31, 0x03E8
    157a:	e8 0f       	add	r30, r24
    157c:	f1 1d       	adc	r31, r1
    157e:	c0 83       	st	Z, r28
    1580:	80 91 e9 03 	lds	r24, 0x03E9
    1584:	18 0f       	add	r17, r24
    1586:	10 93 e9 03 	sts	0x03E9, r17
    158a:	df 91       	pop	r29
    158c:	cf 91       	pop	r28
    158e:	1f 91       	pop	r17
    1590:	08 95       	ret

00001592 <Cls>:
    1592:	ef e0       	ldi	r30, 0x0F	; 15
    1594:	f1 e0       	ldi	r31, 0x01	; 1
    1596:	80 e2       	ldi	r24, 0x20	; 32
    1598:	81 93       	st	Z+, r24
    159a:	93 e0       	ldi	r25, 0x03	; 3
    159c:	e7 36       	cpi	r30, 0x67	; 103
    159e:	f9 07       	cpc	r31, r25
    15a0:	d8 f3       	brcs	.-10     	; 0x1598 <Cls+0x6>
    15a2:	80 e0       	ldi	r24, 0x00	; 0
    15a4:	60 e0       	ldi	r22, 0x00	; 0
    15a6:	0e 94 43 0a 	call	0x1486	; 0x1486 <PrintAt>
    15aa:	08 95       	ret

000015ac <PlotLoRes>:
    15ac:	28 2f       	mov	r18, r24
    15ae:	82 33       	cpi	r24, 0x32	; 50
    15b0:	08 f0       	brcs	.+2      	; 0x15b4 <PlotLoRes+0x8>
    15b2:	4f c0       	rjmp	.+158    	; 0x1652 <PlotLoRes+0xa6>
    15b4:	60 33       	cpi	r22, 0x30	; 48
    15b6:	08 f0       	brcs	.+2      	; 0x15ba <PlotLoRes+0xe>
    15b8:	4c c0       	rjmp	.+152    	; 0x1652 <PlotLoRes+0xa6>
    15ba:	86 2f       	mov	r24, r22
    15bc:	86 95       	lsr	r24
    15be:	99 e1       	ldi	r25, 0x19	; 25
    15c0:	89 9f       	mul	r24, r25
    15c2:	f0 01       	movw	r30, r0
    15c4:	11 24       	eor	r1, r1
    15c6:	82 2f       	mov	r24, r18
    15c8:	86 95       	lsr	r24
    15ca:	e8 0f       	add	r30, r24
    15cc:	f1 1d       	adc	r31, r1
    15ce:	e1 5f       	subi	r30, 0xF1	; 241
    15d0:	fe 4f       	sbci	r31, 0xFE	; 254
    15d2:	60 fd       	sbrc	r22, 0
    15d4:	02 c0       	rjmp	.+4      	; 0x15da <PlotLoRes+0x2e>
    15d6:	52 e0       	ldi	r21, 0x02	; 2
    15d8:	01 c0       	rjmp	.+2      	; 0x15dc <PlotLoRes+0x30>
    15da:	58 e0       	ldi	r21, 0x08	; 8
    15dc:	20 fd       	sbrc	r18, 0
    15de:	56 95       	lsr	r21
    15e0:	0a b4       	in	r0, 0x2a	; 42
    15e2:	01 fc       	sbrc	r0, 1
    15e4:	02 c0       	rjmp	.+4      	; 0x15ea <PlotLoRes+0x3e>
    15e6:	30 e0       	ldi	r19, 0x00	; 0
    15e8:	01 c0       	rjmp	.+2      	; 0x15ec <PlotLoRes+0x40>
    15ea:	35 2f       	mov	r19, r21
    15ec:	0a b4       	in	r0, 0x2a	; 42
    15ee:	00 fc       	sbrc	r0, 0
    15f0:	02 c0       	rjmp	.+4      	; 0x15f6 <PlotLoRes+0x4a>
    15f2:	40 e0       	ldi	r20, 0x00	; 0
    15f4:	01 c0       	rjmp	.+2      	; 0x15f8 <PlotLoRes+0x4c>
    15f6:	45 2f       	mov	r20, r21
    15f8:	90 81       	ld	r25, Z
    15fa:	90 3a       	cpi	r25, 0xA0	; 160
    15fc:	31 f0       	breq	.+12     	; 0x160a <PlotLoRes+0x5e>
    15fe:	89 2f       	mov	r24, r25
    1600:	88 77       	andi	r24, 0x78	; 120
    1602:	80 31       	cpi	r24, 0x10	; 16
    1604:	11 f0       	breq	.+4      	; 0x160a <PlotLoRes+0x5e>
    1606:	20 e0       	ldi	r18, 0x00	; 0
    1608:	06 c0       	rjmp	.+12     	; 0x1616 <PlotLoRes+0x6a>
    160a:	29 2f       	mov	r18, r25
    160c:	27 78       	andi	r18, 0x87	; 135
    160e:	27 ff       	sbrs	r18, 7
    1610:	02 c0       	rjmp	.+4      	; 0x1616 <PlotLoRes+0x6a>
    1612:	8f e8       	ldi	r24, 0x8F	; 143
    1614:	28 27       	eor	r18, r24
    1616:	85 2f       	mov	r24, r21
    1618:	80 95       	com	r24
    161a:	83 23       	and	r24, r19
    161c:	94 2f       	mov	r25, r20
    161e:	93 2b       	or	r25, r19
    1620:	90 95       	com	r25
    1622:	98 2b       	or	r25, r24
    1624:	92 23       	and	r25, r18
    1626:	30 95       	com	r19
    1628:	35 23       	and	r19, r21
    162a:	34 23       	and	r19, r20
    162c:	93 2b       	or	r25, r19
    162e:	45 23       	and	r20, r21
    1630:	20 95       	com	r18
    1632:	42 23       	and	r20, r18
    1634:	94 2b       	or	r25, r20
    1636:	93 ff       	sbrs	r25, 3
    1638:	02 c0       	rjmp	.+4      	; 0x163e <PlotLoRes+0x92>
    163a:	8f e8       	ldi	r24, 0x8F	; 143
    163c:	98 27       	eor	r25, r24
    163e:	29 2f       	mov	r18, r25
    1640:	20 5f       	subi	r18, 0xF0	; 240
    1642:	82 2f       	mov	r24, r18
    1644:	90 e0       	ldi	r25, 0x00	; 0
    1646:	87 70       	andi	r24, 0x07	; 7
    1648:	90 70       	andi	r25, 0x00	; 0
    164a:	89 2b       	or	r24, r25
    164c:	09 f4       	brne	.+2      	; 0x1650 <PlotLoRes+0xa4>
    164e:	20 5f       	subi	r18, 0xF0	; 240
    1650:	20 83       	st	Z, r18
    1652:	08 95       	ret

00001654 <PlotHiRes>:
    1654:	0f 93       	push	r16
    1656:	1f 93       	push	r17
    1658:	cf 93       	push	r28
    165a:	df 93       	push	r29
    165c:	8f 39       	cpi	r24, 0x9F	; 159
    165e:	08 f0       	brcs	.+2      	; 0x1662 <PlotHiRes+0xe>
    1660:	4c c0       	rjmp	.+152    	; 0x16fa <PlotHiRes+0xa6>
    1662:	6f 39       	cpi	r22, 0x9F	; 159
    1664:	08 f0       	brcs	.+2      	; 0x1668 <PlotHiRes+0x14>
    1666:	49 c0       	rjmp	.+146    	; 0x16fa <PlotHiRes+0xa6>
    1668:	90 e0       	ldi	r25, 0x00	; 0
    166a:	ec 01       	movw	r28, r24
    166c:	c8 7f       	andi	r28, 0xF8	; 248
    166e:	d0 70       	andi	r29, 0x00	; 0
    1670:	c0 58       	subi	r28, 0x80	; 128
    1672:	dc 46       	sbci	r29, 0x6C	; 108
    1674:	26 2f       	mov	r18, r22
    1676:	27 70       	andi	r18, 0x07	; 7
    1678:	c2 0f       	add	r28, r18
    167a:	d1 1d       	adc	r29, r1
    167c:	24 e1       	ldi	r18, 0x14	; 20
    167e:	68 7f       	andi	r22, 0xF8	; 248
    1680:	62 9f       	mul	r22, r18
    1682:	c0 0d       	add	r28, r0
    1684:	d1 1d       	adc	r29, r1
    1686:	11 24       	eor	r1, r1
    1688:	87 70       	andi	r24, 0x07	; 7
    168a:	90 70       	andi	r25, 0x00	; 0
    168c:	40 e8       	ldi	r20, 0x80	; 128
    168e:	50 e0       	ldi	r21, 0x00	; 0
    1690:	02 c0       	rjmp	.+4      	; 0x1696 <PlotHiRes+0x42>
    1692:	55 95       	asr	r21
    1694:	47 95       	ror	r20
    1696:	8a 95       	dec	r24
    1698:	e2 f7       	brpl	.-8      	; 0x1692 <PlotHiRes+0x3e>
    169a:	24 2f       	mov	r18, r20
    169c:	0a b4       	in	r0, 0x2a	; 42
    169e:	01 fc       	sbrc	r0, 1
    16a0:	02 c0       	rjmp	.+4      	; 0x16a6 <PlotHiRes+0x52>
    16a2:	10 e0       	ldi	r17, 0x00	; 0
    16a4:	01 c0       	rjmp	.+2      	; 0x16a8 <PlotHiRes+0x54>
    16a6:	14 2f       	mov	r17, r20
    16a8:	0a b4       	in	r0, 0x2a	; 42
    16aa:	00 fc       	sbrc	r0, 0
    16ac:	02 c0       	rjmp	.+4      	; 0x16b2 <PlotHiRes+0x5e>
    16ae:	00 e0       	ldi	r16, 0x00	; 0
    16b0:	01 c0       	rjmp	.+2      	; 0x16b4 <PlotHiRes+0x60>
    16b2:	02 2f       	mov	r16, r18
    16b4:	84 e0       	ldi	r24, 0x04	; 4
    16b6:	0d b4       	in	r0, 0x2d	; 45
    16b8:	07 fc       	sbrc	r0, 7
    16ba:	02 c0       	rjmp	.+4      	; 0x16c0 <PlotHiRes+0x6c>
    16bc:	81 50       	subi	r24, 0x01	; 1
    16be:	d9 f7       	brne	.-10     	; 0x16b6 <PlotHiRes+0x62>
    16c0:	8e b5       	in	r24, 0x2e	; 46
    16c2:	29 9a       	sbi	0x05, 1	; 5
    16c4:	00 00       	nop
    16c6:	29 98       	cbi	0x05, 1	; 5
    16c8:	ce 01       	movw	r24, r28
    16ca:	0e 94 c7 0b 	call	0x178e	; 0x178e <SramAbsBeginRd>
    16ce:	0d b4       	in	r0, 0x2d	; 45
    16d0:	07 fe       	sbrs	r0, 7
    16d2:	fd cf       	rjmp	.-6      	; 0x16ce <PlotHiRes+0x7a>
    16d4:	8e b5       	in	r24, 0x2e	; 46
    16d6:	20 2f       	mov	r18, r16
    16d8:	28 2b       	or	r18, r24
    16da:	91 2f       	mov	r25, r17
    16dc:	90 95       	com	r25
    16de:	29 23       	and	r18, r25
    16e0:	80 95       	com	r24
    16e2:	18 23       	and	r17, r24
    16e4:	10 23       	and	r17, r16
    16e6:	21 2b       	or	r18, r17
    16e8:	20 93 ea 03 	sts	0x03EA, r18
    16ec:	ce 01       	movw	r24, r28
    16ee:	6a ee       	ldi	r22, 0xEA	; 234
    16f0:	73 e0       	ldi	r23, 0x03	; 3
    16f2:	41 e0       	ldi	r20, 0x01	; 1
    16f4:	50 e0       	ldi	r21, 0x00	; 0
    16f6:	0e 94 e7 03 	call	0x7ce	; 0x7ce <WriteMem>
    16fa:	df 91       	pop	r29
    16fc:	cf 91       	pop	r28
    16fe:	1f 91       	pop	r17
    1700:	0f 91       	pop	r16
    1702:	08 95       	ret

00001704 <Plot>:
    1704:	f0 9b       	sbis	0x1e, 0	; 30
    1706:	03 c0       	rjmp	.+6      	; 0x170e <Plot+0xa>
    1708:	0e 94 2a 0b 	call	0x1654	; 0x1654 <PlotHiRes>
    170c:	08 95       	ret
    170e:	0e 94 d6 0a 	call	0x15ac	; 0x15ac <PlotLoRes>
    1712:	08 95       	ret

00001714 <DotHex>:
    1714:	ef 92       	push	r14
    1716:	ff 92       	push	r15
    1718:	0f 93       	push	r16
    171a:	1f 93       	push	r17
    171c:	cf 93       	push	r28
    171e:	df 93       	push	r29
    1720:	ec 01       	movw	r28, r24
    1722:	80 e3       	ldi	r24, 0x30	; 48
    1724:	0e 94 20 0d 	call	0x1a40	; 0x1a40 <Emit>
    1728:	88 e7       	ldi	r24, 0x78	; 120
    172a:	0e 94 20 0d 	call	0x1a40	; 0x1a40 <Emit>
    172e:	10 e0       	ldi	r17, 0x00	; 0
    1730:	00 e0       	ldi	r16, 0x00	; 0
    1732:	7e 01       	movw	r14, r28
    1734:	9f 2d       	mov	r25, r15
    1736:	92 95       	swap	r25
    1738:	9f 70       	andi	r25, 0x0F	; 15
    173a:	90 5d       	subi	r25, 0xD0	; 208
    173c:	89 2f       	mov	r24, r25
    173e:	91 33       	cpi	r25, 0x31	; 49
    1740:	2c f4       	brge	.+10     	; 0x174c <DotHex+0x38>
    1742:	13 30       	cpi	r17, 0x03	; 3
    1744:	19 f0       	breq	.+6      	; 0x174c <DotHex+0x38>
    1746:	00 23       	and	r16, r16
    1748:	41 f0       	breq	.+16     	; 0x175a <DotHex+0x46>
    174a:	01 c0       	rjmp	.+2      	; 0x174e <DotHex+0x3a>
    174c:	01 e0       	ldi	r16, 0x01	; 1
    174e:	9a 33       	cpi	r25, 0x3A	; 58
    1750:	14 f0       	brlt	.+4      	; 0x1756 <DotHex+0x42>
    1752:	89 2f       	mov	r24, r25
    1754:	89 5d       	subi	r24, 0xD9	; 217
    1756:	0e 94 20 0d 	call	0x1a40	; 0x1a40 <Emit>
    175a:	1f 5f       	subi	r17, 0xFF	; 255
    175c:	14 30       	cpi	r17, 0x04	; 4
    175e:	31 f0       	breq	.+12     	; 0x176c <DotHex+0x58>
    1760:	84 e0       	ldi	r24, 0x04	; 4
    1762:	cc 0f       	add	r28, r28
    1764:	dd 1f       	adc	r29, r29
    1766:	8a 95       	dec	r24
    1768:	e1 f7       	brne	.-8      	; 0x1762 <DotHex+0x4e>
    176a:	e3 cf       	rjmp	.-58     	; 0x1732 <DotHex+0x1e>
    176c:	80 e2       	ldi	r24, 0x20	; 32
    176e:	0e 94 20 0d 	call	0x1a40	; 0x1a40 <Emit>
    1772:	df 91       	pop	r29
    1774:	cf 91       	pop	r28
    1776:	1f 91       	pop	r17
    1778:	0f 91       	pop	r16
    177a:	ff 90       	pop	r15
    177c:	ef 90       	pop	r14
    177e:	08 95       	ret

00001780 <SetLed>:
    1780:	98 b1       	in	r25, 0x08	; 8
    1782:	81 11       	cpse	r24, r1
    1784:	80 e1       	ldi	r24, 0x10	; 16
    1786:	9f 7e       	andi	r25, 0xEF	; 239
    1788:	89 2b       	or	r24, r25
    178a:	88 b9       	out	0x08, r24	; 8
    178c:	08 95       	ret

0000178e <SramAbsBeginRd>:
    178e:	28 2f       	mov	r18, r24
    1790:	83 e0       	ldi	r24, 0x03	; 3
    1792:	8e bd       	out	0x2e, r24	; 46
    1794:	0d b4       	in	r0, 0x2d	; 45
    1796:	07 fe       	sbrs	r0, 7
    1798:	fd cf       	rjmp	.-6      	; 0x1794 <SramAbsBeginRd+0x6>
    179a:	9e bd       	out	0x2e, r25	; 46
    179c:	0d b4       	in	r0, 0x2d	; 45
    179e:	07 fe       	sbrs	r0, 7
    17a0:	fd cf       	rjmp	.-6      	; 0x179c <SramAbsBeginRd+0xe>
    17a2:	2e bd       	out	0x2e, r18	; 46
    17a4:	0d b4       	in	r0, 0x2d	; 45
    17a6:	07 fe       	sbrs	r0, 7
    17a8:	fd cf       	rjmp	.-6      	; 0x17a4 <SramAbsBeginRd+0x16>
    17aa:	1e bc       	out	0x2e, r1	; 46
    17ac:	08 95       	ret

000017ae <SramAbsOpenWr>:
    17ae:	ff 92       	push	r15
    17b0:	0f 93       	push	r16
    17b2:	1f 93       	push	r17
    17b4:	18 2f       	mov	r17, r24
    17b6:	09 2f       	mov	r16, r25
    17b8:	f6 2e       	mov	r15, r22
    17ba:	29 98       	cbi	0x05, 1	; 5
    17bc:	82 e0       	ldi	r24, 0x02	; 2
    17be:	0e 94 23 0c 	call	0x1846	; 0x1846 <SpiMasterTransmit>
    17c2:	80 2f       	mov	r24, r16
    17c4:	0e 94 23 0c 	call	0x1846	; 0x1846 <SpiMasterTransmit>
    17c8:	81 2f       	mov	r24, r17
    17ca:	0e 94 23 0c 	call	0x1846	; 0x1846 <SpiMasterTransmit>
    17ce:	fe bc       	out	0x2e, r15	; 46
    17d0:	1f 91       	pop	r17
    17d2:	0f 91       	pop	r16
    17d4:	ff 90       	pop	r15
    17d6:	08 95       	ret

000017d8 <SramAbsWr>:
    17d8:	ff 92       	push	r15
    17da:	0f 93       	push	r16
    17dc:	1f 93       	push	r17
    17de:	18 2f       	mov	r17, r24
    17e0:	09 2f       	mov	r16, r25
    17e2:	f6 2e       	mov	r15, r22
    17e4:	29 98       	cbi	0x05, 1	; 5
    17e6:	82 e0       	ldi	r24, 0x02	; 2
    17e8:	0e 94 23 0c 	call	0x1846	; 0x1846 <SpiMasterTransmit>
    17ec:	80 2f       	mov	r24, r16
    17ee:	0e 94 23 0c 	call	0x1846	; 0x1846 <SpiMasterTransmit>
    17f2:	81 2f       	mov	r24, r17
    17f4:	0e 94 23 0c 	call	0x1846	; 0x1846 <SpiMasterTransmit>
    17f8:	8f 2d       	mov	r24, r15
    17fa:	0e 94 23 0c 	call	0x1846	; 0x1846 <SpiMasterTransmit>
    17fe:	29 9a       	sbi	0x05, 1	; 5
    1800:	1f 91       	pop	r17
    1802:	0f 91       	pop	r16
    1804:	ff 90       	pop	r15
    1806:	08 95       	ret

00001808 <SramInit>:
    1808:	29 98       	cbi	0x05, 1	; 5
    180a:	81 e0       	ldi	r24, 0x01	; 1
    180c:	0e 94 23 0c 	call	0x1846	; 0x1846 <SpiMasterTransmit>
    1810:	81 e4       	ldi	r24, 0x41	; 65
    1812:	0e 94 23 0c 	call	0x1846	; 0x1846 <SpiMasterTransmit>
    1816:	29 9a       	sbi	0x05, 1	; 5
    1818:	08 95       	ret

0000181a <SramStatus>:
    181a:	29 98       	cbi	0x05, 1	; 5
    181c:	85 e0       	ldi	r24, 0x05	; 5
    181e:	0e 94 23 0c 	call	0x1846	; 0x1846 <SpiMasterTransmit>
    1822:	0e 94 28 0c 	call	0x1850	; 0x1850 <SpiMasterAutoReadByte>
    1826:	29 9a       	sbi	0x05, 1	; 5
    1828:	08 95       	ret

0000182a <SpiMasterInit>:
    182a:	84 b1       	in	r24, 0x04	; 4
    182c:	81 7c       	andi	r24, 0xC1	; 193
    182e:	8e 62       	ori	r24, 0x2E	; 46
    1830:	84 b9       	out	0x04, r24	; 4
    1832:	85 b1       	in	r24, 0x05	; 5
    1834:	81 7c       	andi	r24, 0xC1	; 193
    1836:	86 60       	ori	r24, 0x06	; 6
    1838:	85 b9       	out	0x05, r24	; 5
    183a:	8d b5       	in	r24, 0x2d	; 45
    183c:	81 60       	ori	r24, 0x01	; 1
    183e:	8d bd       	out	0x2d, r24	; 45
    1840:	80 e5       	ldi	r24, 0x50	; 80
    1842:	8c bd       	out	0x2c, r24	; 44
    1844:	08 95       	ret

00001846 <SpiMasterTransmit>:
    1846:	8e bd       	out	0x2e, r24	; 46
    1848:	0d b4       	in	r0, 0x2d	; 45
    184a:	07 fe       	sbrs	r0, 7
    184c:	fd cf       	rjmp	.-6      	; 0x1848 <SpiMasterTransmit+0x2>
    184e:	08 95       	ret

00001850 <SpiMasterAutoReadByte>:
    1850:	1e bc       	out	0x2e, r1	; 46
    1852:	0d b4       	in	r0, 0x2d	; 45
    1854:	07 fe       	sbrs	r0, 7
    1856:	fd cf       	rjmp	.-6      	; 0x1852 <SpiMasterAutoReadByte+0x2>
    1858:	8e b5       	in	r24, 0x2e	; 46
    185a:	08 95       	ret

0000185c <StartupScreen>:
    185c:	0f 93       	push	r16
    185e:	1f 93       	push	r17
    1860:	cf 93       	push	r28
    1862:	df 93       	push	r29
    1864:	c8 ef       	ldi	r28, 0xF8	; 248
    1866:	d0 e0       	ldi	r29, 0x00	; 0
    1868:	0e 94 c9 0a 	call	0x1592	; 0x1592 <Cls>
    186c:	08 e0       	ldi	r16, 0x08	; 8
    186e:	10 e0       	ldi	r17, 0x00	; 0
    1870:	80 e0       	ldi	r24, 0x00	; 0
    1872:	90 e0       	ldi	r25, 0x00	; 0
    1874:	b8 01       	movw	r22, r16
    1876:	0e 94 43 0a 	call	0x1486	; 0x1486 <PrintAt>
    187a:	80 e0       	ldi	r24, 0x00	; 0
    187c:	90 e0       	ldi	r25, 0x00	; 0
    187e:	fe 01       	movw	r30, r28
    1880:	e8 0f       	add	r30, r24
    1882:	f9 1f       	adc	r31, r25
    1884:	24 91       	lpm	r18, Z+
    1886:	e0 91 e7 03 	lds	r30, 0x03E7
    188a:	f0 91 e8 03 	lds	r31, 0x03E8
    188e:	21 93       	st	Z+, r18
    1890:	f0 93 e8 03 	sts	0x03E8, r31
    1894:	e0 93 e7 03 	sts	0x03E7, r30
    1898:	01 96       	adiw	r24, 0x01	; 1
    189a:	89 31       	cpi	r24, 0x19	; 25
    189c:	91 05       	cpc	r25, r1
    189e:	79 f7       	brne	.-34     	; 0x187e <StartupScreen+0x22>
    18a0:	69 96       	adiw	r28, 0x19	; 25
    18a2:	0f 5f       	subi	r16, 0xFF	; 255
    18a4:	1f 4f       	sbci	r17, 0xFF	; 255
    18a6:	81 e0       	ldi	r24, 0x01	; 1
    18a8:	c7 3a       	cpi	r28, 0xA7	; 167
    18aa:	d8 07       	cpc	r29, r24
    18ac:	09 f7       	brne	.-62     	; 0x1870 <StartupScreen+0x14>
    18ae:	20 91 f5 03 	lds	r18, 0x03F5
    18b2:	30 91 f6 03 	lds	r19, 0x03F6
    18b6:	2c 59       	subi	r18, 0x9C	; 156
    18b8:	3f 4f       	sbci	r19, 0xFF	; 255
    18ba:	80 91 f5 03 	lds	r24, 0x03F5
    18be:	90 91 f6 03 	lds	r25, 0x03F6
    18c2:	28 17       	cp	r18, r24
    18c4:	39 07       	cpc	r19, r25
    18c6:	c9 f7       	brne	.-14     	; 0x18ba <StartupScreen+0x5e>
    18c8:	df 91       	pop	r29
    18ca:	cf 91       	pop	r28
    18cc:	1f 91       	pop	r17
    18ce:	0f 91       	pop	r16
    18d0:	08 95       	ret

000018d2 <__vector_14>:
    18d2:	78 94       	sei
    18d4:	8f 93       	push	r24
    18d6:	9f 93       	push	r25
    18d8:	80 91 00 01 	lds	r24, 0x0100
    18dc:	8a 95       	dec	r24
    18de:	80 93 00 01 	sts	0x0100, r24
    18e2:	71 f0       	breq	.+28     	; 0x1900 <SwUartInt10>
    18e4:	90 e2       	ldi	r25, 0x20	; 32
    18e6:	80 fd       	sbrc	r24, 0
    18e8:	91 e2       	ldi	r25, 0x21	; 33
    18ea:	97 bd       	out	0x27, r25	; 39
    18ec:	90 91 01 01 	lds	r25, 0x0101
    18f0:	08 94       	sec
    18f2:	97 95       	ror	r25
    18f4:	90 93 01 01 	sts	0x0101, r25
    18f8:	82 e8       	ldi	r24, 0x82	; 130
    18fa:	28 f4       	brcc	.+10     	; 0x1906 <SwUartInt20>
    18fc:	82 ec       	ldi	r24, 0xC2	; 194
    18fe:	03 c0       	rjmp	.+6      	; 0x1906 <SwUartInt20>

00001900 <SwUartInt10>:
    1900:	80 e0       	ldi	r24, 0x00	; 0
    1902:	85 bd       	out	0x25, r24	; 37
    1904:	82 e0       	ldi	r24, 0x02	; 2

00001906 <SwUartInt20>:
    1906:	84 bd       	out	0x24, r24	; 36

00001908 <SwUartInt22>:
    1908:	9f 91       	pop	r25
    190a:	8f 91       	pop	r24
    190c:	18 95       	reti

0000190e <_SwUartPutCh>:
    190e:	8f 93       	push	r24
    1910:	0f 93       	push	r16

00001912 <_SwUartPutCh01>:
    1912:	85 b5       	in	r24, 0x25	; 37
    1914:	88 23       	and	r24, r24
    1916:	e9 f7       	brne	.-6      	; 0x1912 <_SwUartPutCh01>
    1918:	00 93 01 01 	sts	0x0101, r16
    191c:	0b e0       	ldi	r16, 0x0B	; 11
    191e:	00 93 00 01 	sts	0x0100, r16
    1922:	80 e2       	ldi	r24, 0x20	; 32
    1924:	87 bd       	out	0x27, r24	; 39
    1926:	82 e8       	ldi	r24, 0x82	; 130
    1928:	84 bd       	out	0x24, r24	; 36
    192a:	80 e0       	ldi	r24, 0x00	; 0
    192c:	86 bd       	out	0x26, r24	; 38
    192e:	83 e0       	ldi	r24, 0x03	; 3
    1930:	85 bd       	out	0x25, r24	; 37
    1932:	0f 91       	pop	r16
    1934:	8f 91       	pop	r24
    1936:	08 95       	ret

00001938 <SwUartPutCh>:
    1938:	08 2f       	mov	r16, r24
    193a:	e9 cf       	rjmp	.-46     	; 0x190e <_SwUartPutCh>

0000193c <SwUartInit>:
    193c:	8f 93       	push	r24
    193e:	9f 93       	push	r25
    1940:	5e 9a       	sbi	0x0b, 6	; 11
    1942:	56 9a       	sbi	0x0a, 6	; 10
    1944:	88 27       	eor	r24, r24
    1946:	85 bd       	out	0x25, r24	; 37
    1948:	80 91 6e 00 	lds	r24, 0x006E
    194c:	82 60       	ori	r24, 0x02	; 2
    194e:	80 93 6e 00 	sts	0x006E, r24
    1952:	78 94       	sei
    1954:	9f 91       	pop	r25
    1956:	8f 91       	pop	r24
    1958:	08 95       	ret

0000195a <IndCCall>:
    195a:	cf 93       	push	r28
    195c:	df 93       	push	r29
    195e:	cd b7       	in	r28, 0x3d	; 61
    1960:	de b7       	in	r29, 0x3e	; 62
    1962:	ef 93       	push	r30
    1964:	ff 93       	push	r31
    1966:	2f 93       	push	r18
    1968:	3f 93       	push	r19
    196a:	4f 93       	push	r20
    196c:	5f 93       	push	r21
    196e:	6f 93       	push	r22
    1970:	7f 93       	push	r23
    1972:	8f 93       	push	r24
    1974:	9f 93       	push	r25
    1976:	af 93       	push	r26
    1978:	bf 93       	push	r27
    197a:	0f 92       	push	r0
    197c:	1f 92       	push	r1
    197e:	1f b6       	in	r1, 0x3f	; 63
    1980:	1f 92       	push	r1
    1982:	11 24       	eor	r1, r1
    1984:	fb 81       	ldd	r31, Y+3	; 0x03
    1986:	ec 81       	ldd	r30, Y+4	; 0x04
    1988:	ee 0f       	add	r30, r30
    198a:	ff 1f       	adc	r31, r31
    198c:	25 91       	lpm	r18, Z+
    198e:	35 91       	lpm	r19, Z+
    1990:	f6 95       	lsr	r31
    1992:	e7 95       	ror	r30
    1994:	ec 83       	std	Y+4, r30	; 0x04
    1996:	fb 83       	std	Y+3, r31	; 0x03
    1998:	f9 01       	movw	r30, r18
    199a:	f6 95       	lsr	r31
    199c:	e7 95       	ror	r30
    199e:	09 95       	icall
    19a0:	1f 90       	pop	r1
    19a2:	1f be       	out	0x3f, r1	; 63
    19a4:	1f 90       	pop	r1
    19a6:	0f 90       	pop	r0
    19a8:	bf 91       	pop	r27
    19aa:	af 91       	pop	r26
    19ac:	9f 91       	pop	r25
    19ae:	8f 91       	pop	r24
    19b0:	7f 91       	pop	r23
    19b2:	6f 91       	pop	r22
    19b4:	5f 91       	pop	r21
    19b6:	4f 91       	pop	r20
    19b8:	3f 91       	pop	r19
    19ba:	2f 91       	pop	r18
    19bc:	ff 91       	pop	r31
    19be:	ef 91       	pop	r30
    19c0:	df 91       	pop	r29
    19c2:	cf 91       	pop	r28
    19c4:	08 95       	ret

000019c6 <SpiDrv>:
    19c6:	0f 93       	push	r16
    19c8:	1f 93       	push	r17
    19ca:	cf 93       	push	r28
    19cc:	df 93       	push	r29
    19ce:	ec 01       	movw	r28, r24
    19d0:	0e 94 ce 03 	call	0x79c	; 0x79c <InterruptSpi>
    19d4:	e8 81       	ld	r30, Y
    19d6:	f0 e0       	ldi	r31, 0x00	; 0
    19d8:	99 81       	ldd	r25, Y+1	; 0x01
    19da:	90 95       	com	r25
    19dc:	80 81       	ld	r24, Z
    19de:	89 23       	and	r24, r25
    19e0:	80 83       	st	Z, r24
    19e2:	0c c0       	rjmp	.+24     	; 0x19fc <SpiDrv+0x36>
    19e4:	ea 81       	ldd	r30, Y+2	; 0x02
    19e6:	fb 81       	ldd	r31, Y+3	; 0x03
    19e8:	81 91       	ld	r24, Z+
    19ea:	fb 83       	std	Y+3, r31	; 0x03
    19ec:	ea 83       	std	Y+2, r30	; 0x02
    19ee:	0e 94 23 0c 	call	0x1846	; 0x1846 <SpiMasterTransmit>
    19f2:	8c 81       	ldd	r24, Y+4	; 0x04
    19f4:	9d 81       	ldd	r25, Y+5	; 0x05
    19f6:	01 97       	sbiw	r24, 0x01	; 1
    19f8:	9d 83       	std	Y+5, r25	; 0x05
    19fa:	8c 83       	std	Y+4, r24	; 0x04
    19fc:	8c 81       	ldd	r24, Y+4	; 0x04
    19fe:	9d 81       	ldd	r25, Y+5	; 0x05
    1a00:	89 2b       	or	r24, r25
    1a02:	81 f7       	brne	.-32     	; 0x19e4 <SpiDrv+0x1e>
    1a04:	0e c0       	rjmp	.+28     	; 0x1a22 <SpiDrv+0x5c>
    1a06:	1e 81       	ldd	r17, Y+6	; 0x06
    1a08:	0f 81       	ldd	r16, Y+7	; 0x07
    1a0a:	0e 94 28 0c 	call	0x1850	; 0x1850 <SpiMasterAutoReadByte>
    1a0e:	e1 2f       	mov	r30, r17
    1a10:	f0 2f       	mov	r31, r16
    1a12:	81 93       	st	Z+, r24
    1a14:	ff 83       	std	Y+7, r31	; 0x07
    1a16:	ee 83       	std	Y+6, r30	; 0x06
    1a18:	88 85       	ldd	r24, Y+8	; 0x08
    1a1a:	99 85       	ldd	r25, Y+9	; 0x09
    1a1c:	01 97       	sbiw	r24, 0x01	; 1
    1a1e:	99 87       	std	Y+9, r25	; 0x09
    1a20:	88 87       	std	Y+8, r24	; 0x08
    1a22:	88 85       	ldd	r24, Y+8	; 0x08
    1a24:	99 85       	ldd	r25, Y+9	; 0x09
    1a26:	89 2b       	or	r24, r25
    1a28:	71 f7       	brne	.-36     	; 0x1a06 <SpiDrv+0x40>
    1a2a:	e8 81       	ld	r30, Y
    1a2c:	f0 e0       	ldi	r31, 0x00	; 0
    1a2e:	80 81       	ld	r24, Z
    1a30:	99 81       	ldd	r25, Y+1	; 0x01
    1a32:	89 2b       	or	r24, r25
    1a34:	80 83       	st	Z, r24
    1a36:	df 91       	pop	r29
    1a38:	cf 91       	pop	r28
    1a3a:	1f 91       	pop	r17
    1a3c:	0f 91       	pop	r16
    1a3e:	08 95       	ret

00001a40 <Emit>:
    1a40:	99 27       	eor	r25, r25
    1a42:	0c 94 6a 0a 	jmp	0x14d4	; 0x14d4 <EmitW>

00001a46 <_VMSeqReadIP>:
    1a46:	d7 fd       	sbrc	r29, 7
    1a48:	04 c0       	rjmp	.+8      	; 0x1a52 <_VMSeqReadIP+0xc>
    1a4a:	fe 01       	movw	r30, r28
    1a4c:	85 91       	lpm	r24, Z+
    1a4e:	21 96       	adiw	r28, 0x01	; 1
    1a50:	06 c0       	rjmp	.+12     	; 0x1a5e <_VMSeqReadIP+0x18>
    1a52:	21 96       	adiw	r28, 0x01	; 1
    1a54:	8d b5       	in	r24, 0x2d	; 45
    1a56:	87 ff       	sbrs	r24, 7
    1a58:	fd cf       	rjmp	.-6      	; 0x1a54 <_VMSeqReadIP+0xe>
    1a5a:	8e b5       	in	r24, 0x2e	; 46
    1a5c:	8e bd       	out	0x2e, r24	; 46
    1a5e:	08 95       	ret

00001a60 <_VmBulkRead>:
    1a60:	97 ff       	sbrs	r25, 7
    1a62:	1b c0       	rjmp	.+54     	; 0x1a9a <_VmBulkReadRom>
    1a64:	6f 93       	push	r22
    1a66:	6d b5       	in	r22, 0x2d	; 45
    1a68:	67 ff       	sbrs	r22, 7
    1a6a:	fd cf       	rjmp	.-6      	; 0x1a66 <_VmBulkRead+0x6>
    1a6c:	29 9a       	sbi	0x05, 1	; 5
    1a6e:	7f 93       	push	r23
    1a70:	4f 93       	push	r20
    1a72:	5f 93       	push	r21
    1a74:	29 98       	cbi	0x05, 1	; 5
    1a76:	0e 94 c7 0b 	call	0x178e	; 0x178e <SramAbsBeginRd>
    1a7a:	9f 91       	pop	r25
    1a7c:	8f 91       	pop	r24
    1a7e:	bf 91       	pop	r27
    1a80:	af 91       	pop	r26
    1a82:	01 c0       	rjmp	.+2      	; 0x1a86 <_VmBulkRead2>

00001a84 <_VmBulkRead1>:
    1a84:	6e bd       	out	0x2e, r22	; 46

00001a86 <_VmBulkRead2>:
    1a86:	6d b5       	in	r22, 0x2d	; 45
    1a88:	67 ff       	sbrs	r22, 7
    1a8a:	fd cf       	rjmp	.-6      	; 0x1a86 <_VmBulkRead2>
    1a8c:	6e b5       	in	r22, 0x2e	; 46
    1a8e:	6d 93       	st	X+, r22
    1a90:	01 97       	sbiw	r24, 0x01	; 1
    1a92:	c1 f7       	brne	.-16     	; 0x1a84 <_VmBulkRead1>
    1a94:	29 9a       	sbi	0x05, 1	; 5
    1a96:	6e bd       	out	0x2e, r22	; 46
    1a98:	08 95       	ret

00001a9a <_VmBulkReadRom>:
    1a9a:	fc 01       	movw	r30, r24
    1a9c:	db 01       	movw	r26, r22
    1a9e:	ca 01       	movw	r24, r20

00001aa0 <_VmBulkReadRom1>:
    1aa0:	45 91       	lpm	r20, Z+
    1aa2:	4d 93       	st	X+, r20
    1aa4:	01 97       	sbiw	r24, 0x01	; 1
    1aa6:	e1 f7       	brne	.-8      	; 0x1aa0 <_VmBulkReadRom1>
    1aa8:	08 95       	ret

00001aaa <__cmove>:
    1aaa:	41 15       	cp	r20, r1
    1aac:	51 05       	cpc	r21, r1
    1aae:	71 f1       	breq	.+92     	; 0x1b0c <__cmoveEnd>
    1ab0:	90 31       	cpi	r25, 0x10	; 16
    1ab2:	68 f1       	brcs	.+90     	; 0x1b0e <__cmoveIntRamSrc>
    1ab4:	70 31       	cpi	r23, 0x10	; 16
    1ab6:	90 f1       	brcs	.+100    	; 0x1b1c <__cmoveIntRamDst>
    1ab8:	df 92       	push	r13
    1aba:	cf 92       	push	r12
    1abc:	af 92       	push	r10
    1abe:	9f 92       	push	r9
    1ac0:	8f 92       	push	r8
    1ac2:	7f 92       	push	r7
    1ac4:	6f 92       	push	r6
    1ac6:	6a 01       	movw	r12, r20
    1ac8:	3c 01       	movw	r6, r24
    1aca:	4b 01       	movw	r8, r22

00001acc <__cmove00>:
    1acc:	a6 01       	movw	r20, r12
    1ace:	48 30       	cpi	r20, 0x08	; 8
    1ad0:	51 05       	cpc	r21, r1
    1ad2:	08 f0       	brcs	.+2      	; 0x1ad6 <__cmove01>
    1ad4:	48 e0       	ldi	r20, 0x08	; 8

00001ad6 <__cmove01>:
    1ad6:	a4 2e       	mov	r10, r20
    1ad8:	50 e0       	ldi	r21, 0x00	; 0
    1ada:	c3 01       	movw	r24, r6
    1adc:	6a ee       	ldi	r22, 0xEA	; 234
    1ade:	73 e0       	ldi	r23, 0x03	; 3

00001ae0 <__cmove02>:
    1ae0:	bf df       	rcall	.-130    	; 0x1a60 <_VmBulkRead>
    1ae2:	c4 01       	movw	r24, r8
    1ae4:	6a ee       	ldi	r22, 0xEA	; 234
    1ae6:	73 e0       	ldi	r23, 0x03	; 3
    1ae8:	4a 2d       	mov	r20, r10
    1aea:	50 e0       	ldi	r21, 0x00	; 0
    1aec:	0e 94 e7 03 	call	0x7ce	; 0x7ce <WriteMem>
    1af0:	6a 0c       	add	r6, r10
    1af2:	71 1c       	adc	r7, r1
    1af4:	8a 0c       	add	r8, r10
    1af6:	91 1c       	adc	r9, r1
    1af8:	ca 18       	sub	r12, r10
    1afa:	d1 08       	sbc	r13, r1
    1afc:	39 f7       	brne	.-50     	; 0x1acc <__cmove00>
    1afe:	6f 90       	pop	r6
    1b00:	7f 90       	pop	r7
    1b02:	8f 90       	pop	r8
    1b04:	9f 90       	pop	r9
    1b06:	af 90       	pop	r10
    1b08:	cf 90       	pop	r12
    1b0a:	df 90       	pop	r13

00001b0c <__cmoveEnd>:
    1b0c:	08 95       	ret

00001b0e <__cmoveIntRamSrc>:
    1b0e:	70 31       	cpi	r23, 0x10	; 16
    1b10:	30 f0       	brcs	.+12     	; 0x1b1e <__cmoveIntRamSrcDst>
    1b12:	fc 01       	movw	r30, r24
    1b14:	cb 01       	movw	r24, r22
    1b16:	bf 01       	movw	r22, r30
    1b18:	0c 94 e7 03 	jmp	0x7ce	; 0x7ce <WriteMem>

00001b1c <__cmoveIntRamDst>:
    1b1c:	a1 cf       	rjmp	.-190    	; 0x1a60 <_VmBulkRead>

00001b1e <__cmoveIntRamSrcDst>:
    1b1e:	fc 01       	movw	r30, r24
    1b20:	db 01       	movw	r26, r22
    1b22:	ca 01       	movw	r24, r20

00001b24 <__cmoveIntRamSrcDst1>:
    1b24:	81 91       	ld	r24, Z+
    1b26:	8d 93       	st	X+, r24
    1b28:	01 97       	sbiw	r24, 0x01	; 1
    1b2a:	e1 f7       	brne	.-8      	; 0x1b24 <__cmoveIntRamSrcDst1>
    1b2c:	08 95       	ret

00001b2e <__fill>:
    1b2e:	61 15       	cp	r22, r1
    1b30:	71 05       	cpc	r23, r1
    1b32:	31 f1       	breq	.+76     	; 0x1b80 <__fillEnd>
    1b34:	90 31       	cpi	r25, 0x10	; 16
    1b36:	28 f1       	brcs	.+74     	; 0x1b82 <__fillInt>
    1b38:	df 92       	push	r13
    1b3a:	cf 92       	push	r12
    1b3c:	bf 92       	push	r11
    1b3e:	af 92       	push	r10
    1b40:	6c 01       	movw	r12, r24
    1b42:	5b 01       	movw	r10, r22
    1b44:	68 30       	cpi	r22, 0x08	; 8
    1b46:	71 05       	cpc	r23, r1
    1b48:	08 f0       	brcs	.+2      	; 0x1b4c <__fill01>
    1b4a:	68 e0       	ldi	r22, 0x08	; 8

00001b4c <__fill01>:
    1b4c:	70 e0       	ldi	r23, 0x00	; 0
    1b4e:	aa ee       	ldi	r26, 0xEA	; 234
    1b50:	b3 e0       	ldi	r27, 0x03	; 3
    1b52:	18 d0       	rcall	.+48     	; 0x1b84 <__fillInt0>

00001b54 <__fill02>:
    1b54:	c6 01       	movw	r24, r12
    1b56:	48 e0       	ldi	r20, 0x08	; 8
    1b58:	50 e0       	ldi	r21, 0x00	; 0
    1b5a:	a4 16       	cp	r10, r20
    1b5c:	b5 06       	cpc	r11, r21
    1b5e:	08 f4       	brcc	.+2      	; 0x1b62 <__fill03>
    1b60:	a5 01       	movw	r20, r10

00001b62 <__fill03>:
    1b62:	a4 1a       	sub	r10, r20
    1b64:	b5 0a       	sbc	r11, r21
    1b66:	c4 0e       	add	r12, r20
    1b68:	d5 1e       	adc	r13, r21
    1b6a:	6a ee       	ldi	r22, 0xEA	; 234
    1b6c:	73 e0       	ldi	r23, 0x03	; 3
    1b6e:	0e 94 e7 03 	call	0x7ce	; 0x7ce <WriteMem>
    1b72:	a1 14       	cp	r10, r1
    1b74:	b1 04       	cpc	r11, r1
    1b76:	71 f7       	brne	.-36     	; 0x1b54 <__fill02>
    1b78:	af 90       	pop	r10
    1b7a:	bf 90       	pop	r11
    1b7c:	cf 90       	pop	r12
    1b7e:	df 90       	pop	r13

00001b80 <__fillEnd>:
    1b80:	08 95       	ret

00001b82 <__fillInt>:
    1b82:	dc 01       	movw	r26, r24

00001b84 <__fillInt0>:
    1b84:	cb 01       	movw	r24, r22

00001b86 <__fillInt1>:
    1b86:	4d 93       	st	X+, r20
    1b88:	01 97       	sbiw	r24, 0x01	; 1
    1b8a:	e9 f7       	brne	.-6      	; 0x1b86 <__fillInt1>
    1b8c:	08 95       	ret

00001b8e <_VM>:
    1b8e:	0e 94 3b 10 	call	0x2076	; 0x2076 <ForthBoot>
    1b92:	ec 01       	movw	r28, r24
    1b94:	80 e0       	ldi	r24, 0x00	; 0
    1b96:	90 e0       	ldi	r25, 0x00	; 0
    1b98:	29 98       	cbi	0x05, 1	; 5
    1b9a:	0e 94 c7 0b 	call	0x178e	; 0x178e <SramAbsBeginRd>
    1b9e:	88 ef       	ldi	r24, 0xF8	; 248
    1ba0:	93 e0       	ldi	r25, 0x03	; 3
    1ba2:	7c 01       	movw	r14, r24
    1ba4:	8d ef       	ldi	r24, 0xFD	; 253
    1ba6:	9f e0       	ldi	r25, 0x0F	; 15
    1ba8:	3c 01       	movw	r6, r24

00001baa <_VMNextIntJump>:
    1baa:	d7 ff       	sbrs	r29, 7
    1bac:	34 c0       	rjmp	.+104    	; 0x1c16 <_VMNextRom>
    1bae:	8d b5       	in	r24, 0x2d	; 45
    1bb0:	87 ff       	sbrs	r24, 7
    1bb2:	fd cf       	rjmp	.-6      	; 0x1bae <_VMNextIntJump+0x4>
    1bb4:	29 9a       	sbi	0x05, 1	; 5
    1bb6:	ce 01       	movw	r24, r28
    1bb8:	29 98       	cbi	0x05, 1	; 5
    1bba:	0e 94 c7 0b 	call	0x178e	; 0x178e <SramAbsBeginRd>
    1bbe:	13 c0       	rjmp	.+38     	; 0x1be6 <_VMNextRam>

00001bc0 <_VMNextJump>:
    1bc0:	d7 ff       	sbrs	r29, 7
    1bc2:	0b c0       	rjmp	.+22     	; 0x1bda <_VMNextJumpRom>
    1bc4:	d8 2d       	mov	r29, r8

00001bc6 <_VMNextJumpRam>:
    1bc6:	cd b5       	in	r28, 0x2d	; 45
    1bc8:	c7 ff       	sbrs	r28, 7
    1bca:	fd cf       	rjmp	.-6      	; 0x1bc6 <_VMNextJumpRam>
    1bcc:	ce b5       	in	r28, 0x2e	; 46
    1bce:	29 9a       	sbi	0x05, 1	; 5
    1bd0:	ce 01       	movw	r24, r28
    1bd2:	29 98       	cbi	0x05, 1	; 5
    1bd4:	0e 94 c7 0b 	call	0x178e	; 0x178e <SramAbsBeginRd>
    1bd8:	06 c0       	rjmp	.+12     	; 0x1be6 <_VMNextRam>

00001bda <_VMNextJumpRom>:
    1bda:	fe 01       	movw	r30, r28
    1bdc:	c4 91       	lpm	r28, Z+
    1bde:	d8 2d       	mov	r29, r8
    1be0:	1a c0       	rjmp	.+52     	; 0x1c16 <_VMNextRom>

00001be2 <_VMNext>:
    1be2:	d7 ff       	sbrs	r29, 7
    1be4:	18 c0       	rjmp	.+48     	; 0x1c16 <_VMNextRom>

00001be6 <_VMNextRam>:
    1be6:	21 96       	adiw	r28, 0x01	; 1
    1be8:	8d b5       	in	r24, 0x2d	; 45
    1bea:	87 ff       	sbrs	r24, 7
    1bec:	fd cf       	rjmp	.-6      	; 0x1be8 <_VMNextRam+0x2>
    1bee:	8e b5       	in	r24, 0x2e	; 46
    1bf0:	8e bd       	out	0x2e, r24	; 46
    1bf2:	8e 33       	cpi	r24, 0x3E	; 62
    1bf4:	20 f4       	brcc	.+8      	; 0x1bfe <_VMNextWord>
    1bf6:	f3 01       	movw	r30, r6
    1bf8:	e8 0f       	add	r30, r24
    1bfa:	f1 1d       	adc	r31, r1
    1bfc:	09 94       	ijmp

00001bfe <_VMNextWord>:
    1bfe:	21 96       	adiw	r28, 0x01	; 1
    1c00:	df 93       	push	r29
    1c02:	cf 93       	push	r28
    1c04:	d8 2f       	mov	r29, r24
    1c06:	87 fd       	sbrc	r24, 7
    1c08:	de cf       	rjmp	.-68     	; 0x1bc6 <_VMNextJumpRam>
    1c0a:	cd b5       	in	r28, 0x2d	; 45
    1c0c:	c7 ff       	sbrs	r28, 7
    1c0e:	fd cf       	rjmp	.-6      	; 0x1c0a <_VMNextWord+0xc>
    1c10:	ce b5       	in	r28, 0x2e	; 46
    1c12:	29 9a       	sbi	0x05, 1	; 5
    1c14:	ce bd       	out	0x2e, r28	; 46

00001c16 <_VMNextRom>:
    1c16:	fe 01       	movw	r30, r28
    1c18:	85 91       	lpm	r24, Z+
    1c1a:	21 96       	adiw	r28, 0x01	; 1

00001c1c <_VMNext2>:
    1c1c:	8e 33       	cpi	r24, 0x3E	; 62
    1c1e:	20 f4       	brcc	.+8      	; 0x1c28 <_VMNextRomWord>

00001c20 <_VMNextExecute>:
    1c20:	f3 01       	movw	r30, r6
    1c22:	e8 0f       	add	r30, r24
    1c24:	f1 1d       	adc	r31, r1
    1c26:	09 94       	ijmp

00001c28 <_VMNextRomWord>:
    1c28:	21 96       	adiw	r28, 0x01	; 1
    1c2a:	df 93       	push	r29
    1c2c:	cf 93       	push	r28
    1c2e:	d8 2f       	mov	r29, r24
    1c30:	c5 91       	lpm	r28, Z+
    1c32:	f1 cf       	rjmp	.-30     	; 0x1c16 <_VMNextRom>

00001c34 <_VMkFigExecute>:
    1c34:	c8 01       	movw	r24, r16
    1c36:	d7 01       	movw	r26, r14
    1c38:	1e 91       	ld	r17, -X
    1c3a:	0e 91       	ld	r16, -X
    1c3c:	7d 01       	movw	r14, r26
    1c3e:	8e 33       	cpi	r24, 0x3E	; 62
    1c40:	91 05       	cpc	r25, r1
    1c42:	70 f3       	brcs	.-36     	; 0x1c20 <_VMNextExecute>

00001c44 <_VMkFigExecute1>:
    1c44:	df 93       	push	r29
    1c46:	cf 93       	push	r28
    1c48:	ec 01       	movw	r28, r24
    1c4a:	af cf       	rjmp	.-162    	; 0x1baa <_VMNextIntJump>

00001c4c <_VMkFigLit>:
    1c4c:	d7 01       	movw	r26, r14
    1c4e:	0d 93       	st	X+, r16
    1c50:	1d 93       	st	X+, r17
    1c52:	7d 01       	movw	r14, r26
    1c54:	f8 de       	rcall	.-528    	; 0x1a46 <_VMSeqReadIP>
    1c56:	18 2f       	mov	r17, r24
    1c58:	f6 de       	rcall	.-532    	; 0x1a46 <_VMSeqReadIP>
    1c5a:	08 2f       	mov	r16, r24
    1c5c:	c2 cf       	rjmp	.-124    	; 0x1be2 <_VMNext>

00001c5e <_VMkFigDrop>:
    1c5e:	d7 01       	movw	r26, r14
    1c60:	1e 91       	ld	r17, -X
    1c62:	0e 91       	ld	r16, -X
    1c64:	7d 01       	movw	r14, r26
    1c66:	bd cf       	rjmp	.-134    	; 0x1be2 <_VMNext>

00001c68 <_VMkFigOBranch>:
    1c68:	01 2b       	or	r16, r17
    1c6a:	d7 01       	movw	r26, r14
    1c6c:	1e 91       	ld	r17, -X
    1c6e:	0e 91       	ld	r16, -X
    1c70:	7d 01       	movw	r14, r26
    1c72:	11 f0       	breq	.+4      	; 0x1c78 <_VMkFigBranch>
    1c74:	22 96       	adiw	r28, 0x02	; 2
    1c76:	99 cf       	rjmp	.-206    	; 0x1baa <_VMNextIntJump>

00001c78 <_VMkFigBranch>:
    1c78:	e6 de       	rcall	.-564    	; 0x1a46 <_VMSeqReadIP>
    1c7a:	88 2e       	mov	r8, r24
    1c7c:	a1 cf       	rjmp	.-190    	; 0x1bc0 <_VMNextJump>

00001c7e <_VMkFigLoop>:
    1c7e:	e3 de       	rcall	.-570    	; 0x1a46 <_VMSeqReadIP>
    1c80:	88 2e       	mov	r8, r24
    1c82:	d6 01       	movw	r26, r12
    1c84:	11 96       	adiw	r26, 0x01	; 1
    1c86:	6d 01       	movw	r12, r26
    1c88:	ca 14       	cp	r12, r10
    1c8a:	db 04       	cpc	r13, r11
    1c8c:	0a f4       	brpl	.+2      	; 0x1c90 <_VMkFigLoop2>

00001c8e <_VMkFigLoop1>:
    1c8e:	98 cf       	rjmp	.-208    	; 0x1bc0 <_VMNextJump>

00001c90 <_VMkFigLoop2>:
    1c90:	da de       	rcall	.-588    	; 0x1a46 <_VMSeqReadIP>
    1c92:	cf 90       	pop	r12
    1c94:	df 90       	pop	r13
    1c96:	af 90       	pop	r10
    1c98:	bf 90       	pop	r11
    1c9a:	a3 cf       	rjmp	.-186    	; 0x1be2 <_VMNext>

00001c9c <_VMkFigPlusLoop>:
    1c9c:	d4 de       	rcall	.-600    	; 0x1a46 <_VMSeqReadIP>
    1c9e:	88 2e       	mov	r8, r24
    1ca0:	d6 01       	movw	r26, r12
    1ca2:	a0 0f       	add	r26, r16
    1ca4:	b1 1f       	adc	r27, r17
    1ca6:	6d 01       	movw	r12, r26
    1ca8:	aa 19       	sub	r26, r10
    1caa:	bb 09       	sbc	r27, r11
    1cac:	b1 27       	eor	r27, r17
    1cae:	f7 01       	movw	r30, r14
    1cb0:	12 91       	ld	r17, -Z
    1cb2:	02 91       	ld	r16, -Z
    1cb4:	7f 01       	movw	r14, r30
    1cb6:	b7 fd       	sbrc	r27, 7
    1cb8:	ea cf       	rjmp	.-44     	; 0x1c8e <_VMkFigLoop1>
    1cba:	ea cf       	rjmp	.-44     	; 0x1c90 <_VMkFigLoop2>

00001cbc <_VMkFigDo>:
    1cbc:	bf 92       	push	r11
    1cbe:	af 92       	push	r10
    1cc0:	df 92       	push	r13
    1cc2:	cf 92       	push	r12
    1cc4:	d7 01       	movw	r26, r14
    1cc6:	68 01       	movw	r12, r16
    1cc8:	be 90       	ld	r11, -X
    1cca:	ae 90       	ld	r10, -X
    1ccc:	1e 91       	ld	r17, -X
    1cce:	0e 91       	ld	r16, -X
    1cd0:	7d 01       	movw	r14, r26
    1cd2:	87 cf       	rjmp	.-242    	; 0x1be2 <_VMNext>

00001cd4 <_VMkFigUMult>:
    1cd4:	d7 01       	movw	r26, r14
    1cd6:	7e 91       	ld	r23, -X
    1cd8:	6e 91       	ld	r22, -X
    1cda:	44 27       	eor	r20, r20
    1cdc:	06 9f       	mul	r16, r22
    1cde:	40 01       	movw	r8, r0
    1ce0:	16 9f       	mul	r17, r22
    1ce2:	61 2d       	mov	r22, r1
    1ce4:	90 0c       	add	r9, r0
    1ce6:	64 1f       	adc	r22, r20
    1ce8:	07 9f       	mul	r16, r23
    1cea:	90 0c       	add	r9, r0
    1cec:	61 1d       	adc	r22, r1
    1cee:	17 9f       	mul	r17, r23
    1cf0:	71 2d       	mov	r23, r1
    1cf2:	60 0d       	add	r22, r0
    1cf4:	74 1f       	adc	r23, r20
    1cf6:	8b 01       	movw	r16, r22
    1cf8:	8d 92       	st	X+, r8
    1cfa:	9d 92       	st	X+, r9
    1cfc:	11 24       	eor	r1, r1
    1cfe:	7d 01       	movw	r14, r26
    1d00:	70 cf       	rjmp	.-288    	; 0x1be2 <_VMNext>

00001d02 <_VMkFigPortMod>:
    1d02:	d7 01       	movw	r26, r14
    1d04:	11 97       	sbiw	r26, 0x01	; 1
    1d06:	8e 91       	ld	r24, -X
    1d08:	11 97       	sbiw	r26, 0x01	; 1
    1d0a:	6e 91       	ld	r22, -X
    1d0c:	f8 01       	movw	r30, r16
    1d0e:	f8 94       	cli
    1d10:	00 81       	ld	r16, Z
    1d12:	80 23       	and	r24, r16
    1d14:	86 2b       	or	r24, r22
    1d16:	80 83       	st	Z, r24
    1d18:	78 94       	sei
    1d1a:	11 27       	eor	r17, r17
    1d1c:	7d 01       	movw	r14, r26
    1d1e:	61 cf       	rjmp	.-318    	; 0x1be2 <_VMNext>

00001d20 <_VMkFigUDivMod>:
    1d20:	d7 01       	movw	r26, r14
    1d22:	9e 91       	ld	r25, -X
    1d24:	8e 91       	ld	r24, -X
    1d26:	7e 91       	ld	r23, -X
    1d28:	6e 91       	ld	r22, -X
    1d2a:	21 e2       	ldi	r18, 0x21	; 33
    1d2c:	44 1b       	sub	r20, r20
    1d2e:	55 1b       	sub	r21, r21
    1d30:	07 c0       	rjmp	.+14     	; 0x1d40 <_VMkFigUDivMod2>

00001d32 <_VMkFigUDivMod1>:
    1d32:	44 1f       	adc	r20, r20
    1d34:	55 1f       	adc	r21, r21
    1d36:	40 17       	cp	r20, r16
    1d38:	51 07       	cpc	r21, r17
    1d3a:	10 f0       	brcs	.+4      	; 0x1d40 <_VMkFigUDivMod2>
    1d3c:	40 1b       	sub	r20, r16
    1d3e:	51 0b       	sbc	r21, r17

00001d40 <_VMkFigUDivMod2>:
    1d40:	66 1f       	adc	r22, r22
    1d42:	77 1f       	adc	r23, r23
    1d44:	88 1f       	adc	r24, r24
    1d46:	99 1f       	adc	r25, r25
    1d48:	2a 95       	dec	r18
    1d4a:	99 f7       	brne	.-26     	; 0x1d32 <_VMkFigUDivMod1>
    1d4c:	60 95       	com	r22
    1d4e:	70 95       	com	r23
    1d50:	4d 93       	st	X+, r20
    1d52:	5d 93       	st	X+, r21
    1d54:	8b 01       	movw	r16, r22
    1d56:	7d 01       	movw	r14, r26
    1d58:	44 cf       	rjmp	.-376    	; 0x1be2 <_VMNext>

00001d5a <_VMkFigOpAnd>:
    1d5a:	d7 01       	movw	r26, r14
    1d5c:	9e 91       	ld	r25, -X
    1d5e:	8e 91       	ld	r24, -X
    1d60:	08 23       	and	r16, r24
    1d62:	19 23       	and	r17, r25
    1d64:	7d 01       	movw	r14, r26
    1d66:	3d cf       	rjmp	.-390    	; 0x1be2 <_VMNext>

00001d68 <_VMkFigOpOr>:
    1d68:	d7 01       	movw	r26, r14
    1d6a:	9e 91       	ld	r25, -X
    1d6c:	8e 91       	ld	r24, -X
    1d6e:	08 2b       	or	r16, r24
    1d70:	19 2b       	or	r17, r25
    1d72:	7d 01       	movw	r14, r26
    1d74:	36 cf       	rjmp	.-404    	; 0x1be2 <_VMNext>

00001d76 <_VMkFigOpXor>:
    1d76:	d7 01       	movw	r26, r14
    1d78:	9e 91       	ld	r25, -X
    1d7a:	8e 91       	ld	r24, -X
    1d7c:	08 27       	eor	r16, r24
    1d7e:	19 27       	eor	r17, r25
    1d80:	7d 01       	movw	r14, r26
    1d82:	2f cf       	rjmp	.-418    	; 0x1be2 <_VMNext>

00001d84 <_VMkFigLeave>:
    1d84:	65 01       	movw	r12, r10
    1d86:	2d cf       	rjmp	.-422    	; 0x1be2 <_VMNext>

00001d88 <_VMkFigDoes>:
    1d88:	d7 01       	movw	r26, r14
    1d8a:	0d 93       	st	X+, r16
    1d8c:	1d 93       	st	X+, r17
    1d8e:	7d 01       	movw	r14, r26
    1d90:	0f 91       	pop	r16
    1d92:	1f 91       	pop	r17
    1d94:	26 cf       	rjmp	.-436    	; 0x1be2 <_VMNext>

00001d96 <_VMkFigRFetch>:
    1d96:	d7 01       	movw	r26, r14
    1d98:	0d 93       	st	X+, r16
    1d9a:	1d 93       	st	X+, r17
    1d9c:	7d 01       	movw	r14, r26
    1d9e:	ed b7       	in	r30, 0x3d	; 61
    1da0:	fe b7       	in	r31, 0x3e	; 62
    1da2:	01 81       	ldd	r16, Z+1	; 0x01
    1da4:	12 81       	ldd	r17, Z+2	; 0x02
    1da6:	1d cf       	rjmp	.-454    	; 0x1be2 <_VMNext>

00001da8 <_VMkFigToR>:
    1da8:	1f 93       	push	r17
    1daa:	0f 93       	push	r16
    1dac:	d7 01       	movw	r26, r14
    1dae:	1e 91       	ld	r17, -X
    1db0:	0e 91       	ld	r16, -X
    1db2:	7d 01       	movw	r14, r26
    1db4:	16 cf       	rjmp	.-468    	; 0x1be2 <_VMNext>

00001db6 <_VMkFigZeroEq>:
    1db6:	01 2b       	or	r16, r17
    1db8:	09 f0       	breq	.+2      	; 0x1dbc <_VMkFigZeroEq1>
    1dba:	0f ef       	ldi	r16, 0xFF	; 255

00001dbc <_VMkFigZeroEq1>:
    1dbc:	00 95       	com	r16
    1dbe:	10 2f       	mov	r17, r16
    1dc0:	10 cf       	rjmp	.-480    	; 0x1be2 <_VMNext>

00001dc2 <_VMkFigZeroLt>:
    1dc2:	00 27       	eor	r16, r16
    1dc4:	17 fd       	sbrc	r17, 7
    1dc6:	00 95       	com	r16
    1dc8:	10 2f       	mov	r17, r16
    1dca:	0b cf       	rjmp	.-490    	; 0x1be2 <_VMNext>

00001dcc <_VMkFigPlus>:
    1dcc:	d7 01       	movw	r26, r14
    1dce:	9e 91       	ld	r25, -X
    1dd0:	8e 91       	ld	r24, -X
    1dd2:	08 0f       	add	r16, r24
    1dd4:	19 1f       	adc	r17, r25
    1dd6:	7d 01       	movw	r14, r26
    1dd8:	04 cf       	rjmp	.-504    	; 0x1be2 <_VMNext>

00001dda <_VMkFigDPlus>:
    1dda:	d7 01       	movw	r26, r14
    1ddc:	9e 91       	ld	r25, -X
    1dde:	8e 91       	ld	r24, -X
    1de0:	7e 91       	ld	r23, -X
    1de2:	6e 91       	ld	r22, -X
    1de4:	5e 91       	ld	r21, -X
    1de6:	4e 91       	ld	r20, -X
    1de8:	84 0f       	add	r24, r20
    1dea:	95 1f       	adc	r25, r21
    1dec:	06 1f       	adc	r16, r22
    1dee:	17 1f       	adc	r17, r23
    1df0:	8d 93       	st	X+, r24
    1df2:	9d 93       	st	X+, r25
    1df4:	7d 01       	movw	r14, r26
    1df6:	f5 ce       	rjmp	.-534    	; 0x1be2 <_VMNext>

00001df8 <_VMkFigMinus>:
    1df8:	10 95       	com	r17
    1dfa:	01 95       	neg	r16
    1dfc:	1f 4f       	sbci	r17, 0xFF	; 255
    1dfe:	f1 ce       	rjmp	.-542    	; 0x1be2 <_VMNext>

00001e00 <_VMkFigDMinus>:
    1e00:	d7 01       	movw	r26, r14
    1e02:	9e 91       	ld	r25, -X
    1e04:	8e 91       	ld	r24, -X
    1e06:	90 95       	com	r25
    1e08:	00 95       	com	r16
    1e0a:	10 95       	com	r17
    1e0c:	81 95       	neg	r24
    1e0e:	9f 4f       	sbci	r25, 0xFF	; 255
    1e10:	0f 4f       	sbci	r16, 0xFF	; 255
    1e12:	1f 4f       	sbci	r17, 0xFF	; 255
    1e14:	8d 93       	st	X+, r24
    1e16:	9d 93       	st	X+, r25
    1e18:	7d 01       	movw	r14, r26
    1e1a:	e3 ce       	rjmp	.-570    	; 0x1be2 <_VMNext>

00001e1c <_VMkFigOver>:
    1e1c:	d7 01       	movw	r26, r14
    1e1e:	0d 93       	st	X+, r16
    1e20:	1d 93       	st	X+, r17
    1e22:	7d 01       	movw	r14, r26
    1e24:	14 97       	sbiw	r26, 0x04	; 4
    1e26:	0d 91       	ld	r16, X+
    1e28:	1d 91       	ld	r17, X+
    1e2a:	db ce       	rjmp	.-586    	; 0x1be2 <_VMNext>

00001e2c <_VMkFigSwap>:
    1e2c:	d7 01       	movw	r26, r14
    1e2e:	9e 91       	ld	r25, -X
    1e30:	8e 91       	ld	r24, -X
    1e32:	0d 93       	st	X+, r16
    1e34:	1d 93       	st	X+, r17
    1e36:	8c 01       	movw	r16, r24
    1e38:	d4 ce       	rjmp	.-600    	; 0x1be2 <_VMNext>

00001e3a <_VMkFigDup>:
    1e3a:	d7 01       	movw	r26, r14
    1e3c:	0d 93       	st	X+, r16
    1e3e:	1d 93       	st	X+, r17
    1e40:	7d 01       	movw	r14, r26
    1e42:	cf ce       	rjmp	.-610    	; 0x1be2 <_VMNext>

00001e44 <_VMkFigFetch>:
    1e44:	42 e0       	ldi	r20, 0x02	; 2
    1e46:	68 e0       	ldi	r22, 0x08	; 8
    1e48:	03 c0       	rjmp	.+6      	; 0x1e50 <_VMkFigFetch1>

00001e4a <_VMkFigCFetch>:
    1e4a:	41 e0       	ldi	r20, 0x01	; 1
    1e4c:	69 e0       	ldi	r22, 0x09	; 9
    1e4e:	88 24       	eor	r8, r8

00001e50 <_VMkFigFetch1>:
    1e50:	c8 01       	movw	r24, r16
    1e52:	70 e0       	ldi	r23, 0x00	; 0
    1e54:	50 e0       	ldi	r21, 0x00	; 0
    1e56:	04 de       	rcall	.-1016   	; 0x1a60 <_VmBulkRead>
    1e58:	09 2d       	mov	r16, r9
    1e5a:	18 2d       	mov	r17, r8
    1e5c:	a6 ce       	rjmp	.-692    	; 0x1baa <_VMNextIntJump>

00001e5e <_VMkFigCPling>:
    1e5e:	41 e0       	ldi	r20, 0x01	; 1
    1e60:	d7 01       	movw	r26, r14
    1e62:	11 97       	sbiw	r26, 0x01	; 1
    1e64:	8e 90       	ld	r8, -X
    1e66:	04 c0       	rjmp	.+8      	; 0x1e70 <_VMkFigCPling1>

00001e68 <_VMkFigPling>:
    1e68:	42 e0       	ldi	r20, 0x02	; 2
    1e6a:	d7 01       	movw	r26, r14
    1e6c:	8e 90       	ld	r8, -X
    1e6e:	9e 90       	ld	r9, -X

00001e70 <_VMkFigCPling1>:
    1e70:	c8 01       	movw	r24, r16
    1e72:	1e 91       	ld	r17, -X
    1e74:	0e 91       	ld	r16, -X
    1e76:	68 e0       	ldi	r22, 0x08	; 8
    1e78:	70 e0       	ldi	r23, 0x00	; 0
    1e7a:	50 e0       	ldi	r21, 0x00	; 0
    1e7c:	7d 01       	movw	r14, r26
    1e7e:	0e 94 e7 03 	call	0x7ce	; 0x7ce <WriteMem>
    1e82:	93 ce       	rjmp	.-730    	; 0x1baa <_VMNextIntJump>

00001e84 <_VMkFigGetI>:
    1e84:	d7 01       	movw	r26, r14
    1e86:	0d 93       	st	X+, r16
    1e88:	1d 93       	st	X+, r17
    1e8a:	86 01       	movw	r16, r12
    1e8c:	7d 01       	movw	r14, r26
    1e8e:	a9 ce       	rjmp	.-686    	; 0x1be2 <_VMNext>

00001e90 <_VMkFigInc>:
    1e90:	0f 5f       	subi	r16, 0xFF	; 255
    1e92:	1f 4f       	sbci	r17, 0xFF	; 255
    1e94:	a6 ce       	rjmp	.-692    	; 0x1be2 <_VMNext>

00001e96 <_VMkFigNative>:
    1e96:	fe 01       	movw	r30, r28
    1e98:	31 96       	adiw	r30, 0x01	; 1
    1e9a:	f6 95       	lsr	r31
    1e9c:	e7 95       	ror	r30
    1e9e:	09 94       	ijmp

00001ea0 <_VMkFigIntCFetch>:
    1ea0:	d8 01       	movw	r26, r16
    1ea2:	0c 91       	ld	r16, X
    1ea4:	11 27       	eor	r17, r17
    1ea6:	9d ce       	rjmp	.-710    	; 0x1be2 <_VMNext>

00001ea8 <_VMkFigIntCStore>:
    1ea8:	d7 01       	movw	r26, r14
    1eaa:	11 97       	sbiw	r26, 0x01	; 1
    1eac:	8e 91       	ld	r24, -X
    1eae:	f8 01       	movw	r30, r16
    1eb0:	1e 91       	ld	r17, -X
    1eb2:	0e 91       	ld	r16, -X
    1eb4:	7d 01       	movw	r14, r26
    1eb6:	80 83       	st	Z, r24
    1eb8:	94 ce       	rjmp	.-728    	; 0x1be2 <_VMNext>

00001eba <_VMkFigIntFetch>:
    1eba:	d8 01       	movw	r26, r16
    1ebc:	0d 91       	ld	r16, X+
    1ebe:	1c 91       	ld	r17, X
    1ec0:	90 ce       	rjmp	.-736    	; 0x1be2 <_VMNext>

00001ec2 <_VMkFigIntStore>:
    1ec2:	d7 01       	movw	r26, r14
    1ec4:	9e 91       	ld	r25, -X
    1ec6:	8e 91       	ld	r24, -X
    1ec8:	f8 01       	movw	r30, r16
    1eca:	1e 91       	ld	r17, -X
    1ecc:	0e 91       	ld	r16, -X
    1ece:	7d 01       	movw	r14, r26
    1ed0:	81 93       	st	Z+, r24
    1ed2:	90 83       	st	Z, r25
    1ed4:	86 ce       	rjmp	.-756    	; 0x1be2 <_VMNext>

00001ed6 <_VMkFigEmit>:
    1ed6:	c8 01       	movw	r24, r16
    1ed8:	0e 94 6a 0a 	call	0x14d4	; 0x14d4 <EmitW>
    1edc:	c0 ce       	rjmp	.-640    	; 0x1c5e <_VMkFigDrop>

00001ede <_VMkFigDot>:
    1ede:	c8 01       	movw	r24, r16
    1ee0:	0e 94 8a 0b 	call	0x1714	; 0x1714 <DotHex>
    1ee4:	bc ce       	rjmp	.-648    	; 0x1c5e <_VMkFigDrop>

00001ee6 <_VMkFigAt>:
    1ee6:	e3 e4       	ldi	r30, 0x43	; 67
    1ee8:	fa e0       	ldi	r31, 0x0A	; 10

00001eea <_VMCallCvoidFnP2>:
    1eea:	d7 01       	movw	r26, r14
    1eec:	9e 91       	ld	r25, -X
    1eee:	8e 91       	ld	r24, -X
    1ef0:	7d 01       	movw	r14, r26
    1ef2:	b8 01       	movw	r22, r16
    1ef4:	09 95       	icall
    1ef6:	d7 01       	movw	r26, r14
    1ef8:	1e 91       	ld	r17, -X
    1efa:	0e 91       	ld	r16, -X
    1efc:	7d 01       	movw	r14, r26
    1efe:	55 ce       	rjmp	.-854    	; 0x1baa <_VMNextIntJump>

00001f00 <_VMkFigExit>:
    1f00:	cf 91       	pop	r28
    1f02:	df 91       	pop	r29
    1f04:	52 ce       	rjmp	.-860    	; 0x1baa <_VMNextIntJump>

00001f06 <_VMkFigDec>:
    1f06:	01 50       	subi	r16, 0x01	; 1
    1f08:	10 40       	sbci	r17, 0x00	; 0
    1f0a:	6b ce       	rjmp	.-810    	; 0x1be2 <_VMNext>

00001f0c <_VMkFigFill>:
    1f0c:	e7 e9       	ldi	r30, 0x97	; 151
    1f0e:	fd e0       	ldi	r31, 0x0D	; 13
    1f10:	51 c0       	rjmp	.+162    	; 0x1fb4 <CCall3>

00001f12 <_VMkFigCls>:
    1f12:	0e 94 c9 0a 	call	0x1592	; 0x1592 <Cls>
    1f16:	65 ce       	rjmp	.-822    	; 0x1be2 <_VMNext>

00001f18 <_VMkFigLsr>:
    1f18:	d7 01       	movw	r26, r14
    1f1a:	9e 91       	ld	r25, -X
    1f1c:	8e 91       	ld	r24, -X
    1f1e:	04 c0       	rjmp	.+8      	; 0x1f28 <_VMkFigLsr2>

00001f20 <_VMkFigLsr1>:
    1f20:	89 2f       	mov	r24, r25
    1f22:	99 27       	eor	r25, r25
    1f24:	08 5f       	subi	r16, 0xF8	; 248
    1f26:	1f 4f       	sbci	r17, 0xFF	; 255

00001f28 <_VMkFigLsr2>:
    1f28:	08 30       	cpi	r16, 0x08	; 8
    1f2a:	10 05       	cpc	r17, r0
    1f2c:	c8 f7       	brcc	.-14     	; 0x1f20 <_VMkFigLsr1>
    1f2e:	02 c0       	rjmp	.+4      	; 0x1f34 <_VMkFigLsr4>

00001f30 <_VMkFigLsr3>:
    1f30:	96 95       	lsr	r25
    1f32:	87 95       	ror	r24

00001f34 <_VMkFigLsr4>:
    1f34:	0a 95       	dec	r16
    1f36:	e2 f7       	brpl	.-8      	; 0x1f30 <_VMkFigLsr3>
    1f38:	8c 01       	movw	r16, r24
    1f3a:	7d 01       	movw	r14, r26
    1f3c:	52 ce       	rjmp	.-860    	; 0x1be2 <_VMNext>

00001f3e <_VMkFigLsl>:
    1f3e:	d7 01       	movw	r26, r14
    1f40:	9e 91       	ld	r25, -X
    1f42:	8e 91       	ld	r24, -X
    1f44:	04 c0       	rjmp	.+8      	; 0x1f4e <_VMkFigLsl2>

00001f46 <_VMkFigLsl1>:
    1f46:	98 2f       	mov	r25, r24
    1f48:	88 27       	eor	r24, r24
    1f4a:	08 5f       	subi	r16, 0xF8	; 248
    1f4c:	1f 4f       	sbci	r17, 0xFF	; 255

00001f4e <_VMkFigLsl2>:
    1f4e:	08 30       	cpi	r16, 0x08	; 8
    1f50:	10 05       	cpc	r17, r0
    1f52:	c8 f7       	brcc	.-14     	; 0x1f46 <_VMkFigLsl1>
    1f54:	02 c0       	rjmp	.+4      	; 0x1f5a <_VMkFigLsl4>

00001f56 <_VMkFigLsl3>:
    1f56:	88 0f       	add	r24, r24
    1f58:	99 1f       	adc	r25, r25

00001f5a <_VMkFigLsl4>:
    1f5a:	0a 95       	dec	r16
    1f5c:	e2 f7       	brpl	.-8      	; 0x1f56 <_VMkFigLsl3>
    1f5e:	8c 01       	movw	r16, r24
    1f60:	7d 01       	movw	r14, r26
    1f62:	3f ce       	rjmp	.-898    	; 0x1be2 <_VMNext>

00001f64 <_VMkFigEdit>:
    1f64:	c8 01       	movw	r24, r16
    1f66:	0e 94 75 05 	call	0xaea	; 0xaea <_FigEdit>
    1f6a:	80 91 2d 00 	lds	r24, 0x002D
    1f6e:	90 e0       	ldi	r25, 0x00	; 0

00001f70 <_VMkFigEdit1>:
    1f70:	29 98       	cbi	0x05, 1	; 5
    1f72:	85 e0       	ldi	r24, 0x05	; 5
    1f74:	8e bd       	out	0x2e, r24	; 46

00001f76 <_VMDropIntJump>:
    1f76:	d7 01       	movw	r26, r14
    1f78:	1e 91       	ld	r17, -X
    1f7a:	0e 91       	ld	r16, -X
    1f7c:	7d 01       	movw	r14, r26
    1f7e:	15 ce       	rjmp	.-982    	; 0x1baa <_VMNextIntJump>

00001f80 <_VMkFigDskRd>:
    1f80:	c8 01       	movw	r24, r16
    1f82:	0e 94 39 05 	call	0xa72	; 0xa72 <DskBlkRd>
    1f86:	8c 01       	movw	r16, r24
    1f88:	80 e0       	ldi	r24, 0x00	; 0
    1f8a:	9e e9       	ldi	r25, 0x9E	; 158
    1f8c:	6f e0       	ldi	r22, 0x0F	; 15
    1f8e:	71 e0       	ldi	r23, 0x01	; 1
    1f90:	40 e0       	ldi	r20, 0x00	; 0
    1f92:	52 e0       	ldi	r21, 0x02	; 2
    1f94:	0e 94 e7 03 	call	0x7ce	; 0x7ce <WriteMem>
    1f98:	08 ce       	rjmp	.-1008   	; 0x1baa <_VMNextIntJump>

00001f9a <_VMkFigDskWr>:
    1f9a:	c8 01       	movw	r24, r16
    1f9c:	d7 01       	movw	r26, r14
    1f9e:	7e 91       	ld	r23, -X
    1fa0:	6e 91       	ld	r22, -X
    1fa2:	4f e0       	ldi	r20, 0x0F	; 15
    1fa4:	51 e0       	ldi	r21, 0x01	; 1
    1fa6:	7d 01       	movw	r14, r26
    1fa8:	0e 94 bb 09 	call	0x1376	; 0x1376 <VDskWrite>
    1fac:	e1 cf       	rjmp	.-62     	; 0x1f70 <_VMkFigEdit1>

00001fae <_VMkFigCMove>:
    1fae:	e5 e5       	ldi	r30, 0x55	; 85
    1fb0:	fd e0       	ldi	r31, 0x0D	; 13
    1fb2:	00 c0       	rjmp	.+0      	; 0x1fb4 <CCall3>

00001fb4 <CCall3>:
    1fb4:	a8 01       	movw	r20, r16
    1fb6:	d7 01       	movw	r26, r14
    1fb8:	7e 91       	ld	r23, -X
    1fba:	6e 91       	ld	r22, -X
    1fbc:	9e 91       	ld	r25, -X
    1fbe:	8e 91       	ld	r24, -X
    1fc0:	7d 01       	movw	r14, r26
    1fc2:	09 95       	icall
    1fc4:	d8 cf       	rjmp	.-80     	; 0x1f76 <_VMDropIntJump>

00001fc6 <_VMkFigPlot>:
    1fc6:	e2 e8       	ldi	r30, 0x82	; 130
    1fc8:	fb e0       	ldi	r31, 0x0B	; 11
    1fca:	8f cf       	rjmp	.-226    	; 0x1eea <_VMCallCvoidFnP2>

00001fcc <_VMkFigSpi>:
    1fcc:	c8 01       	movw	r24, r16
    1fce:	0e 94 e3 0c 	call	0x19c6	; 0x19c6 <SpiDrv>
    1fd2:	d1 cf       	rjmp	.-94     	; 0x1f76 <_VMDropIntJump>

00001fd4 <_VMkFigTrace>:
    1fd4:	06 ce       	rjmp	.-1012   	; 0x1be2 <_VMNext>

00001fd6 <_VMkFigDumpDict>:
    1fd6:	c8 01       	movw	r24, r16
    1fd8:	42 ce       	rjmp	.-892    	; 0x1c5e <_VMkFigDrop>

00001fda <_VMkFigVarDoes>:
    1fda:	d7 01       	movw	r26, r14
    1fdc:	0d 93       	st	X+, r16
    1fde:	1d 93       	st	X+, r17
    1fe0:	7d 01       	movw	r14, r26
    1fe2:	8e 01       	movw	r16, r28
    1fe4:	8d cf       	rjmp	.-230    	; 0x1f00 <_VMkFigExit>

00001fe6 <_VMkFigConstDoes>:
    1fe6:	d7 01       	movw	r26, r14
    1fe8:	0d 93       	st	X+, r16
    1fea:	1d 93       	st	X+, r17
    1fec:	7d 01       	movw	r14, r26
    1fee:	2b dd       	rcall	.-1450   	; 0x1a46 <_VMSeqReadIP>
    1ff0:	18 2f       	mov	r17, r24
    1ff2:	29 dd       	rcall	.-1454   	; 0x1a46 <_VMSeqReadIP>
    1ff4:	08 2f       	mov	r16, r24
    1ff6:	84 cf       	rjmp	.-248    	; 0x1f00 <_VMkFigExit>

00001ff8 <_VMkFigUndefined>:
    1ff8:	ca cd       	rjmp	.-1132   	; 0x1b8e <_VM>

00001ffa <_VMVecBase>:
    1ffa:	f3 cd       	rjmp	.-1050   	; 0x1be2 <_VMNext>
    1ffc:	27 ce       	rjmp	.-946    	; 0x1c4c <_VMkFigLit>
    1ffe:	1a ce       	rjmp	.-972    	; 0x1c34 <_VMkFigExecute>
    2000:	2e ce       	rjmp	.-932    	; 0x1c5e <_VMkFigDrop>
    2002:	32 ce       	rjmp	.-924    	; 0x1c68 <_VMkFigOBranch>
    2004:	39 ce       	rjmp	.-910    	; 0x1c78 <_VMkFigBranch>
    2006:	3b ce       	rjmp	.-906    	; 0x1c7e <_VMkFigLoop>
    2008:	49 ce       	rjmp	.-878    	; 0x1c9c <_VMkFigPlusLoop>
    200a:	58 ce       	rjmp	.-848    	; 0x1cbc <_VMkFigDo>
    200c:	63 ce       	rjmp	.-826    	; 0x1cd4 <_VMkFigUMult>
    200e:	79 ce       	rjmp	.-782    	; 0x1d02 <_VMkFigPortMod>
    2010:	87 ce       	rjmp	.-754    	; 0x1d20 <_VMkFigUDivMod>
    2012:	a3 ce       	rjmp	.-698    	; 0x1d5a <_VMkFigOpAnd>
    2014:	a9 ce       	rjmp	.-686    	; 0x1d68 <_VMkFigOpOr>
    2016:	af ce       	rjmp	.-674    	; 0x1d76 <_VMkFigOpXor>
    2018:	b5 ce       	rjmp	.-662    	; 0x1d84 <_VMkFigLeave>
    201a:	b6 ce       	rjmp	.-660    	; 0x1d88 <_VMkFigDoes>
    201c:	b5 ce       	rjmp	.-662    	; 0x1d88 <_VMkFigDoes>
    201e:	bb ce       	rjmp	.-650    	; 0x1d96 <_VMkFigRFetch>
    2020:	c3 ce       	rjmp	.-634    	; 0x1da8 <_VMkFigToR>
    2022:	c9 ce       	rjmp	.-622    	; 0x1db6 <_VMkFigZeroEq>
    2024:	ce ce       	rjmp	.-612    	; 0x1dc2 <_VMkFigZeroLt>
    2026:	d2 ce       	rjmp	.-604    	; 0x1dcc <_VMkFigPlus>
    2028:	d8 ce       	rjmp	.-592    	; 0x1dda <_VMkFigDPlus>
    202a:	e6 ce       	rjmp	.-564    	; 0x1df8 <_VMkFigMinus>
    202c:	e9 ce       	rjmp	.-558    	; 0x1e00 <_VMkFigDMinus>
    202e:	f6 ce       	rjmp	.-532    	; 0x1e1c <_VMkFigOver>
    2030:	fd ce       	rjmp	.-518    	; 0x1e2c <_VMkFigSwap>
    2032:	03 cf       	rjmp	.-506    	; 0x1e3a <_VMkFigDup>
    2034:	07 cf       	rjmp	.-498    	; 0x1e44 <_VMkFigFetch>
    2036:	09 cf       	rjmp	.-494    	; 0x1e4a <_VMkFigCFetch>
    2038:	12 cf       	rjmp	.-476    	; 0x1e5e <_VMkFigCPling>
    203a:	16 cf       	rjmp	.-468    	; 0x1e68 <_VMkFigPling>
    203c:	23 cf       	rjmp	.-442    	; 0x1e84 <_VMkFigGetI>
    203e:	28 cf       	rjmp	.-432    	; 0x1e90 <_VMkFigInc>
    2040:	2a cf       	rjmp	.-428    	; 0x1e96 <_VMkFigNative>
    2042:	2e cf       	rjmp	.-420    	; 0x1ea0 <_VMkFigIntCFetch>
    2044:	31 cf       	rjmp	.-414    	; 0x1ea8 <_VMkFigIntCStore>
    2046:	39 cf       	rjmp	.-398    	; 0x1eba <_VMkFigIntFetch>
    2048:	3c cf       	rjmp	.-392    	; 0x1ec2 <_VMkFigIntStore>
    204a:	45 cf       	rjmp	.-374    	; 0x1ed6 <_VMkFigEmit>
    204c:	48 cf       	rjmp	.-368    	; 0x1ede <_VMkFigDot>
    204e:	47 cf       	rjmp	.-370    	; 0x1ede <_VMkFigDot>
    2050:	4a cf       	rjmp	.-364    	; 0x1ee6 <_VMkFigAt>
    2052:	49 cf       	rjmp	.-366    	; 0x1ee6 <_VMkFigAt>
    2054:	48 cf       	rjmp	.-368    	; 0x1ee6 <_VMkFigAt>
    2056:	54 cf       	rjmp	.-344    	; 0x1f00 <_VMkFigExit>
    2058:	56 cf       	rjmp	.-340    	; 0x1f06 <_VMkFigDec>
    205a:	58 cf       	rjmp	.-336    	; 0x1f0c <_VMkFigFill>
    205c:	5a cf       	rjmp	.-332    	; 0x1f12 <_VMkFigCls>
    205e:	5c cf       	rjmp	.-328    	; 0x1f18 <_VMkFigLsr>
    2060:	6e cf       	rjmp	.-292    	; 0x1f3e <_VMkFigLsl>
    2062:	80 cf       	rjmp	.-256    	; 0x1f64 <_VMkFigEdit>
    2064:	8d cf       	rjmp	.-230    	; 0x1f80 <_VMkFigDskRd>
    2066:	99 cf       	rjmp	.-206    	; 0x1f9a <_VMkFigDskWr>
    2068:	a2 cf       	rjmp	.-188    	; 0x1fae <_VMkFigCMove>
    206a:	ad cf       	rjmp	.-166    	; 0x1fc6 <_VMkFigPlot>
    206c:	af cf       	rjmp	.-162    	; 0x1fcc <_VMkFigSpi>
    206e:	b2 cf       	rjmp	.-156    	; 0x1fd4 <_VMkFigTrace>
    2070:	b2 cf       	rjmp	.-156    	; 0x1fd6 <_VMkFigDumpDict>
    2072:	b3 cf       	rjmp	.-154    	; 0x1fda <_VMkFigVarDoes>
    2074:	b8 cf       	rjmp	.-144    	; 0x1fe6 <_VMkFigConstDoes>

00002076 <ForthBoot>:
    2076:	e6 e0       	ldi	r30, 0x06	; 6
    2078:	f6 e2       	ldi	r31, 0x26	; 38
    207a:	24 91       	lpm	r18, Z+
    207c:	31 96       	adiw	r30, 0x01	; 1
    207e:	e4 91       	lpm	r30, Z+
    2080:	92 2f       	mov	r25, r18
    2082:	80 e0       	ldi	r24, 0x00	; 0
    2084:	2e 2f       	mov	r18, r30
    2086:	30 e0       	ldi	r19, 0x00	; 0
    2088:	28 2b       	or	r18, r24
    208a:	39 2b       	or	r19, r25
    208c:	c9 01       	movw	r24, r18
    208e:	08 95       	ret

00002090 <SyncInit>:
    2090:	83 e8       	ldi	r24, 0x83	; 131
    2092:	83 bd       	out	0x23, r24	; 35
    2094:	83 e3       	ldi	r24, 0x33	; 51
    2096:	80 93 b0 00 	sts	0x00B0, r24
    209a:	8a e0       	ldi	r24, 0x0A	; 10
    209c:	80 93 b1 00 	sts	0x00B1, r24
    20a0:	10 92 b2 00 	sts	0x00B2, r1
    20a4:	8f e9       	ldi	r24, 0x9F	; 159
    20a6:	80 93 b3 00 	sts	0x00B3, r24
    20aa:	8b e0       	ldi	r24, 0x0B	; 11
    20ac:	80 93 b4 00 	sts	0x00B4, r24
    20b0:	10 92 80 00 	sts	0x0080, r1
    20b4:	22 e0       	ldi	r18, 0x02	; 2
    20b6:	20 93 81 00 	sts	0x0081, r18
    20ba:	10 92 85 00 	sts	0x0085, r1
    20be:	10 92 84 00 	sts	0x0084, r1
    20c2:	8b e0       	ldi	r24, 0x0B	; 11
    20c4:	90 e0       	ldi	r25, 0x00	; 0
    20c6:	90 93 89 00 	sts	0x0089, r25
    20ca:	80 93 88 00 	sts	0x0088, r24
    20ce:	20 93 6f 00 	sts	0x006F, r18
    20d2:	50 98       	cbi	0x0a, 0	; 10
    20d4:	8a b1       	in	r24, 0x0a	; 10
    20d6:	8a 60       	ori	r24, 0x0A	; 10
    20d8:	8a b9       	out	0x0a, r24	; 10
    20da:	8b b1       	in	r24, 0x0b	; 11
    20dc:	85 7f       	andi	r24, 0xF5	; 245
    20de:	8b b9       	out	0x0b, r24	; 11
    20e0:	88 e0       	ldi	r24, 0x08	; 8
    20e2:	80 93 f7 03 	sts	0x03F7, r24
    20e6:	e4 ec       	ldi	r30, 0xC4	; 196
    20e8:	f0 e0       	ldi	r31, 0x00	; 0
    20ea:	11 82       	std	Z+1, r1	; 0x01
    20ec:	10 82       	st	Z, r1
    20ee:	80 ec       	ldi	r24, 0xC0	; 192
    20f0:	80 93 c2 00 	sts	0x00C2, r24
    20f4:	10 92 c1 00 	sts	0x00C1, r1
    20f8:	81 e0       	ldi	r24, 0x01	; 1
    20fa:	90 e0       	ldi	r25, 0x00	; 0
    20fc:	91 83       	std	Z+1, r25	; 0x01
    20fe:	80 83       	st	Z, r24
    2100:	78 94       	sei
    2102:	13 bc       	out	0x23, r1	; 35
    2104:	08 95       	ret

00002106 <__vector_11>:
    2106:	1f 92       	push	r1
    2108:	0f 92       	push	r0
    210a:	0f b6       	in	r0, 0x3f	; 63
    210c:	0f 92       	push	r0
    210e:	11 24       	eor	r1, r1
    2110:	8f 93       	push	r24
    2112:	9f 93       	push	r25
    2114:	80 91 f7 03 	lds	r24, 0x03F7
    2118:	87 30       	cpi	r24, 0x07	; 7
    211a:	09 f0       	breq	.+2      	; 0x211e <__vector_11+0x18>
    211c:	46 c0       	rjmp	.+140    	; 0x21aa <__vector_11+0xa4>
    211e:	0e 94 b5 11 	call	0x236a	; 0x236a <VideoScan>
    2122:	82 e0       	ldi	r24, 0x02	; 2
    2124:	80 93 6e 00 	sts	0x006E, r24
    2128:	80 91 04 01 	lds	r24, 0x0104
    212c:	88 23       	and	r24, r24
    212e:	89 f5       	brne	.+98     	; 0x2192 <__vector_11+0x8c>
    2130:	80 91 09 01 	lds	r24, 0x0109
    2134:	87 fd       	sbrc	r24, 7
    2136:	07 c0       	rjmp	.+14     	; 0x2146 <__vector_11+0x40>
    2138:	80 91 88 00 	lds	r24, 0x0088
    213c:	90 91 89 00 	lds	r25, 0x0089
    2140:	81 51       	subi	r24, 0x11	; 17
    2142:	98 4d       	sbci	r25, 0xD8	; 216
    2144:	06 c0       	rjmp	.+12     	; 0x2152 <__vector_11+0x4c>
    2146:	80 91 88 00 	lds	r24, 0x0088
    214a:	90 91 89 00 	lds	r25, 0x0089
    214e:	89 53       	subi	r24, 0x39	; 57
    2150:	92 4e       	sbci	r25, 0xE2	; 226
    2152:	90 93 89 00 	sts	0x0089, r25
    2156:	80 93 88 00 	sts	0x0088, r24
    215a:	f0 9b       	sbis	0x1e, 0	; 30
    215c:	0a c0       	rjmp	.+20     	; 0x2172 <__vector_11+0x6c>
    215e:	80 91 88 00 	lds	r24, 0x0088
    2162:	90 91 89 00 	lds	r25, 0x0089
    2166:	80 50       	subi	r24, 0x00	; 0
    2168:	96 4f       	sbci	r25, 0xF6	; 246
    216a:	90 93 89 00 	sts	0x0089, r25
    216e:	80 93 88 00 	sts	0x0088, r24
    2172:	88 e0       	ldi	r24, 0x08	; 8
    2174:	80 93 f7 03 	sts	0x03F7, r24
    2178:	80 91 f5 03 	lds	r24, 0x03F5
    217c:	90 91 f6 03 	lds	r25, 0x03F6
    2180:	01 96       	adiw	r24, 0x01	; 1
    2182:	90 93 f6 03 	sts	0x03F6, r25
    2186:	80 93 f5 03 	sts	0x03F5, r24
    218a:	0e 94 ad 0c 	call	0x195a	; 0x195a <IndCCall>
    218e:	d6 0d       	add	r29, r6
    2190:	d6 c0       	rjmp	.+428    	; 0x233e <__vector_11+0x238>
    2192:	80 91 88 00 	lds	r24, 0x0088
    2196:	90 91 89 00 	lds	r25, 0x0089
    219a:	81 57       	subi	r24, 0x71	; 113
    219c:	9f 4f       	sbci	r25, 0xFF	; 255
    219e:	90 93 89 00 	sts	0x0089, r25
    21a2:	80 93 88 00 	sts	0x0088, r24
    21a6:	86 e0       	ldi	r24, 0x06	; 6
    21a8:	28 c0       	rjmp	.+80     	; 0x21fa <__vector_11+0xf4>
    21aa:	83 30       	cpi	r24, 0x03	; 3
    21ac:	09 f4       	brne	.+2      	; 0x21b0 <__vector_11+0xaa>
    21ae:	44 c0       	rjmp	.+136    	; 0x2238 <__vector_11+0x132>
    21b0:	84 30       	cpi	r24, 0x04	; 4
    21b2:	28 f4       	brcc	.+10     	; 0x21be <__vector_11+0xb8>
    21b4:	81 30       	cpi	r24, 0x01	; 1
    21b6:	21 f1       	breq	.+72     	; 0x2200 <__vector_11+0xfa>
    21b8:	82 30       	cpi	r24, 0x02	; 2
    21ba:	88 f5       	brcc	.+98     	; 0x221e <__vector_11+0x118>
    21bc:	0d c0       	rjmp	.+26     	; 0x21d8 <__vector_11+0xd2>
    21be:	85 30       	cpi	r24, 0x05	; 5
    21c0:	09 f4       	brne	.+2      	; 0x21c4 <__vector_11+0xbe>
    21c2:	7d c0       	rjmp	.+250    	; 0x22be <__vector_11+0x1b8>
    21c4:	85 30       	cpi	r24, 0x05	; 5
    21c6:	08 f4       	brcc	.+2      	; 0x21ca <__vector_11+0xc4>
    21c8:	49 c0       	rjmp	.+146    	; 0x225c <__vector_11+0x156>
    21ca:	86 30       	cpi	r24, 0x06	; 6
    21cc:	09 f4       	brne	.+2      	; 0x21d0 <__vector_11+0xca>
    21ce:	94 c0       	rjmp	.+296    	; 0x22f8 <__vector_11+0x1f2>
    21d0:	88 30       	cpi	r24, 0x08	; 8
    21d2:	09 f0       	breq	.+2      	; 0x21d6 <__vector_11+0xd0>
    21d4:	b4 c0       	rjmp	.+360    	; 0x233e <__vector_11+0x238>
    21d6:	a7 c0       	rjmp	.+334    	; 0x2326 <__vector_11+0x220>
    21d8:	8f e4       	ldi	r24, 0x4F	; 79
    21da:	80 93 b3 00 	sts	0x00B3, r24
    21de:	85 e0       	ldi	r24, 0x05	; 5
    21e0:	80 93 b4 00 	sts	0x00B4, r24
    21e4:	80 91 88 00 	lds	r24, 0x0088
    21e8:	90 91 89 00 	lds	r25, 0x0089
    21ec:	84 56       	subi	r24, 0x64	; 100
    21ee:	9e 4f       	sbci	r25, 0xFE	; 254
    21f0:	90 93 89 00 	sts	0x0089, r25
    21f4:	80 93 88 00 	sts	0x0088, r24
    21f8:	81 e0       	ldi	r24, 0x01	; 1
    21fa:	80 93 f7 03 	sts	0x03F7, r24
    21fe:	9f c0       	rjmp	.+318    	; 0x233e <__vector_11+0x238>
    2200:	89 e4       	ldi	r24, 0x49	; 73
    2202:	80 93 b4 00 	sts	0x00B4, r24
    2206:	80 91 88 00 	lds	r24, 0x0088
    220a:	90 91 89 00 	lds	r25, 0x0089
    220e:	80 57       	subi	r24, 0x70	; 112
    2210:	9e 4f       	sbci	r25, 0xFE	; 254
    2212:	90 93 89 00 	sts	0x0089, r25
    2216:	80 93 88 00 	sts	0x0088, r24
    221a:	82 e0       	ldi	r24, 0x02	; 2
    221c:	ee cf       	rjmp	.-36     	; 0x21fa <__vector_11+0xf4>
    221e:	10 92 6e 00 	sts	0x006E, r1
    2222:	80 91 88 00 	lds	r24, 0x0088
    2226:	90 91 89 00 	lds	r25, 0x0089
    222a:	ce 96       	adiw	r24, 0x3e	; 62
    222c:	90 93 89 00 	sts	0x0089, r25
    2230:	80 93 88 00 	sts	0x0088, r24
    2234:	83 e0       	ldi	r24, 0x03	; 3
    2236:	e1 cf       	rjmp	.-62     	; 0x21fa <__vector_11+0xf4>
    2238:	82 e0       	ldi	r24, 0x02	; 2
    223a:	80 93 6e 00 	sts	0x006E, r24
    223e:	85 e0       	ldi	r24, 0x05	; 5
    2240:	80 93 b4 00 	sts	0x00B4, r24
    2244:	80 91 88 00 	lds	r24, 0x0088
    2248:	90 91 89 00 	lds	r25, 0x0089
    224c:	8a 56       	subi	r24, 0x6A	; 106
    224e:	9e 4f       	sbci	r25, 0xFE	; 254
    2250:	90 93 89 00 	sts	0x0089, r25
    2254:	80 93 88 00 	sts	0x0088, r24
    2258:	84 e0       	ldi	r24, 0x04	; 4
    225a:	cf cf       	rjmp	.-98     	; 0x21fa <__vector_11+0xf4>
    225c:	8f e9       	ldi	r24, 0x9F	; 159
    225e:	80 93 b3 00 	sts	0x00B3, r24
    2262:	8b e0       	ldi	r24, 0x0B	; 11
    2264:	80 93 b4 00 	sts	0x00B4, r24
    2268:	8f e0       	ldi	r24, 0x0F	; 15
    226a:	91 e0       	ldi	r25, 0x01	; 1
    226c:	90 93 03 01 	sts	0x0103, r25
    2270:	80 93 02 01 	sts	0x0102, r24
    2274:	f0 9b       	sbis	0x1e, 0	; 30
    2276:	0f c0       	rjmp	.+30     	; 0x2296 <__vector_11+0x190>
    2278:	80 e1       	ldi	r24, 0x10	; 16
    227a:	80 93 04 01 	sts	0x0104, r24
    227e:	80 91 88 00 	lds	r24, 0x0088
    2282:	90 91 89 00 	lds	r25, 0x0089
    2286:	84 54       	subi	r24, 0x44	; 68
    2288:	9d 4d       	sbci	r25, 0xDD	; 221
    228a:	90 93 89 00 	sts	0x0089, r25
    228e:	80 93 88 00 	sts	0x0088, r24
    2292:	85 e0       	ldi	r24, 0x05	; 5
    2294:	0d c0       	rjmp	.+26     	; 0x22b0 <__vector_11+0x1aa>
    2296:	10 92 04 01 	sts	0x0104, r1
    229a:	80 91 88 00 	lds	r24, 0x0088
    229e:	90 91 89 00 	lds	r25, 0x0089
    22a2:	84 54       	subi	r24, 0x44	; 68
    22a4:	92 4e       	sbci	r25, 0xE2	; 226
    22a6:	90 93 89 00 	sts	0x0089, r25
    22aa:	80 93 88 00 	sts	0x0088, r24
    22ae:	86 e0       	ldi	r24, 0x06	; 6
    22b0:	80 93 f7 03 	sts	0x03F7, r24
    22b4:	78 94       	sei
    22b6:	0e 94 ad 0c 	call	0x195a	; 0x195a <IndCCall>
    22ba:	d6 0d       	add	r29, r6
    22bc:	40 c0       	rjmp	.+128    	; 0x233e <__vector_11+0x238>
    22be:	80 91 88 00 	lds	r24, 0x0088
    22c2:	90 91 89 00 	lds	r25, 0x0089
    22c6:	80 50       	subi	r24, 0x00	; 0
    22c8:	9b 4f       	sbci	r25, 0xFB	; 251
    22ca:	90 93 89 00 	sts	0x0089, r25
    22ce:	80 93 88 00 	sts	0x0088, r24
    22d2:	86 e0       	ldi	r24, 0x06	; 6
    22d4:	80 93 f7 03 	sts	0x03F7, r24
    22d8:	80 91 6b 00 	lds	r24, 0x006B
    22dc:	82 60       	ori	r24, 0x02	; 2
    22de:	80 93 6b 00 	sts	0x006B, r24
    22e2:	80 91 68 00 	lds	r24, 0x0068
    22e6:	81 60       	ori	r24, 0x01	; 1
    22e8:	80 93 68 00 	sts	0x0068, r24
    22ec:	d8 9a       	sbi	0x1b, 0	; 27
    22ee:	29 9b       	sbis	0x05, 1	; 5
    22f0:	26 c0       	rjmp	.+76     	; 0x233e <__vector_11+0x238>
    22f2:	29 98       	cbi	0x05, 1	; 5
    22f4:	29 9a       	sbi	0x05, 1	; 5
    22f6:	23 c0       	rjmp	.+70     	; 0x233e <__vector_11+0x238>
    22f8:	80 91 6b 00 	lds	r24, 0x006B
    22fc:	8d 7f       	andi	r24, 0xFD	; 253
    22fe:	80 93 6b 00 	sts	0x006B, r24
    2302:	d8 9a       	sbi	0x1b, 0	; 27
    2304:	80 91 88 00 	lds	r24, 0x0088
    2308:	90 91 89 00 	lds	r25, 0x0089
    230c:	41 96       	adiw	r24, 0x11	; 17
    230e:	90 93 89 00 	sts	0x0089, r25
    2312:	80 93 88 00 	sts	0x0088, r24
    2316:	10 92 6e 00 	sts	0x006E, r1
    231a:	87 e0       	ldi	r24, 0x07	; 7
    231c:	80 93 f7 03 	sts	0x03F7, r24
    2320:	78 94       	sei
    2322:	88 95       	sleep
    2324:	0c c0       	rjmp	.+24     	; 0x233e <__vector_11+0x238>
    2326:	80 91 88 00 	lds	r24, 0x0088
    232a:	90 91 89 00 	lds	r25, 0x0089
    232e:	8c 56       	subi	r24, 0x6C	; 108
    2330:	9f 4f       	sbci	r25, 0xFF	; 255
    2332:	90 93 89 00 	sts	0x0089, r25
    2336:	80 93 88 00 	sts	0x0088, r24
    233a:	10 92 f7 03 	sts	0x03F7, r1
    233e:	9f 91       	pop	r25
    2340:	8f 91       	pop	r24
    2342:	0f 90       	pop	r0
    2344:	0f be       	out	0x3f, r0	; 63
    2346:	0f 90       	pop	r0
    2348:	1f 90       	pop	r1
    234a:	18 95       	reti

0000234c <VideoCopyUDGs>:
    234c:	27 ea       	ldi	r18, 0xA7	; 167
    234e:	31 e0       	ldi	r19, 0x01	; 1
    2350:	a7 e6       	ldi	r26, 0x67	; 103
    2352:	b3 e0       	ldi	r27, 0x03	; 3
    2354:	05 c0       	rjmp	.+10     	; 0x2360 <VideoCopyUDGs+0x14>
    2356:	f9 01       	movw	r30, r18
    2358:	84 91       	lpm	r24, Z+
    235a:	8d 93       	st	X+, r24
    235c:	2f 5f       	subi	r18, 0xFF	; 255
    235e:	3f 4f       	sbci	r19, 0xFF	; 255
    2360:	f3 e0       	ldi	r31, 0x03	; 3
    2362:	a7 3e       	cpi	r26, 0xE7	; 231
    2364:	bf 07       	cpc	r27, r31
    2366:	b8 f3       	brcs	.-18     	; 0x2356 <VideoCopyUDGs+0xa>
    2368:	08 95       	ret

0000236a <VideoScan>:
    236a:	0f 92       	push	r0
    236c:	1f 92       	push	r1
    236e:	ef 93       	push	r30
    2370:	ff 93       	push	r31
    2372:	0f 93       	push	r16
    2374:	af 93       	push	r26
    2376:	bf 93       	push	r27
    2378:	cf 93       	push	r28
    237a:	df 93       	push	r29
    237c:	d0 91 04 01 	lds	r29, 0x0104
    2380:	d0 3c       	cpi	r29, 0xC0	; 192
    2382:	70 f5       	brcc	.+92     	; 0x23e0 <VideoScanPrompt>
    2384:	f3 99       	sbic	0x1e, 3	; 30
    2386:	98 c0       	rjmp	.+304    	; 0x24b8 <VideoBMScan>
    2388:	d7 70       	andi	r29, 0x07	; 7
    238a:	1f 93       	push	r17
    238c:	18 e1       	ldi	r17, 0x18	; 24
    238e:	a0 91 02 01 	lds	r26, 0x0102
    2392:	b0 91 03 01 	lds	r27, 0x0103
    2396:	08 e0       	ldi	r16, 0x08	; 8
    2398:	f0 e0       	ldi	r31, 0x00	; 0
    239a:	e8 e0       	ldi	r30, 0x08	; 8
    239c:	f0 93 c6 00 	sts	0x00C6, r31
    23a0:	e0 93 c1 00 	sts	0x00C1, r30

000023a4 <VideoScan00>:
    23a4:	ed 91       	ld	r30, X+
    23a6:	ce 2f       	mov	r28, r30
    23a8:	ef 77       	andi	r30, 0x7F	; 127
    23aa:	0e 9f       	mul	r16, r30
    23ac:	0d 0e       	add	r0, r29
    23ae:	e0 31       	cpi	r30, 0x10	; 16
    23b0:	30 f0       	brcs	.+12     	; 0x23be <VideoScan01>
    23b2:	e7 ea       	ldi	r30, 0xA7	; 167
    23b4:	f1 e0       	ldi	r31, 0x01	; 1
    23b6:	e0 0d       	add	r30, r0
    23b8:	f1 1d       	adc	r31, r1
    23ba:	e4 91       	lpm	r30, Z+
    23bc:	06 c0       	rjmp	.+12     	; 0x23ca <VideoScan02>

000023be <VideoScan01>:
    23be:	e7 e6       	ldi	r30, 0x67	; 103
    23c0:	f3 e0       	ldi	r31, 0x03	; 3
    23c2:	e0 0d       	add	r30, r0
    23c4:	f1 1d       	adc	r31, r1
    23c6:	e0 81       	ld	r30, Z
    23c8:	00 c0       	rjmp	.+0      	; 0x23ca <VideoScan02>

000023ca <VideoScan02>:
    23ca:	c7 fd       	sbrc	r28, 7
    23cc:	e0 95       	com	r30

000023ce <VideoScan03>:
    23ce:	f0 91 c0 00 	lds	r31, 0x00C0
    23d2:	f5 ff       	sbrs	r31, 5
    23d4:	fc cf       	rjmp	.-8      	; 0x23ce <VideoScan03>
    23d6:	e0 93 c6 00 	sts	0x00C6, r30
    23da:	11 50       	subi	r17, 0x01	; 1
    23dc:	1a f7       	brpl	.-58     	; 0x23a4 <VideoScan00>
    23de:	3c c0       	rjmp	.+120    	; 0x2458 <VideoScanEnd>

000023e0 <VideoScanPrompt>:
    23e0:	1f 93       	push	r17
    23e2:	e0 91 08 01 	lds	r30, 0x0108
    23e6:	e0 fd       	sbrc	r30, 0
    23e8:	e0 e4       	ldi	r30, 0x40	; 64
    23ea:	f0 91 07 01 	lds	r31, 0x0107
    23ee:	ff 0f       	add	r31, r31
    23f0:	ff 0f       	add	r31, r31
    23f2:	ff 0f       	add	r31, r31
    23f4:	ef 0f       	add	r30, r31
    23f6:	f0 e0       	ldi	r31, 0x00	; 0
    23f8:	d3 fd       	sbrc	r29, 3
    23fa:	ec 5f       	subi	r30, 0xFC	; 252
    23fc:	a8 e7       	ldi	r26, 0x78	; 120
    23fe:	b0 e0       	ldi	r27, 0x00	; 0
    2400:	ae 0f       	add	r26, r30
    2402:	bf 1f       	adc	r27, r31
    2404:	e7 ea       	ldi	r30, 0xA7	; 167
    2406:	f1 e0       	ldi	r31, 0x01	; 1
    2408:	cd 2f       	mov	r28, r29
    240a:	c7 70       	andi	r28, 0x07	; 7
    240c:	d0 e0       	ldi	r29, 0x00	; 0
    240e:	ce 0f       	add	r28, r30
    2410:	df 1f       	adc	r29, r31
    2412:	10 e0       	ldi	r17, 0x00	; 0
    2414:	e8 e0       	ldi	r30, 0x08	; 8
    2416:	e0 93 c1 00 	sts	0x00C1, r30

0000241a <VideoScanPrompt01>:
    241a:	fd 01       	movw	r30, r26
    241c:	04 91       	lpm	r16, Z+
    241e:	00 32       	cpi	r16, 0x20	; 32
    2420:	08 f4       	brcc	.+2      	; 0x2424 <VideoScanPrompt02>
    2422:	00 e2       	ldi	r16, 0x20	; 32

00002424 <VideoScanPrompt02>:
    2424:	e8 e0       	ldi	r30, 0x08	; 8
    2426:	f0 2f       	mov	r31, r16
    2428:	ff 77       	andi	r31, 0x7F	; 127
    242a:	ef 9f       	mul	r30, r31
    242c:	fe 01       	movw	r30, r28
    242e:	e0 0d       	add	r30, r0
    2430:	f1 1d       	adc	r31, r1
    2432:	04 90       	lpm	r0, Z+
    2434:	07 ff       	sbrs	r16, 7
    2436:	00 94       	com	r0

00002438 <VideoScanPrompt03>:
    2438:	f0 91 c0 00 	lds	r31, 0x00C0
    243c:	f5 ff       	sbrs	r31, 5
    243e:	fc cf       	rjmp	.-8      	; 0x2438 <VideoScanPrompt03>
    2440:	00 92 c6 00 	sts	0x00C6, r0
    2444:	11 96       	adiw	r26, 0x01	; 1
    2446:	1f 5f       	subi	r17, 0xFF	; 255
    2448:	14 30       	cpi	r17, 0x04	; 4
    244a:	38 f3       	brcs	.-50     	; 0x241a <VideoScanPrompt01>
    244c:	d0 91 04 01 	lds	r29, 0x0104
    2450:	df 5f       	subi	r29, 0xFF	; 255
    2452:	d0 3d       	cpi	r29, 0xD0	; 208
    2454:	78 f4       	brcc	.+30     	; 0x2474 <VideoScanEnd1b>
    2456:	0f c0       	rjmp	.+30     	; 0x2476 <VideoScanEnd2>

00002458 <VideoScanEnd>:
    2458:	d7 30       	cpi	r29, 0x07	; 7
    245a:	24 f0       	brlt	.+8      	; 0x2464 <VideoScanEnd1>
    245c:	a0 93 02 01 	sts	0x0102, r26
    2460:	b0 93 03 01 	sts	0x0103, r27

00002464 <VideoScanEnd1>:
    2464:	d0 91 04 01 	lds	r29, 0x0104

00002468 <VideoScanEnd1a>:
    2468:	df 5f       	subi	r29, 0xFF	; 255
    246a:	d0 3c       	cpi	r29, 0xC0	; 192
    246c:	20 f0       	brcs	.+8      	; 0x2476 <VideoScanEnd2>
    246e:	f0 91 09 01 	lds	r31, 0x0109
    2472:	f7 ff       	sbrs	r31, 7

00002474 <VideoScanEnd1b>:
    2474:	d0 e0       	ldi	r29, 0x00	; 0

00002476 <VideoScanEnd2>:
    2476:	f0 91 c0 00 	lds	r31, 0x00C0
    247a:	f5 ff       	sbrs	r31, 5
    247c:	fc cf       	rjmp	.-8      	; 0x2476 <VideoScanEnd2>
    247e:	a0 e0       	ldi	r26, 0x00	; 0
    2480:	a0 93 c1 00 	sts	0x00C1, r26
    2484:	d0 3c       	cpi	r29, 0xC0	; 192
    2486:	51 f4       	brne	.+20     	; 0x249c <VideoScanEnd3>
    2488:	e0 91 88 00 	lds	r30, 0x0088
    248c:	f0 91 89 00 	lds	r31, 0x0089
    2490:	e8 5d       	subi	r30, 0xD8	; 216
    2492:	ff 4f       	sbci	r31, 0xFF	; 255
    2494:	f0 93 89 00 	sts	0x0089, r31
    2498:	e0 93 88 00 	sts	0x0088, r30

0000249c <VideoScanEnd3>:
    249c:	d0 93 04 01 	sts	0x0104, r29
    24a0:	1f 91       	pop	r17
    24a2:	df 91       	pop	r29
    24a4:	cf 91       	pop	r28
    24a6:	bf 91       	pop	r27
    24a8:	af 91       	pop	r26
    24aa:	0f 91       	pop	r16
    24ac:	ff 91       	pop	r31
    24ae:	ef 91       	pop	r30
    24b0:	1f 90       	pop	r1
    24b2:	0f 90       	pop	r0

000024b4 <VideoScan99>:
    24b4:	08 95       	ret
	...

000024b8 <VideoBMScan>:
    24b8:	1f 93       	push	r17
    24ba:	f4 9b       	sbis	0x1e, 4	; 30
    24bc:	3d c0       	rjmp	.+122    	; 0x2538 <VideoBMScanHang>
    24be:	af e0       	ldi	r26, 0x0F	; 15
    24c0:	b1 e0       	ldi	r27, 0x01	; 1
    24c2:	0f ea       	ldi	r16, 0xAF	; 175
    24c4:	11 e0       	ldi	r17, 0x01	; 1
    24c6:	f8 01       	movw	r30, r16
    24c8:	d3 fd       	sbrc	r29, 3
    24ca:	8d 01       	movw	r16, r26
    24cc:	d3 fd       	sbrc	r29, 3
    24ce:	df 01       	movw	r26, r30
    24d0:	f0 e0       	ldi	r31, 0x00	; 0
    24d2:	d7 70       	andi	r29, 0x07	; 7
    24d4:	ad 0f       	add	r26, r29
    24d6:	bf 1f       	adc	r27, r31
    24d8:	e4 e1       	ldi	r30, 0x14	; 20
    24da:	de 9f       	mul	r29, r30
    24dc:	e8 01       	movw	r28, r16
    24de:	c0 0d       	add	r28, r0
    24e0:	d1 1d       	adc	r29, r1
    24e2:	14 e1       	ldi	r17, 0x14	; 20
    24e4:	e8 e0       	ldi	r30, 0x08	; 8
    24e6:	f0 93 c6 00 	sts	0x00C6, r31
    24ea:	e0 93 c1 00 	sts	0x00C1, r30

000024ee <VideoBMScan10>:
    24ee:	0d b5       	in	r16, 0x2d	; 45
    24f0:	07 ff       	sbrs	r16, 7
    24f2:	fd cf       	rjmp	.-6      	; 0x24ee <VideoBMScan10>
    24f4:	0e b5       	in	r16, 0x2e	; 46
    24f6:	0e bd       	out	0x2e, r16	; 46
    24f8:	09 93       	st	Y+, r16
    24fa:	ec 91       	ld	r30, X
    24fc:	18 96       	adiw	r26, 0x08	; 8

000024fe <VideoBMScan11>:
    24fe:	00 91 c0 00 	lds	r16, 0x00C0
    2502:	05 ff       	sbrs	r16, 5
    2504:	fc cf       	rjmp	.-8      	; 0x24fe <VideoBMScan11>
    2506:	e0 93 c6 00 	sts	0x00C6, r30
    250a:	1a 95       	dec	r17
    250c:	81 f7       	brne	.-32     	; 0x24ee <VideoBMScan10>
    250e:	d0 91 04 01 	lds	r29, 0x0104
    2512:	df 3a       	cpi	r29, 0xAF	; 175
    2514:	08 f4       	brcc	.+2      	; 0x2518 <VideoBMScan20>
    2516:	a6 cf       	rjmp	.-180    	; 0x2464 <VideoScanEnd1>

00002518 <VideoBMScan20>:
    2518:	0d b5       	in	r16, 0x2d	; 45
    251a:	07 ff       	sbrs	r16, 7
    251c:	fd cf       	rjmp	.-6      	; 0x2518 <VideoBMScan20>
    251e:	f2 99       	sbic	0x1e, 2	; 30
    2520:	0e b5       	in	r16, 0x2e	; 46

00002522 <VideoBMScan24>:
    2522:	d0 5f       	subi	r29, 0xF0	; 240
    2524:	29 9a       	sbi	0x05, 1	; 5
    2526:	f4 9b       	sbis	0x1e, 4	; 30
    2528:	05 c0       	rjmp	.+10     	; 0x2534 <VideoBMScanHang2Hz>

0000252a <VideoBMScan25>:
    252a:	9e cf       	rjmp	.-196    	; 0x2468 <VideoScanEnd1a>

0000252c <VideoBMScanHang0_5Hz>:
    252c:	c0 e4       	ldi	r28, 0x40	; 64
    252e:	05 c0       	rjmp	.+10     	; 0x253a <VideoBMScanHang00>

00002530 <VideoBMScanHang1Hz>:
    2530:	c0 e2       	ldi	r28, 0x20	; 32
    2532:	03 c0       	rjmp	.+6      	; 0x253a <VideoBMScanHang00>

00002534 <VideoBMScanHang2Hz>:
    2534:	c0 e1       	ldi	r28, 0x10	; 16
    2536:	01 c0       	rjmp	.+2      	; 0x253a <VideoBMScanHang00>

00002538 <VideoBMScanHang>:
    2538:	c8 e0       	ldi	r28, 0x08	; 8

0000253a <VideoBMScanHang00>:
    253a:	dc 2f       	mov	r29, r28

0000253c <VideoBMScanHang01>:
    253c:	b0 9b       	sbis	0x16, 0	; 22
    253e:	fe cf       	rjmp	.-4      	; 0x253c <VideoBMScanHang01>
    2540:	b0 9a       	sbi	0x16, 0	; 22
    2542:	da 95       	dec	r29
    2544:	d9 f7       	brne	.-10     	; 0x253c <VideoBMScanHang01>
    2546:	34 9a       	sbi	0x06, 4	; 6
    2548:	f8 cf       	rjmp	.-16     	; 0x253a <VideoBMScanHang00>

0000254a <__vector_3>:
    254a:	0f 93       	push	r16
    254c:	0f b7       	in	r16, 0x3f	; 63
    254e:	0f 93       	push	r16
    2550:	00 91 04 01 	lds	r16, 0x0104
    2554:	00 31       	cpi	r16, 0x10	; 16
    2556:	09 f0       	breq	.+2      	; 0x255a <__vector_3_00>
    2558:	eb cf       	rjmp	.-42     	; 0x2530 <VideoBMScanHang1Hz>

0000255a <__vector_3_00>:
    255a:	f4 99       	sbic	0x1e, 4	; 30
    255c:	e7 cf       	rjmp	.-50     	; 0x252c <VideoBMScanHang0_5Hz>
    255e:	f1 98       	cbi	0x1e, 1	; 30
    2560:	29 99       	sbic	0x05, 1	; 5
    2562:	f1 9a       	sbi	0x1e, 1	; 30
    2564:	00 91 6b 00 	lds	r16, 0x006B
    2568:	0d 7f       	andi	r16, 0xFD	; 253
    256a:	00 93 6b 00 	sts	0x006B, r16
    256e:	1f 93       	push	r17
    2570:	af 93       	push	r26
    2572:	bf 93       	push	r27
    2574:	1f 92       	push	r1
    2576:	11 24       	eor	r1, r1
    2578:	0d b5       	in	r16, 0x2d	; 45
    257a:	f2 98       	cbi	0x1e, 2	; 30
    257c:	07 fd       	sbrc	r16, 7
    257e:	f2 9a       	sbi	0x1e, 2	; 30
    2580:	29 9a       	sbi	0x05, 1	; 5
    2582:	f3 9a       	sbi	0x1e, 3	; 30
    2584:	f4 9a       	sbi	0x1e, 4	; 30
    2586:	a0 e8       	ldi	r26, 0x80	; 128
    2588:	b3 e1       	ldi	r27, 0x13	; 19
    258a:	1b d0       	rcall	.+54     	; 0x25c2 <SramAbsBeginRd_Asm>
    258c:	00 ea       	ldi	r16, 0xA0	; 160
    258e:	af e0       	ldi	r26, 0x0F	; 15
    2590:	b1 e0       	ldi	r27, 0x01	; 1

00002592 <VideoBMPrefetch00>:
    2592:	1d b5       	in	r17, 0x2d	; 45
    2594:	17 ff       	sbrs	r17, 7
    2596:	fd cf       	rjmp	.-6      	; 0x2592 <VideoBMPrefetch00>
    2598:	1e b5       	in	r17, 0x2e	; 46
    259a:	0e bd       	out	0x2e, r16	; 46
    259c:	1d 93       	st	X+, r17
    259e:	0a 95       	dec	r16
    25a0:	c1 f7       	brne	.-16     	; 0x2592 <VideoBMPrefetch00>
    25a2:	d8 9a       	sbi	0x1b, 0	; 27
    25a4:	78 94       	sei

000025a6 <VideoBMPrefetch20>:
    25a6:	29 9b       	sbis	0x05, 1	; 5
    25a8:	fe cf       	rjmp	.-4      	; 0x25a6 <VideoBMPrefetch20>
    25aa:	f1 9b       	sbis	0x1e, 1	; 30
    25ac:	29 98       	cbi	0x05, 1	; 5
    25ae:	f3 98       	cbi	0x1e, 3	; 30
    25b0:	f4 98       	cbi	0x1e, 4	; 30
    25b2:	1f 90       	pop	r1
    25b4:	bf 91       	pop	r27
    25b6:	af 91       	pop	r26
    25b8:	1f 91       	pop	r17

000025ba <VideoBMPrefetchTestAbort>:
    25ba:	0f 91       	pop	r16
    25bc:	0f bf       	out	0x3f, r16	; 63
    25be:	0f 91       	pop	r16
    25c0:	18 95       	reti

000025c2 <SramAbsBeginRd_Asm>:
    25c2:	29 98       	cbi	0x05, 1	; 5
    25c4:	03 e0       	ldi	r16, 0x03	; 3
    25c6:	0e bd       	out	0x2e, r16	; 46
    25c8:	0d b5       	in	r16, 0x2d	; 45
    25ca:	07 ff       	sbrs	r16, 7
    25cc:	fd cf       	rjmp	.-6      	; 0x25c8 <SramAbsBeginRd_Asm+0x6>
    25ce:	be bd       	out	0x2e, r27	; 46
    25d0:	0d b5       	in	r16, 0x2d	; 45
    25d2:	07 ff       	sbrs	r16, 7
    25d4:	fd cf       	rjmp	.-6      	; 0x25d0 <SramAbsBeginRd_Asm+0xe>
    25d6:	ae bd       	out	0x2e, r26	; 46
    25d8:	0d b5       	in	r16, 0x2d	; 45
    25da:	07 ff       	sbrs	r16, 7
    25dc:	fd cf       	rjmp	.-6      	; 0x25d8 <SramAbsBeginRd_Asm+0x16>
    25de:	0e bd       	out	0x2e, r16	; 46
    25e0:	08 95       	ret

000025e2 <__eerd_block_m168>:
    25e2:	dc 01       	movw	r26, r24
    25e4:	cb 01       	movw	r24, r22

000025e6 <__eerd_blraw_m168>:
    25e6:	fc 01       	movw	r30, r24
    25e8:	f9 99       	sbic	0x1f, 1	; 31
    25ea:	fe cf       	rjmp	.-4      	; 0x25e8 <__eerd_blraw_m168+0x2>
    25ec:	06 c0       	rjmp	.+12     	; 0x25fa <__eerd_blraw_m168+0x14>
    25ee:	f2 bd       	out	0x22, r31	; 34
    25f0:	e1 bd       	out	0x21, r30	; 33
    25f2:	f8 9a       	sbi	0x1f, 0	; 31
    25f4:	31 96       	adiw	r30, 0x01	; 1
    25f6:	00 b4       	in	r0, 0x20	; 32
    25f8:	0d 92       	st	X+, r0
    25fa:	41 50       	subi	r20, 0x01	; 1
    25fc:	50 40       	sbci	r21, 0x00	; 0
    25fe:	b8 f7       	brcc	.-18     	; 0x25ee <__eerd_blraw_m168+0x8>
    2600:	08 95       	ret

00002602 <_exit>:
    2602:	f8 94       	cli

00002604 <__stop_program>:
    2604:	ff cf       	rjmp	.-2      	; 0x2604 <__stop_program>

Disassembly of section .fth:

00006606 <_fthROM>:
    6606:	06 70       	andi	r16, 0x06	; 6
    6608:	04 6b       	ori	r16, 0xB4	; 180
    660a:	65 72       	andi	r22, 0x25	; 37
    660c:	6e 00       	.word	0x006e	; ????
    660e:	00 08       	sbc	r0, r0
    6610:	66 23       	and	r22, r22

00006611 <Kern>:
    6611:	23 fe       	sbrs	r2, 3

00006612 <KernX0>:
    6612:	fe 01       	movw	r30, r28
    6614:	7e 96       	adiw	r30, 0x1e	; 30
    6616:	e0 0f       	add	r30, r16
    6618:	f1 1f       	adc	r31, r17
    661a:	e0 0f       	add	r30, r16
    661c:	f1 1f       	adc	r31, r17
    661e:	17 fd       	sbrc	r17, 7
    6620:	03 c0       	rjmp	.+6      	; 0x6628 <KernX3>
    6622:	05 91       	lpm	r16, Z+
    6624:	14 91       	lpm	r17, Z+
    6626:	02 c0       	rjmp	.+4      	; 0x662c <KernX4>

00006628 <KernX3>:
    6628:	15 91       	lpm	r17, Z+
    662a:	04 91       	lpm	r16, Z+

0000662c <KernX4>:
    662c:	0c 94 80 0f 	jmp	0x1f00	; 0x1f00 <_VMkFigExit>

00006630 <Kern01>:
    6630:	a7 01       	movw	r20, r14
    6632:	60 09       	sbc	r22, r0
    6634:	87 65       	ori	r24, 0x57	; 87
    6636:	78 65       	ori	r23, 0x58	; 88
    6638:	63 75       	andi	r22, 0x53	; 83
    663a:	74 65       	ori	r23, 0x54	; 84
    663c:	08 66       	ori	r16, 0x68	; 104
    663e:	34 66       	ori	r19, 0x64	; 100

00006640 <ByteCodeExecute>:
    6640:	02 81       	ldd	r16, Z+2	; 0x02
    6642:	69 34       	cpi	r22, 0x49	; 73
    6644:	66 41       	sbci	r22, 0x16	; 22
    6646:	66 21       	and	r22, r6

00006647 <ByteCode_I>:
    6647:	21 85       	ldd	r18, Z+9	; 0x09
    6649:	6c 65       	ori	r22, 0x5C	; 92
    664b:	61 76       	andi	r22, 0x61	; 97
    664d:	65 41       	sbci	r22, 0x15	; 21
    664f:	66 48       	sbci	r22, 0x86	; 134
    6651:	66 0f       	add	r22, r22

00006652 <ByteCodeLeave>:
    6652:	0f 83       	std	Y+7, r16	; 0x07
    6654:	61 6e       	ori	r22, 0xE1	; 225
    6656:	64 48       	sbci	r22, 0x84	; 132
    6658:	66 53       	subi	r22, 0x36	; 54
    665a:	66 0c       	add	r6, r6

0000665b <ByteCodeOpAnd>:
    665b:	0c 82       	std	Y+4, r0	; 0x04
    665d:	6f 72       	andi	r22, 0x2F	; 47
    665f:	53 66       	ori	r21, 0x63	; 99
    6661:	5c 66       	ori	r21, 0x6C	; 108

00006663 <ByteCodeOpOr>:
    6663:	0d 83       	std	Y+5, r16	; 0x05
    6665:	78 6f       	ori	r23, 0xF8	; 248
    6667:	72 5c       	subi	r23, 0xC2	; 194
    6669:	66 64       	ori	r22, 0x46	; 70
    666b:	66 0e       	add	r6, r22

0000666c <ByteCodeOpXor>:
    666c:	0e 82       	std	Y+6, r0	; 0x06
    666e:	3e 3e       	cpi	r19, 0xEE	; 238
    6670:	64 66       	ori	r22, 0x64	; 100
    6672:	6d 66       	ori	r22, 0x6D	; 109

00006674 <ByteCodeOpLsr>:
    6674:	32 82       	std	Z+2, r3	; 0x02
    6676:	3c 3c       	cpi	r19, 0xCC	; 204
    6678:	6d 66       	ori	r22, 0x6D	; 109
    667a:	75 66       	ori	r23, 0x65	; 101

0000667c <ByteCodeOpLsl>:
    667c:	33 82       	std	Z+3, r3	; 0x03
    667e:	3b 73       	andi	r19, 0x3B	; 59
    6680:	75 66       	ori	r23, 0x65	; 101
    6682:	7d 66       	ori	r23, 0x6D	; 109

00006684 <ByteCodeExit>:
    6684:	2e 82       	std	Y+6, r2	; 0x06
    6686:	72 3e       	cpi	r23, 0xE2	; 226
    6688:	7d 66       	ori	r23, 0x6D	; 109
    668a:	85 66       	ori	r24, 0x65	; 101

0000668c <ByteCodeFromR>:
    668c:	11 82       	std	Z+1, r1	; 0x01
    668e:	3e 72       	andi	r19, 0x2E	; 46
    6690:	85 66       	ori	r24, 0x65	; 101
    6692:	8d 66       	ori	r24, 0x6D	; 109

00006694 <ByteCodeToR>:
    6694:	13 81       	ldd	r17, Z+3	; 0x03
    6696:	72 8d       	ldd	r23, Z+26	; 0x1a
    6698:	66 95       	lsr	r22
    669a:	66 12       	cpse	r6, r22

0000669b <ByteCodeR>:
    669b:	12 82       	std	Z+2, r1	; 0x02
    669d:	30 3d       	cpi	r19, 0xD0	; 208
    669f:	95 66       	ori	r25, 0x65	; 101
    66a1:	9c 66       	ori	r25, 0x6C	; 108

000066a3 <ByteCodeZeroEq>:
    66a3:	14 82       	std	Z+4, r1	; 0x04
    66a5:	30 3c       	cpi	r19, 0xC0	; 192
    66a7:	9c 66       	ori	r25, 0x6C	; 108
    66a9:	a4 66       	ori	r26, 0x64	; 100

000066ab <ByteCodeZeroLt>:
    66ab:	15 81       	ldd	r17, Z+5	; 0x05
    66ad:	2b a4       	ldd	r2, Y+43	; 0x2b
    66af:	66 ac       	ldd	r6, Z+62	; 0x3e
    66b1:	66 16       	cp	r6, r22

000066b2 <ByteCodePlus>:
    66b2:	16 82       	std	Z+6, r1	; 0x06
    66b4:	64 2b       	or	r22, r20
    66b6:	ac 66       	ori	r26, 0x6C	; 108
    66b8:	b3 66       	ori	r27, 0x63	; 99

000066ba <ByteCodeDPlus>:
    66ba:	17 85       	ldd	r17, Z+15	; 0x0f
    66bc:	6d 69       	ori	r22, 0x9D	; 157
    66be:	6e 75       	andi	r22, 0x5E	; 94
    66c0:	73 b3       	in	r23, 0x13	; 19
    66c2:	66 bb       	out	0x16, r22	; 22
    66c4:	66 18       	sub	r6, r6

000066c5 <ByteCodeMinus>:
    66c5:	18 86       	std	Y+8, r1	; 0x08
    66c7:	64 6d       	ori	r22, 0xD4	; 212
    66c9:	69 6e       	ori	r22, 0xE9	; 233
    66cb:	75 73       	andi	r23, 0x35	; 53
    66cd:	bb 66       	ori	r27, 0x6B	; 107
    66cf:	c6 66       	ori	r28, 0x66	; 102

000066d1 <ByteCodeDMinus>:
    66d1:	19 84       	ldd	r1, Y+9	; 0x09
    66d3:	6f 76       	andi	r22, 0x6F	; 111
    66d5:	65 72       	andi	r22, 0x25	; 37
    66d7:	c6 66       	ori	r28, 0x66	; 102
    66d9:	d2 66       	ori	r29, 0x62	; 98

000066db <ByteCodeOver>:
    66db:	1a 84       	ldd	r1, Y+10	; 0x0a
    66dd:	64 72       	andi	r22, 0x24	; 36
    66df:	6f 70       	andi	r22, 0x0F	; 15
    66e1:	d2 66       	ori	r29, 0x62	; 98
    66e3:	dc 66       	ori	r29, 0x6C	; 108

000066e5 <ByteCodeDrop>:
    66e5:	03 84       	ldd	r0, Z+11	; 0x0b
    66e7:	73 77       	andi	r23, 0x73	; 115
    66e9:	61 70       	andi	r22, 0x01	; 1
    66eb:	dc 66       	ori	r29, 0x6C	; 108
    66ed:	e6 66       	ori	r30, 0x66	; 102

000066ef <ByteCodeSwap>:
    66ef:	1b 83       	std	Y+3, r17	; 0x03
    66f1:	64 75       	andi	r22, 0x54	; 84
    66f3:	70 e6       	ldi	r23, 0x60	; 96
    66f5:	66 f0       	brts	.+24     	; 0x670f <ByteCodePling+0x1>
    66f7:	66 1c       	adc	r6, r6

000066f8 <ByteCodeDupe>:
    66f8:	1c 81       	ldd	r17, Y+4	; 0x04
    66fa:	40 f0       	brcs	.+16     	; 0x670c <ByteCodeCFetch+0x5>
    66fc:	66 f9       	bld	r22, 6
    66fe:	66 1d       	adc	r22, r6

000066ff <ByteCodeFetch>:
    66ff:	1d 82       	std	Y+5, r1	; 0x05
    6701:	63 40       	sbci	r22, 0x03	; 3
    6703:	f9 66       	ori	r31, 0x69	; 105
    6705:	00 67       	ori	r16, 0x70	; 112

00006707 <ByteCodeCFetch>:
    6707:	1e 81       	ldd	r17, Y+6	; 0x06
    6709:	21 00       	.word	0x0021	; ????
    670b:	67 08       	sbc	r6, r7
    670d:	67 20       	and	r6, r7

0000670e <ByteCodePling>:
    670e:	20 82       	st	Z, r2
    6710:	63 21       	and	r22, r3
    6712:	08 67       	ori	r16, 0x78	; 120
    6714:	0f 67       	ori	r16, 0x7F	; 127

00006716 <ByteCodeCPling>:
    6716:	1f 82       	std	Y+7, r1	; 0x07
    6718:	75 2a       	or	r7, r21
    671a:	0f 67       	ori	r16, 0x7F	; 127
    671c:	17 67       	ori	r17, 0x77	; 119

0000671e <ByteCodeUMUL>:
    671e:	09 82       	std	Y+1, r0	; 0x01
    6720:	75 2f       	mov	r23, r21
    6722:	17 67       	ori	r17, 0x77	; 119
    6724:	1f 67       	ori	r17, 0x7F	; 127

00006726 <ByteCodeUDIV>:
    6726:	0b 84       	ldd	r0, Y+11	; 0x0b
    6728:	65 6d       	ori	r22, 0xD5	; 213
    672a:	69 74       	andi	r22, 0x49	; 73
    672c:	1f 67       	ori	r17, 0x7F	; 127
    672e:	27 67       	ori	r18, 0x77	; 119

00006730 <ByteCodeEmit>:
    6730:	28 84       	ldd	r2, Y+8	; 0x08
    6732:	70 6c       	ori	r23, 0xC0	; 192
    6734:	6f 74       	andi	r22, 0x4F	; 79
    6736:	27 67       	ori	r18, 0x77	; 119
    6738:	31 67       	ori	r19, 0x71	; 113

0000673a <ByteCodePlot>:
    673a:	38 82       	st	Y, r3
    673c:	31 2b       	or	r19, r17
    673e:	31 67       	ori	r19, 0x71	; 113
    6740:	3b 67       	ori	r19, 0x7B	; 123

00006742 <ByteCodeInc>:
    6742:	22 85       	ldd	r18, Z+10	; 0x0a
    6744:	63 6d       	ori	r22, 0xD3	; 211
    6746:	6f 76       	andi	r22, 0x6F	; 111
    6748:	65 3b       	cpi	r22, 0xB5	; 181
    674a:	67 43       	sbci	r22, 0x37	; 55
    674c:	67 37       	cpi	r22, 0x77	; 119

0000674d <ByteCodeCMove>:
    674d:	37 84       	ldd	r3, Z+15	; 0x0f
    674f:	66 69       	ori	r22, 0x96	; 150
    6751:	6c 6c       	ori	r22, 0xCC	; 204
    6753:	43 67       	ori	r20, 0x73	; 115
    6755:	4e 67       	ori	r20, 0x7E	; 126

00006757 <ByteCodeFill>:
    6757:	30 83       	st	Z, r19
    6759:	69 63       	ori	r22, 0x39	; 57
    675b:	40 4e       	sbci	r20, 0xE0	; 224
    675d:	67 58       	subi	r22, 0x87	; 135
    675f:	67 24       	eor	r6, r7

00006760 <ByteCodeIntCFetch>:
    6760:	24 83       	std	Z+4, r18	; 0x04
    6762:	69 63       	ori	r22, 0x39	; 57
    6764:	21 58       	subi	r18, 0x81	; 129
    6766:	67 61       	ori	r22, 0x17	; 23
    6768:	67 25       	eor	r22, r7

00006769 <ByteCodeIntCStore>:
    6769:	25 82       	std	Z+5, r2	; 0x05
    676b:	69 40       	sbci	r22, 0x09	; 9
    676d:	61 67       	ori	r22, 0x71	; 113
    676f:	6a 67       	ori	r22, 0x7A	; 122

00006771 <ByteCodeIntFetch>:
    6771:	26 82       	std	Z+6, r2	; 0x06
    6773:	69 21       	and	r22, r9
    6775:	6a 67       	ori	r22, 0x7A	; 122
    6777:	72 67       	ori	r23, 0x72	; 114

00006779 <ByteCodeIntStore>:
    6779:	27 86       	std	Z+15, r2	; 0x0f
    677b:	3e 70       	andi	r19, 0x0E	; 14
    677d:	6f 72       	andi	r22, 0x2F	; 47
    677f:	74 3e       	cpi	r23, 0xE4	; 228
    6781:	72 67       	ori	r23, 0x72	; 114
    6783:	7a 67       	ori	r23, 0x7A	; 122

00006785 <ByteCodePortMod>:
    6785:	0a 83       	std	Y+2, r16	; 0x02
    6787:	73 70       	andi	r23, 0x03	; 3
    6789:	69 7a       	andi	r22, 0xA9	; 169
    678b:	67 86       	std	Z+15, r6	; 0x0f
    678d:	67 39       	cpi	r22, 0x97	; 151

0000678e <ByteCodeSpiDrv>:
    678e:	39 82       	std	Y+1, r3	; 0x01
    6790:	31 2d       	mov	r19, r1
    6792:	86 67       	ori	r24, 0x76	; 118
    6794:	8f 67       	ori	r24, 0x7F	; 127

00006796 <ByteCodeDec>:
    6796:	2f 82       	std	Y+7, r2	; 0x07
    6798:	61 74       	andi	r22, 0x41	; 65
    679a:	8f 67       	ori	r24, 0x7F	; 127
    679c:	97 67       	ori	r25, 0x77	; 119

0000679e <ByteCodeAt>:
    679e:	2d 83       	std	Y+5, r18	; 0x05
    67a0:	63 6c       	ori	r22, 0xC3	; 195
    67a2:	73 97       	sbiw	r30, 0x13	; 19
    67a4:	67 9f       	mul	r22, r23
    67a6:	67 31       	cpi	r22, 0x17	; 23

000067a7 <ByteCodeCls>:
    67a7:	31 84       	ldd	r3, Z+9	; 0x09
    67a9:	2e 68       	ori	r18, 0x8E	; 142
    67ab:	65 78       	andi	r22, 0x85	; 133
    67ad:	9f 67       	ori	r25, 0x7F	; 127
    67af:	a8 67       	ori	r26, 0x78	; 120

000067b1 <ByteCodeDotHex>:
    67b1:	2a 84       	ldd	r2, Y+10	; 0x0a
    67b3:	65 64       	ori	r22, 0x45	; 69
    67b5:	69 74       	andi	r22, 0x49	; 73
    67b7:	a8 67       	ori	r26, 0x78	; 120
    67b9:	b2 67       	ori	r27, 0x72	; 114

000067bb <ByteCodeEdit>:
    67bb:	34 84       	ldd	r3, Z+12	; 0x0c
    67bd:	62 6c       	ori	r22, 0xC2	; 194
    67bf:	6b 3e       	cpi	r22, 0xEB	; 235
    67c1:	b2 67       	ori	r27, 0x72	; 114
    67c3:	bc 67       	ori	r27, 0x7C	; 124

000067c5 <ByteCodeBlkIn>:
    67c5:	35 84       	ldd	r3, Z+13	; 0x0d
    67c7:	3e 62       	ori	r19, 0x2E	; 46
    67c9:	6c 6b       	ori	r22, 0xBC	; 188
    67cb:	bc 67       	ori	r27, 0x7C	; 124
    67cd:	c6 67       	ori	r28, 0x76	; 118

000067cf <ByteCodeBlkOut>:
    67cf:	36 85       	ldd	r19, Z+14	; 0x0e
    67d1:	74 72       	andi	r23, 0x24	; 36
    67d3:	61 63       	ori	r22, 0x31	; 49
    67d5:	65 c6       	rjmp	.+3274   	; 0x74a1 <List+0xc0>
    67d7:	67 d0       	rcall	.+206    	; 0x68a7 <DQ1+0x7>
    67d9:	67 3a       	cpi	r22, 0xA7	; 167

000067da <ByteCodeTrace>:
    67da:	3a 03       	fmul	r19, r18
    67dc:	6b 65       	ori	r22, 0x5B	; 91
    67de:	79 d0       	rcall	.+242    	; 0x68d2 <Variable+0x4>
    67e0:	67 db       	rcall	.-2354   	; 0x5eb0 <__data_load_end+0x2ac6>
    67e2:	67 23       	and	r22, r23

000067e3 <FigKey>:
    67e3:	23 0e       	add	r2, r19
    67e5:	94 0d       	add	r25, r4
    67e7:	07 08       	sbc	r0, r7
    67e9:	c0 05       	cpc	r28, r0
    67eb:	69 6e       	ori	r22, 0xE9	; 233
    67ed:	6b 65       	ori	r22, 0x5B	; 91
    67ef:	79 db       	rcall	.-2318   	; 0x5ee3 <__data_load_end+0x2af9>
    67f1:	67 ea       	ldi	r22, 0xA7	; 167
    67f3:	67 23       	and	r22, r23

000067f4 <FigInKey>:
    67f4:	23 00       	.word	0x0023	; ????
    67f6:	0e 94 fd 06 	call	0xdfa	; 0xdfa <KeyP>

000067fa <RomPushByteRet>:
    67fa:	99 27       	eor	r25, r25
    67fc:	d7 01       	movw	r26, r14
    67fe:	0d 93       	st	X+, r16
    6800:	1d 93       	st	X+, r17
    6802:	8c 01       	movw	r16, r24
    6804:	7d 01       	movw	r14, r26
    6806:	0c 94 80 0f 	jmp	0x1f00	; 0x1f00 <_VMkFigExit>
    680a:	02 63       	ori	r16, 0x32	; 50
    680c:	72 ea       	ldi	r23, 0xA2	; 162
    680e:	67 0a       	sbc	r6, r23
    6810:	68 01       	movw	r12, r16

00006811 <CR>:
    6811:	01 00       	.word	0x0001	; ????
    6813:	0d 28       	or	r0, r13
    6815:	2e 05       	cpc	r18, r14
    6817:	63 6f       	ori	r22, 0xF3	; 243
    6819:	75 6e       	ori	r23, 0xE5	; 229
    681b:	74 0a       	sbc	r7, r20
    681d:	68 16       	cp	r6, r24
    681f:	68 1c       	adc	r6, r8

00006820 <Count>:
    6820:	1c 22       	and	r1, r28
    6822:	1b 1e       	adc	r1, r27
    6824:	2e 04       	cpc	r2, r14
    6826:	74 79       	andi	r23, 0x94	; 148
    6828:	70 65       	ori	r23, 0x50	; 80
    682a:	16 68       	ori	r17, 0x86	; 134
    682c:	25 68       	ori	r18, 0x85	; 133

0000682e <Typ>:
    682e:	e2 6a       	ori	r30, 0xA2	; 162
    6830:	04 40       	sbci	r16, 0x04	; 4
    6832:	68 1a       	sub	r6, r24
    6834:	16 1b       	sub	r17, r22
    6836:	08 21       	and	r16, r8

00006837 <Type0>:
    6837:	21 1e       	adc	r2, r17
    6839:	28 06       	cpc	r2, r24
    683b:	37 68       	ori	r19, 0x87	; 135
    683d:	05 41       	sbci	r16, 0x15	; 21
    683f:	68 03       	fmul	r22, r16

00006840 <Type1>:
    6840:	03 2e       	mov	r0, r19

00006841 <Type2>:
    6841:	2e 05       	cpc	r18, r14
    6843:	73 70       	andi	r23, 0x03	; 3
    6845:	61 63       	ori	r22, 0x31	; 49
    6847:	65 25       	eor	r22, r5
    6849:	68 42       	sbci	r22, 0x28	; 40
    684b:	68 1d       	adc	r22, r8

0000684c <ASpace>:
    684c:	1d 69       	ori	r17, 0x9D	; 157
    684e:	28 2e       	mov	r2, r24
    6850:	06 73       	andi	r16, 0x36	; 54
    6852:	70 61       	ori	r23, 0x10	; 16
    6854:	63 65       	ori	r22, 0x53	; 83
    6856:	73 42       	sbci	r23, 0x23	; 35
    6858:	68 50       	subi	r22, 0x08	; 8
    685a:	68 f8       	.word	0xf868	; ????

0000685b <Spaces>:
    685b:	f8 68       	ori	r31, 0x88	; 136
    685d:	6c 70       	andi	r22, 0x0C	; 12
    685f:	e2 6a       	ori	r30, 0xA2	; 162
    6861:	04 6c       	ori	r16, 0xC4	; 196
    6863:	68 f8       	.word	0xf868	; ????
    6865:	68 08       	sbc	r6, r8

00006867 <Spaces1>:
    6867:	4c 68       	ori	r20, 0x8C	; 140
    6869:	06 67       	ori	r16, 0x76	; 118
    686b:	68 2e       	mov	r6, r24

0000686c <Spaces2>:
    686c:	2e 04       	cpc	r2, r14
    686e:	28 2e       	mov	r2, r24
    6870:	22 29       	or	r18, r2
    6872:	50 68       	ori	r21, 0x80	; 128
    6874:	6d 68       	ori	r22, 0x8D	; 141

00006876 <_DotQuote>:
    6876:	12 20       	and	r1, r2
    6878:	68 1c       	adc	r6, r8
    687a:	22 11       	cpse	r18, r2
    687c:	16 13       	cpse	r17, r22
    687e:	2e 68       	ori	r18, 0x8E	; 142
    6880:	2e 42       	sbci	r18, 0x2E	; 46
    6882:	2e 22       	and	r2, r30
    6884:	6d 68       	ori	r22, 0x8D	; 141
    6886:	81 68       	ori	r24, 0x81	; 129

00006888 <DotQuote>:
    6888:	01 00       	.word	0x0001	; ????
    688a:	22 ed       	ldi	r18, 0xD2	; 210
    688c:	69 1d       	adc	r22, r9
    688e:	04 a0       	ldd	r0, Z+36	; 0x24
    6890:	68 52       	subi	r22, 0x28	; 40
    6892:	6c 76       	andi	r22, 0x6C	; 108
    6894:	68 df       	rcall	.-304    	; 0x6766 <ByteCodeIntCFetch+0x6>
    6896:	6d 5c       	subi	r22, 0xCD	; 205
    6898:	6a 1e       	adc	r6, r26
    689a:	22 6a       	ori	r18, 0xA2	; 162
    689c:	6a 05       	cpc	r22, r10
    689e:	a8 68       	ori	r26, 0x88	; 136

000068a0 <DQ1>:
    68a0:	df 6d       	ori	r29, 0xDF	; 223
    68a2:	5c 6a       	ori	r21, 0xAC	; 172
    68a4:	20 68       	ori	r18, 0x80	; 128
    68a6:	2e 68       	ori	r18, 0x8E	; 142

000068a8 <DQ2>:
    68a8:	2e 05       	cpc	r18, r14
    68aa:	65 72       	andi	r22, 0x25	; 37
    68ac:	61 73       	andi	r22, 0x31	; 49
    68ae:	65 81       	ldd	r22, Z+5	; 0x05
    68b0:	68 a9       	ldd	r22, Y+48	; 0x30
    68b2:	68 f8       	.word	0xf868	; ????

000068b3 <Erase>:
    68b3:	f8 68       	ori	r31, 0x88	; 136
    68b5:	30 2e       	mov	r3, r16
    68b7:	06 62       	ori	r16, 0x26	; 38
    68b9:	6c 61       	ori	r22, 0x1C	; 28
    68bb:	6e 6b       	ori	r22, 0xBE	; 190
    68bd:	73 a9       	ldd	r23, Z+51	; 0x33
    68bf:	68 b7       	in	r22, 0x38	; 56
    68c1:	68 1d       	adc	r22, r8

000068c2 <Blanks>:
    68c2:	1d 69       	ori	r17, 0x9D	; 157
    68c4:	30 2e       	mov	r3, r16
    68c6:	03 76       	andi	r16, 0x63	; 99
    68c8:	61 72       	andi	r22, 0x21	; 33
    68ca:	b7 68       	ori	r27, 0x87	; 135
    68cc:	c6 68       	ori	r28, 0x86	; 134

000068ce <Variable>:
    68ce:	95 6c       	ori	r25, 0xC5	; 197
    68d0:	75 6a       	ori	r23, 0xA5	; 165
    68d2:	b3 6c       	ori	r27, 0xC3	; 195

000068d4 <DoVariable>:
    68d4:	10 2e       	mov	r1, r16
    68d6:	05 63       	ori	r16, 0x35	; 53
    68d8:	6f 6e       	ori	r22, 0xEF	; 239
    68da:	73 74       	andi	r23, 0x43	; 67
    68dc:	c6 68       	ori	r28, 0x86	; 134
    68de:	d6 68       	ori	r29, 0x86	; 134

000068e0 <Constant>:
    68e0:	05 e6       	ldi	r16, 0x65	; 101
    68e2:	68 10       	cpse	r6, r8

000068e3 <DoConst>:
    68e3:	10 1d       	adc	r17, r0
    68e5:	2e 01       	movw	r4, r28

000068e6 <Constant1>:
    68e6:	01 00       	.word	0x0001	; ????
    68e8:	3d 6d       	ori	r19, 0xDD	; 221

000068e9 <VarConstDef>:
    68e9:	6d 6e       	ori	r22, 0xED	; 237
    68eb:	81 6c       	ori	r24, 0xC1	; 193
    68ed:	84 6a       	ori	r24, 0xA4	; 164
    68ef:	75 6a       	ori	r23, 0xA5	; 165
    68f1:	2e 01       	movw	r4, r28
    68f3:	30 d6       	rcall	.+3168   	; 0x7555 <List+0x174>
    68f5:	68 f2       	brcs	.-102    	; 0x6891 <DotQuote+0x9>
    68f7:	68 3d       	cpi	r22, 0xD8	; 216

000068f8 <Zero>:
    68f8:	3d 00       	.word	0x003d	; ????
    68fa:	00 01       	movw	r0, r0
    68fc:	31 f2       	breq	.-116    	; 0x688a <DotQuote+0x2>
    68fe:	68 fb       	.word	0xfb68	; ????
    6900:	68 3d       	cpi	r22, 0xD8	; 216

00006901 <One>:
    6901:	3d 00       	.word	0x003d	; ????
    6903:	01 01       	movw	r0, r2
    6905:	32 fb       	bst	r19, 2
    6907:	68 04       	cpc	r6, r8
    6909:	69 3d       	cpi	r22, 0xD9	; 217

0000690a <Two>:
    690a:	3d 00       	.word	0x003d	; ????
    690c:	02 01       	movw	r0, r4
    690e:	33 04       	cpc	r3, r3
    6910:	69 0d       	add	r22, r9
    6912:	69 3d       	cpi	r22, 0xD9	; 217

00006913 <Three>:
    6913:	3d 00       	.word	0x003d	; ????
    6915:	03 02       	muls	r16, r19
    6917:	62 6c       	ori	r22, 0xC2	; 194
    6919:	0d 69       	ori	r16, 0x9D	; 157
    691b:	16 69       	ori	r17, 0x96	; 150

0000691d <Blank>:
    691d:	3d 00       	.word	0x003d	; ????
    691f:	20 04       	cpc	r2, r0
    6921:	76 72       	andi	r23, 0x26	; 38
    6923:	61 6d       	ori	r22, 0xD1	; 209
    6925:	16 69       	ori	r17, 0x96	; 150
    6927:	20 69       	ori	r18, 0x90	; 144

00006929 <VideoBuff>:
    6929:	3d 0f       	add	r19, r29
    692b:	01 05       	cpc	r16, r1
    692d:	63 6c       	ori	r22, 0xC3	; 195
    692f:	6f 63       	ori	r22, 0x3F	; 63
    6931:	6b 20       	and	r6, r11
    6933:	69 2c       	mov	r6, r9
    6935:	69 3d       	cpi	r22, 0xD9	; 217

00006936 <GClock>:
    6936:	3d f5       	brhc	.+78     	; 0x6986 <UserLink+0x9>
    6938:	03 07       	cpc	r16, r19
    693a:	73 79       	andi	r23, 0x93	; 147
    693c:	73 76       	andi	r23, 0x63	; 99
    693e:	61 72       	andi	r22, 0x21	; 33
    6940:	73 2c       	mov	r7, r3
    6942:	69 39       	cpi	r22, 0x99	; 153
    6944:	69 3d       	cpi	r22, 0xD9	; 217

00006945 <SysVars>:
    6945:	3d e7       	ldi	r19, 0x7D	; 125
    6947:	03 02       	muls	r16, r19
    6949:	69 27       	eor	r22, r25
    694b:	39 69       	ori	r19, 0x99	; 153
    694d:	48 69       	ori	r20, 0x98	; 152

0000694f <ILim>:
    694f:	3d 00       	.word	0x003d	; ????
    6951:	0a 02       	muls	r16, r26
    6953:	72 70       	andi	r23, 0x02	; 2
    6955:	48 69       	ori	r20, 0x98	; 152
    6957:	52 69       	ori	r21, 0x92	; 146

00006959 <GRP>:
    6959:	3d 00       	.word	0x003d	; ????
    695b:	5d 02       	muls	r21, r29
    695d:	73 70       	andi	r23, 0x03	; 3
    695f:	52 69       	ori	r21, 0x92	; 146
    6961:	5c 69       	ori	r21, 0x9C	; 156

00006963 <GSP>:
    6963:	3d 00       	.word	0x003d	; ????
    6965:	0e 03       	fmul	r16, r22
    6967:	73 70       	andi	r23, 0x03	; 3
    6969:	30 5c       	subi	r19, 0xC0	; 192
    696b:	69 66       	ori	r22, 0x69	; 105
    696d:	69 3d       	cpi	r22, 0xD9	; 217

0000696e <Sp0>:
    696e:	3d f8       	.word	0xf83d	; ????
    6970:	03 80       	ldd	r0, Z+3	; 0x03

00006971 <User0>:
    6971:	80 22       	and	r8, r16
    6973:	00 1f       	adc	r16, r16
    6975:	00 01       	movw	r0, r0
    6977:	80 82       	st	Z, r8
    6979:	80 0c       	add	r8, r0
    697b:	80 0c       	add	r8, r0

0000697d <UserLink>:
    697d:	d8 73       	andi	r29, 0x38	; 56
    697f:	03 74       	andi	r16, 0x43	; 67
    6981:	69 62       	ori	r22, 0x29	; 41
    6983:	66 69       	ori	r22, 0x96	; 150
    6985:	7f 69       	ori	r23, 0x9F	; 159

00006987 <UserTIB>:
    6987:	3d 80       	ldd	r3, Y+5	; 0x05
    6989:	00 05       	cpc	r16, r0
    698b:	77 69       	ori	r23, 0x97	; 151
    698d:	64 74       	andi	r22, 0x44	; 68
    698f:	68 7f       	andi	r22, 0xF8	; 248
    6991:	69 8a       	std	Y+17, r6	; 0x11
    6993:	69 3d       	cpi	r22, 0xD9	; 217

00006994 <UserWidth>:
    6994:	3d 80       	ldd	r3, Y+5	; 0x05
    6996:	02 07       	cpc	r16, r18
    6998:	77 61       	ori	r23, 0x17	; 23
    699a:	72 6e       	ori	r23, 0xE2	; 226
    699c:	69 6e       	ori	r22, 0xE9	; 233
    699e:	67 8a       	std	Z+23, r6	; 0x17
    69a0:	69 97       	sbiw	r28, 0x19	; 25
    69a2:	69 3d       	cpi	r22, 0xD9	; 217

000069a3 <UserWarning>:
    69a3:	3d 80       	ldd	r3, Y+5	; 0x05
    69a5:	04 02       	muls	r16, r20
    69a7:	64 70       	andi	r22, 0x04	; 4
    69a9:	97 69       	ori	r25, 0x97	; 151
    69ab:	a6 69       	ori	r26, 0x96	; 150

000069ad <UserDP>:
    69ad:	3d 80       	ldd	r3, Y+5	; 0x05
    69af:	06 07       	cpc	r16, r22
    69b1:	63 6f       	ori	r22, 0xF3	; 243
    69b3:	6e 74       	andi	r22, 0x4E	; 78
    69b5:	65 78       	andi	r22, 0x85	; 133
    69b7:	74 a6       	std	Z+44, r7	; 0x2c
    69b9:	69 b0       	in	r6, 0x09	; 9
    69bb:	69 3d       	cpi	r22, 0xD9	; 217

000069bc <UserContext>:
    69bc:	3d 80       	ldd	r3, Y+5	; 0x05
    69be:	08 07       	cpc	r16, r24
    69c0:	63 75       	andi	r22, 0x53	; 83
    69c2:	72 72       	andi	r23, 0x22	; 34
    69c4:	65 6e       	ori	r22, 0xE5	; 229
    69c6:	74 b0       	in	r7, 0x04	; 4
    69c8:	69 bf       	out	0x39, r22	; 57
    69ca:	69 3d       	cpi	r22, 0xD9	; 217

000069cb <UserCurrent>:
    69cb:	3d 80       	ldd	r3, Y+5	; 0x05
    69cd:	0a 02       	muls	r16, r26
    69cf:	69 6e       	ori	r22, 0xE9	; 233
    69d1:	bf 69       	ori	r27, 0x9F	; 159
    69d3:	ce 69       	ori	r28, 0x9E	; 158

000069d5 <UserIN>:
    69d5:	3d 80       	ldd	r3, Y+5	; 0x05
    69d7:	12 03       	mulsu	r17, r18
    69d9:	6f 75       	andi	r22, 0x5F	; 95
    69db:	74 ce       	rjmp	.-792    	; 0x66c5 <ByteCodeMinus>
    69dd:	69 d8       	rcall	.-3886   	; 0x5ab1 <__data_load_end+0x26c7>
    69df:	69 3d       	cpi	r22, 0xD9	; 217

000069e0 <UserOUT>:
    69e0:	3d 80       	ldd	r3, Y+5	; 0x05
    69e2:	14 05       	cpc	r17, r4
    69e4:	73 74       	andi	r23, 0x43	; 67
    69e6:	61 74       	andi	r22, 0x41	; 65
    69e8:	65 d8       	rcall	.-3894   	; 0x5ab4 <__data_load_end+0x26ca>
    69ea:	69 e3       	ldi	r22, 0x39	; 57
    69ec:	69 3d       	cpi	r22, 0xD9	; 217

000069ed <UserState>:
    69ed:	3d 80       	ldd	r3, Y+5	; 0x05
    69ef:	16 04       	cpc	r1, r6
    69f1:	62 61       	ori	r22, 0x12	; 18
    69f3:	73 65       	ori	r23, 0x53	; 83
    69f5:	e3 69       	ori	r30, 0x93	; 147
    69f7:	f0 69       	ori	r31, 0x90	; 144

000069f9 <UserBase>:
    69f9:	3d 80       	ldd	r3, Y+5	; 0x05
    69fb:	18 03       	fmul	r17, r16
    69fd:	64 70       	andi	r22, 0x04	; 4
    69ff:	6c f0       	brlt	.+26     	; 0x6a1b <UserHLD+0x1>
    6a01:	69 fc       	.word	0xfc69	; ????
    6a03:	69 3d       	cpi	r22, 0xD9	; 217

00006a04 <UserDPL>:
    6a04:	3d 80       	ldd	r3, Y+5	; 0x05
    6a06:	1a 03       	fmul	r17, r18
    6a08:	66 6c       	ori	r22, 0xC6	; 198
    6a0a:	64 fc       	sbrc	r6, 4
    6a0c:	69 07       	cpc	r22, r25
    6a0e:	6a 3d       	cpi	r22, 0xDA	; 218

00006a0f <UserFLD>:
    6a0f:	3d 80       	ldd	r3, Y+5	; 0x05
    6a11:	1c 03       	fmul	r17, r20
    6a13:	68 6c       	ori	r22, 0xC8	; 200
    6a15:	64 07       	cpc	r22, r20
    6a17:	6a 12       	cpse	r6, r26
    6a19:	6a 3d       	cpi	r22, 0xDA	; 218

00006a1a <UserHLD>:
    6a1a:	3d 80       	ldd	r3, Y+5	; 0x05
    6a1c:	1e 04       	cpc	r1, r14
    6a1e:	62 6c       	ori	r22, 0xC2	; 194
    6a20:	6b 23       	and	r22, r27
    6a22:	12 6a       	ori	r17, 0xA2	; 162
    6a24:	1d 6a       	ori	r17, 0xAD	; 173

00006a26 <CurrBlock>:
    6a26:	3d 80       	ldd	r3, Y+5	; 0x05
    6a28:	20 02       	muls	r18, r16
    6a2a:	2b 21       	and	r18, r11
    6a2c:	1d 6a       	ori	r17, 0xAD	; 173
    6a2e:	29 6a       	ori	r18, 0xA9	; 169

00006a30 <PlusPling>:
    6a30:	1b 1a       	sub	r1, r27
    6a32:	1d 16       	cp	r1, r29
    6a34:	1b 20       	and	r1, r11
    6a36:	2e 06       	cpc	r2, r30
    6a38:	74 6f       	ori	r23, 0xF4	; 244
    6a3a:	67 67       	ori	r22, 0x77	; 119
    6a3c:	6c 65       	ori	r22, 0x5C	; 92
    6a3e:	29 6a       	ori	r18, 0xA9	; 169
    6a40:	37 6a       	ori	r19, 0xA7	; 167

00006a42 <Toggle>:
    6a42:	1a 1e       	adc	r1, r26
    6a44:	0e 1b       	sub	r16, r30
    6a46:	1f 2e       	mov	r1, r31
    6a48:	02 32       	cpi	r16, 0x22	; 34
    6a4a:	2b 37       	cpi	r18, 0x7B	; 123
    6a4c:	6a 48       	sbci	r22, 0x8A	; 138
    6a4e:	6a 0a       	sbc	r6, r26

00006a4f <TwoPlus>:
    6a4f:	0a 69       	ori	r16, 0x9A	; 154
    6a51:	16 2e       	mov	r1, r22
    6a53:	04 68       	ori	r16, 0x84	; 132
    6a55:	65 72       	andi	r22, 0x25	; 37
    6a57:	65 48       	sbci	r22, 0x85	; 133
    6a59:	6a 53       	subi	r22, 0x3A	; 58
    6a5b:	6a ad       	ldd	r22, Y+58	; 0x3a

00006a5c <Here>:
    6a5c:	ad 69       	ori	r26, 0x9D	; 157
    6a5e:	1d 2e       	mov	r1, r29
    6a60:	05 61       	ori	r16, 0x15	; 21
    6a62:	6c 6c       	ori	r22, 0xCC	; 204
    6a64:	6f 74       	andi	r22, 0x4F	; 79
    6a66:	53 6a       	ori	r21, 0xA3	; 163
    6a68:	60 6a       	ori	r22, 0xA0	; 160

00006a6a <Allot>:
    6a6a:	ad 69       	ori	r26, 0x9D	; 157
    6a6c:	30 6a       	ori	r19, 0xA0	; 160
    6a6e:	2e 01       	movw	r4, r28
    6a70:	2c 60       	ori	r18, 0x0C	; 12
    6a72:	6a 6f       	ori	r22, 0xFA	; 250
    6a74:	6a 5c       	subi	r22, 0xCA	; 202

00006a75 <Comma>:
    6a75:	5c 6a       	ori	r21, 0xAC	; 172
    6a77:	20 0a       	sbc	r2, r16
    6a79:	69 6a       	ori	r22, 0xA9	; 169
    6a7b:	6a 2e       	mov	r6, r26
    6a7d:	02 63       	ori	r16, 0x32	; 50
    6a7f:	2c 6f       	ori	r18, 0xFC	; 252
    6a81:	6a 7d       	andi	r22, 0xDA	; 218
    6a83:	6a 5c       	subi	r22, 0xCA	; 202

00006a84 <CComma>:
    6a84:	5c 6a       	ori	r21, 0xAC	; 172
    6a86:	1f 01       	movw	r2, r30
    6a88:	69 6a       	ori	r22, 0xA9	; 169
    6a8a:	6a 2e       	mov	r6, r26
    6a8c:	01 2d       	mov	r16, r1
    6a8e:	7d 6a       	ori	r23, 0xAD	; 173
    6a90:	8c 6a       	ori	r24, 0xAC	; 172

00006a92 <Subtract>:
    6a92:	18 16       	cp	r1, r24
    6a94:	2e 01       	movw	r4, r28
    6a96:	3d 8c       	ldd	r3, Y+29	; 0x1d
    6a98:	6a 95       	dec	r22
    6a9a:	6a 92       	st	-Y, r6

00006a9b <Equals>:
    6a9b:	92 6a       	ori	r25, 0xA2	; 162
    6a9d:	14 2e       	mov	r1, r20
    6a9f:	01 3c       	cpi	r16, 0xC1	; 193
    6aa1:	95 6a       	ori	r25, 0xA5	; 165
    6aa3:	9f 6a       	ori	r25, 0xAF	; 175

00006aa5 <LessThan>:
    6aa5:	92 6a       	ori	r25, 0xA2	; 162
    6aa7:	15 00       	.word	0x0015	; ????
    6aa9:	2e 00       	.word	0x002e	; ????
    6aab:	01 3e       	cpi	r16, 0xE1	; 225
    6aad:	9f 6a       	ori	r25, 0xAF	; 175
    6aaf:	ab 6a       	ori	r26, 0xAB	; 171

00006ab1 <GreaterThan>:
    6ab1:	1b a5       	ldd	r17, Y+43	; 0x2b
    6ab3:	6a 2e       	mov	r6, r26
    6ab5:	03 72       	andi	r16, 0x23	; 35
    6ab7:	6f 74       	andi	r22, 0x4F	; 79
    6ab9:	ab 6a       	ori	r26, 0xAB	; 171
    6abb:	b5 6a       	ori	r27, 0xA5	; 165

00006abd <Rot>:
    6abd:	13 1b       	sub	r17, r19
    6abf:	11 1b       	sub	r17, r17
    6ac1:	2e 04       	cpc	r2, r14
    6ac3:	32 64       	ori	r19, 0x42	; 66
    6ac5:	75 70       	andi	r23, 0x05	; 5
    6ac7:	b5 6a       	ori	r27, 0xA5	; 165
    6ac9:	c2 6a       	ori	r28, 0xA2	; 162

00006acb <TwoDup>:
    6acb:	1a 1a       	sub	r1, r26
    6acd:	2e 03       	fmul	r18, r22
    6acf:	6e 69       	ori	r22, 0x9E	; 158
    6ad1:	70 c2       	rjmp	.+1248   	; 0x6fb3 <Quit0+0x2>
    6ad3:	6a ce       	rjmp	.-812    	; 0x67a9 <ByteCodeCls+0x2>
    6ad5:	6a 1b       	sub	r22, r26

00006ad6 <Nip>:
    6ad6:	1b 03       	fmul	r17, r19
    6ad8:	2e 04       	cpc	r2, r14
    6ada:	3f 64       	ori	r19, 0x4F	; 79
    6adc:	75 70       	andi	r23, 0x05	; 5
    6ade:	ce 6a       	ori	r28, 0xAE	; 174
    6ae0:	d9 6a       	ori	r29, 0xA9	; 169

00006ae2 <QryDupe>:
    6ae2:	1c 04       	cpc	r1, r12
    6ae4:	e7 6a       	ori	r30, 0xA7	; 167
    6ae6:	1c 2e       	mov	r1, r28

00006ae7 <QryDupe1>:
    6ae7:	2e 02       	muls	r18, r30
    6ae9:	75 3c       	cpi	r23, 0xC5	; 197
    6aeb:	d9 6a       	ori	r29, 0xA9	; 169
    6aed:	e8 6a       	ori	r30, 0xA8	; 168

00006aef <ULess>:
    6aef:	cb 6a       	ori	r28, 0xAB	; 171
    6af1:	0e 15       	cp	r16, r14
    6af3:	04 fa       	bst	r0, 4
    6af5:	6a 1b       	sub	r22, r26
    6af7:	03 15       	cp	r16, r3
    6af9:	2e 92       	st	-X, r2

00006afa <ULES1>:
    6afa:	92 6a       	ori	r25, 0xA2	; 162
    6afc:	15 2e       	mov	r1, r21
    6afe:	06 6c       	ori	r16, 0xC6	; 198
    6b00:	61 74       	andi	r22, 0x41	; 65
    6b02:	65 73       	andi	r22, 0x35	; 53
    6b04:	74 e8       	ldi	r23, 0x84	; 132
    6b06:	6a fe       	.word	0xfe6a	; ????
    6b08:	6a cb       	rjmp	.-2348   	; 0x61de <__data_load_end+0x2df4>

00006b09 <Latest>:
    6b09:	cb 69       	ori	r28, 0x9B	; 155
    6b0b:	1d 1d       	adc	r17, r13
    6b0d:	2e 07       	cpc	r18, r30
    6b0f:	70 66       	ori	r23, 0x60	; 96
    6b11:	61 3e       	cpi	r22, 0xE1	; 225
    6b13:	63 66       	ori	r22, 0x63	; 99
    6b15:	61 fe       	sbrs	r6, 1
    6b17:	6a 0e       	add	r6, r26
    6b19:	6b 1c       	adc	r6, r11

00006b1a <PFA2CFA>:
    6b1a:	1c 33       	cpi	r17, 0x3C	; 60
    6b1c:	6b 1e       	adc	r6, r27
    6b1e:	01 00       	.word	0x0001	; ????
    6b20:	80 0c       	add	r8, r0
    6b22:	04 26       	eor	r0, r20
    6b24:	6b 1e       	adc	r6, r27

00006b26 <PFA2CFA01>:
    6b26:	2e 07       	cpc	r18, r30
    6b28:	70 66       	ori	r23, 0x60	; 96
    6b2a:	61 3e       	cpi	r22, 0xE1	; 225
    6b2c:	6e 66       	ori	r22, 0x6E	; 110
    6b2e:	61 0e       	add	r6, r17
    6b30:	6b 27       	eor	r22, r27
    6b32:	6b 0a       	sbc	r6, r27

00006b33 <PFA2NFA>:
    6b33:	0a 69       	ori	r16, 0x9A	; 154
    6b35:	92 6a       	ori	r25, 0xA2	; 162
    6b37:	1d 2e       	mov	r1, r29
    6b39:	07 6e       	ori	r16, 0xE7	; 231
    6b3b:	66 61       	ori	r22, 0x16	; 22
    6b3d:	3e 6c       	ori	r19, 0xCE	; 206
    6b3f:	66 61       	ori	r22, 0x16	; 22
    6b41:	27 6b       	ori	r18, 0xB7	; 183
    6b43:	39 6b       	ori	r19, 0xB9	; 185

00006b45 <NFA2LFA>:
    6b45:	1c 1e       	adc	r1, r28
    6b47:	01 00       	.word	0x0001	; ????
    6b49:	1f 0c       	add	r1, r15
    6b4b:	16 22       	and	r1, r22
    6b4d:	2e 07       	cpc	r18, r30
    6b4f:	6e 66       	ori	r22, 0x6E	; 110
    6b51:	61 3e       	cpi	r22, 0xE1	; 225
    6b53:	70 66       	ori	r23, 0x60	; 96
    6b55:	61 39       	cpi	r22, 0x91	; 145
    6b57:	6b 4e       	sbci	r22, 0xEB	; 235
    6b59:	6b 45       	sbci	r22, 0x5B	; 91

00006b5a <NFA2PFA>:
    6b5a:	45 6b       	ori	r20, 0xB5	; 181
    6b5c:	01 00       	.word	0x0001	; ????
    6b5e:	04 16       	cp	r0, r20
    6b60:	2e 03       	fmul	r18, r22
    6b62:	69 64       	ori	r22, 0x49	; 73
    6b64:	2e 4e       	sbci	r18, 0xEE	; 238
    6b66:	6b 61       	ori	r22, 0x1B	; 27
    6b68:	6b 1c       	adc	r6, r11

00006b69 <IdDot>:
    6b69:	1c 22       	and	r1, r28
    6b6b:	1b 1e       	adc	r1, r27
    6b6d:	01 00       	.word	0x0001	; ????
    6b6f:	1f 0c       	add	r1, r15
    6b71:	2e 68       	ori	r18, 0x8E	; 142
    6b73:	4c 68       	ori	r20, 0x8C	; 140
    6b75:	2e 07       	cpc	r18, r30
    6b77:	6d 65       	ori	r22, 0x5D	; 93
    6b79:	73 73       	andi	r23, 0x33	; 51
    6b7b:	61 67       	ori	r22, 0x71	; 113
    6b7d:	65 61       	ori	r22, 0x15	; 21
    6b7f:	6b 76       	andi	r22, 0x6B	; 107
    6b81:	6b 76       	andi	r22, 0x6B	; 107

00006b82 <Message>:
    6b82:	76 68       	ori	r23, 0x86	; 134
    6b84:	06 45       	sbci	r16, 0x56	; 86
    6b86:	72 72       	andi	r23, 0x22	; 34
    6b88:	20 23       	and	r18, r16
    6b8a:	20 e9       	ldi	r18, 0x90	; 144
    6b8c:	72 2e       	mov	r7, r18
    6b8e:	05 65       	ori	r16, 0x55	; 85
    6b90:	72 72       	andi	r23, 0x22	; 34
    6b92:	6f 72       	andi	r22, 0x2F	; 47
    6b94:	76 6b       	ori	r23, 0xB6	; 182
    6b96:	8e 6b       	ori	r24, 0xBE	; 190

00006b98 <Error>:
    6b98:	a3 69       	ori	r26, 0x93	; 147
    6b9a:	1d 15       	cp	r17, r13
    6b9c:	04 a1       	ldd	r16, Z+36	; 0x24
    6b9e:	6b d1       	rcall	.+726    	; 0x6e76 <Create+0x9>
    6ba0:	6f 5c       	subi	r22, 0xCF	; 207

00006ba1 <Error1>:
    6ba1:	5c 6a       	ori	r21, 0xAC	; 172
    6ba3:	20 68       	ori	r18, 0x80	; 128
    6ba5:	2e 68       	ori	r18, 0x8E	; 142
    6ba7:	76 68       	ori	r23, 0x86	; 134
    6ba9:	02 3f       	cpi	r16, 0xF2	; 242
    6bab:	20 82       	st	Z, r2
    6bad:	6b af       	std	Y+59, r22	; 0x3b
    6baf:	6f 06       	cpc	r6, r31
    6bb1:	3f 65       	ori	r19, 0x5F	; 95
    6bb3:	72 72       	andi	r23, 0x22	; 34
    6bb5:	6f 72       	andi	r22, 0x2F	; 47
    6bb7:	8e 6b       	ori	r24, 0xBE	; 190
    6bb9:	b0 6b       	ori	r27, 0xB0	; 176

00006bbb <QryError>:
    6bbb:	1b 04       	cpc	r1, r11
    6bbd:	c1 6b       	ori	r28, 0xB1	; 177
    6bbf:	98 6b       	ori	r25, 0xB8	; 184

00006bc1 <QryError1>:
    6bc1:	03 2e       	mov	r0, r19
    6bc3:	05 3f       	cpi	r16, 0xF5	; 245
    6bc5:	63 6f       	ori	r22, 0xF3	; 243
    6bc7:	6d 70       	andi	r22, 0x0D	; 13
    6bc9:	b0 6b       	ori	r27, 0xB0	; 176
    6bcb:	c3 6b       	ori	r28, 0xB3	; 179

00006bcd <QryComp>:
    6bcd:	ed 69       	ori	r30, 0x9D	; 157
    6bcf:	1d 14       	cp	r1, r13
    6bd1:	01 00       	.word	0x0001	; ????
    6bd3:	11 bb       	out	0x11, r17	; 17
    6bd5:	6b 2e       	mov	r6, r27
    6bd7:	05 3f       	cpi	r16, 0xF5	; 245
    6bd9:	65 78       	andi	r22, 0x85	; 133
    6bdb:	65 63       	ori	r22, 0x35	; 53
    6bdd:	c3 6b       	ori	r28, 0xB3	; 179
    6bdf:	d7 6b       	ori	r29, 0xB7	; 183

00006be1 <QryExec>:
    6be1:	ed 69       	ori	r30, 0x9D	; 157
    6be3:	1d 01       	movw	r2, r26
    6be5:	00 12       	cpse	r0, r16
    6be7:	bb 6b       	ori	r27, 0xBB	; 187
    6be9:	2e 06       	cpc	r2, r30
    6beb:	3f 70       	andi	r19, 0x0F	; 15
    6bed:	61 69       	ori	r22, 0x91	; 145
    6bef:	72 73       	andi	r23, 0x32	; 50
    6bf1:	d7 6b       	ori	r29, 0xB7	; 183
    6bf3:	ea 6b       	ori	r30, 0xBA	; 186

00006bf5 <QryPairs>:
    6bf5:	92 6a       	ori	r25, 0xA2	; 162
    6bf7:	01 00       	.word	0x0001	; ????
    6bf9:	13 bb       	out	0x13, r17	; 19
    6bfb:	6b 2e       	mov	r6, r27
    6bfd:	41 3a       	cpi	r20, 0xA1	; 161
    6bff:	ea 6b       	ori	r30, 0xBA	; 186
    6c01:	fd 6b       	ori	r31, 0xBD	; 189

00006c03 <Colon>:
    6c03:	e1 6b       	ori	r30, 0xB1	; 177
    6c05:	6d 6e       	ori	r22, 0xED	; 237
    6c07:	6f 6c       	ori	r22, 0xCF	; 207
    6c09:	2e 41       	sbci	r18, 0x1E	; 30
    6c0b:	3b fd       	.word	0xfd3b	; ????
    6c0d:	6b 0a       	sbc	r6, r27
    6c0f:	6c 52       	subi	r22, 0x2C	; 44

00006c10 <Semi>:
    6c10:	52 6c       	ori	r21, 0xC2	; 194
    6c12:	00 2e       	mov	r0, r16
    6c14:	81 6c       	ori	r24, 0xC1	; 193
    6c16:	63 6c       	ori	r22, 0xC3	; 195
    6c18:	2e 09       	sbc	r18, r14
    6c1a:	69 6d       	ori	r22, 0xD9	; 217
    6c1c:	6d 65       	ori	r22, 0x5D	; 93
    6c1e:	64 69       	ori	r22, 0x94	; 148
    6c20:	61 74       	andi	r22, 0x41	; 65
    6c22:	65 0a       	sbc	r6, r21
    6c24:	6c 19       	sub	r22, r12
    6c26:	6c 09       	sbc	r22, r12

00006c27 <Immediate>:
    6c27:	09 6b       	ori	r16, 0xB9	; 185
    6c29:	01 00       	.word	0x0001	; ????
    6c2b:	40 42       	sbci	r20, 0x20	; 32
    6c2d:	6a 2e       	mov	r6, r26
    6c2f:	02 78       	andi	r16, 0x82	; 130
    6c31:	2c 19       	sub	r18, r12
    6c33:	6c 2f       	mov	r22, r28
    6c35:	6c 1c       	adc	r6, r12

00006c36 <XComma>:
    6c36:	1c 01       	movw	r2, r24
    6c38:	ff 00       	.word	0x00ff	; ????
    6c3a:	0c 04       	cpc	r0, r12
    6c3c:	43 6c       	ori	r20, 0xC3	; 195
    6c3e:	75 6a       	ori	r23, 0xA5	; 165
    6c40:	05 45       	sbci	r16, 0x55	; 85
    6c42:	6c 84       	ldd	r6, Y+12	; 0x0c

00006c43 <XComma01>:
    6c43:	84 6a       	ori	r24, 0xA4	; 164

00006c45 <XComma02>:
    6c45:	2e 07       	cpc	r18, r30
    6c47:	63 6f       	ori	r22, 0xF3	; 243
    6c49:	6d 70       	andi	r22, 0x0D	; 13
    6c4b:	69 6c       	ori	r22, 0xC9	; 201
    6c4d:	65 2f       	mov	r22, r21
    6c4f:	6c 46       	sbci	r22, 0x6C	; 108
    6c51:	6c cd       	rjmp	.-1320   	; 0x672b <ByteCodeUDIV+0x5>

00006c52 <Compile>:
    6c52:	cd 6b       	ori	r28, 0xBD	; 189
    6c54:	11 1c       	adc	r1, r1
    6c56:	1d 36       	cpi	r17, 0x6D	; 109
    6c58:	6c 4f       	sbci	r22, 0xFC	; 252
    6c5a:	6a 13       	cpse	r22, r26
    6c5c:	2e 41       	sbci	r18, 0x1E	; 30
    6c5e:	5b 46       	sbci	r21, 0x6B	; 107
    6c60:	6c 5d       	subi	r22, 0xDC	; 220
    6c62:	6c f8       	.word	0xf86c	; ????

00006c63 <SquareOpen>:
    6c63:	f8 68       	ori	r31, 0x88	; 136
    6c65:	ed 69       	ori	r30, 0x9D	; 157
    6c67:	20 2e       	mov	r2, r16
    6c69:	01 5d       	subi	r16, 0xD1	; 209
    6c6b:	5d 6c       	ori	r21, 0xCD	; 205
    6c6d:	69 6c       	ori	r22, 0xC9	; 201

00006c6f <SquareClose>:
    6c6f:	01 00       	.word	0x0001	; ????
    6c71:	40 ed       	ldi	r20, 0xD0	; 208
    6c73:	69 20       	and	r6, r9
    6c75:	2e 06       	cpc	r2, r30
    6c77:	73 6d       	ori	r23, 0xD3	; 211
    6c79:	75 64       	ori	r23, 0x45	; 69
    6c7b:	67 65       	ori	r22, 0x57	; 87
    6c7d:	69 6c       	ori	r22, 0xC9	; 201
    6c7f:	76 6c       	ori	r23, 0xC6	; 198

00006c81 <Smudge>:
    6c81:	09 6b       	ori	r16, 0xB9	; 185
    6c83:	01 00       	.word	0x0001	; ????
    6c85:	20 42       	sbci	r18, 0x20	; 32
    6c87:	6a 2e       	mov	r6, r26
    6c89:	07 3c       	cpi	r16, 0xC7	; 199
    6c8b:	62 75       	andi	r22, 0x52	; 82
    6c8d:	69 6c       	ori	r22, 0xC9	; 201
    6c8f:	64 73       	andi	r22, 0x34	; 52
    6c91:	76 6c       	ori	r23, 0xC6	; 198
    6c93:	89 6c       	ori	r24, 0xC9	; 201

00006c95 <Builds>:
    6c95:	6d 6e       	ori	r22, 0xED	; 237
    6c97:	81 6c       	ori	r24, 0xC1	; 193
    6c99:	f8 68       	ori	r31, 0x88	; 136
    6c9b:	75 6a       	ori	r23, 0xA5	; 165
    6c9d:	2e 45       	sbci	r18, 0x5E	; 94
    6c9f:	64 6f       	ori	r22, 0xF4	; 244
    6ca1:	65 73       	andi	r22, 0x35	; 53
    6ca3:	3e 89       	ldd	r19, Y+22	; 0x16
    6ca5:	6c 9e       	mul	r6, r28
    6ca7:	6c 01       	movw	r12, r24

00006ca8 <Does>:
    6ca8:	01 b3       	in	r16, 0x11	; 17
    6caa:	6c 75       	andi	r22, 0x5C	; 92
    6cac:	6a 01       	movw	r12, r20
    6cae:	00 10       	cpse	r0, r0
    6cb0:	84 6a       	ori	r24, 0xA4	; 164
    6cb2:	2e 11       	cpse	r18, r14

00006cb3 <Does01>:
    6cb3:	11 09       	sbc	r17, r1
    6cb5:	6b 5a       	subi	r22, 0xAB	; 171
    6cb7:	6b 20       	and	r6, r11
    6cb9:	2e 41       	sbci	r18, 0x1E	; 30
    6cbb:	28 9e       	mul	r2, r24
    6cbd:	6c ba       	out	0x1c, r6	; 28
    6cbf:	6c 01       	movw	r12, r24

00006cc0 <RoundOpen>:
    6cc0:	01 00       	.word	0x0001	; ????
    6cc2:	29 df       	rcall	.-430    	; 0x6b16 <Latest+0xd>
    6cc4:	6d 2e       	mov	r6, r29
    6cc6:	03 68       	ori	r16, 0x83	; 131
    6cc8:	65 78       	andi	r22, 0x85	; 133
    6cca:	ba 6c       	ori	r27, 0xCA	; 202
    6ccc:	c6 6c       	ori	r28, 0xC6	; 198

00006cce <Hex>:
    6cce:	01 00       	.word	0x0001	; ????
    6cd0:	10 f9       	bld	r17, 0
    6cd2:	69 20       	and	r6, r9
    6cd4:	2e 07       	cpc	r18, r30
    6cd6:	64 65       	ori	r22, 0x54	; 84
    6cd8:	63 69       	ori	r22, 0x93	; 147
    6cda:	6d 61       	ori	r22, 0x1D	; 29
    6cdc:	6c c6       	rjmp	.+3288   	; 0x79b6 <List+0x5d5>
    6cde:	6c d5       	rcall	.+2776   	; 0x77b8 <List+0x3d7>
    6ce0:	6c 01       	movw	r12, r24

00006ce1 <Decimal>:
    6ce1:	01 00       	.word	0x0001	; ????
    6ce3:	0a f9       	.word	0xf90a	; ????
    6ce5:	69 20       	and	r6, r9
    6ce7:	2e 05       	cpc	r18, r14
    6ce9:	64 69       	ori	r22, 0x94	; 148
    6ceb:	67 69       	ori	r22, 0x97	; 151
    6ced:	74 d5       	rcall	.+2792   	; 0x77d7 <List+0x3f6>
    6cef:	6c e8       	ldi	r22, 0x8C	; 140
    6cf1:	6c 13       	cpse	r22, r28

00006cf2 <Digit>:
    6cf2:	13 01       	movw	r2, r6
    6cf4:	00 30       	cpi	r16, 0x00	; 0
    6cf6:	92 6a       	ori	r25, 0xA2	; 162
    6cf8:	01 00       	.word	0x0001	; ????
    6cfa:	09 1a       	sub	r0, r25
    6cfc:	a5 6a       	ori	r26, 0xA5	; 165
    6cfe:	04 0d       	add	r16, r4
    6d00:	6d 01       	movw	r12, r26
    6d02:	00 07       	cpc	r16, r16
    6d04:	92 6a       	ori	r25, 0xA2	; 162
    6d06:	1c 01       	movw	r2, r24
    6d08:	00 0a       	sbc	r0, r16
    6d0a:	a5 6a       	ori	r26, 0xA5	; 165
    6d0c:	0d 1c       	adc	r0, r13

00006d0d <DGTQ1>:
    6d0d:	1c 11       	cpse	r17, r12
    6d0f:	ef 6a       	ori	r30, 0xAF	; 175
    6d11:	2e 08       	sbc	r2, r14
    6d13:	28 6e       	ori	r18, 0xE8	; 232
    6d15:	75 6d       	ori	r23, 0xD5	; 213
    6d17:	62 65       	ori	r22, 0x52	; 82
    6d19:	72 29       	or	r23, r2
    6d1b:	e8 6c       	ori	r30, 0xC8	; 200
    6d1d:	12 6d       	ori	r17, 0xD2	; 210

00006d1f <_Number>:
    6d1f:	22 1c       	adc	r2, r2
    6d21:	13 1e       	adc	r1, r19
    6d23:	f9 69       	ori	r31, 0x99	; 153
    6d25:	1d f2       	brhs	.-122    	; 0x6cad <Does+0x5>
    6d27:	6c 04       	cpc	r6, r12
    6d29:	49 6d       	ori	r20, 0xD9	; 217
    6d2b:	1b f9       	.word	0xf91b	; ????
    6d2d:	69 1d       	adc	r22, r9
    6d2f:	09 03       	fmul	r16, r17
    6d31:	bd 6a       	ori	r27, 0xAD	; 173
    6d33:	f9 69       	ori	r31, 0x99	; 153
    6d35:	1d 09       	sbc	r17, r13
    6d37:	17 04       	cpc	r1, r7
    6d39:	6a 1d       	adc	r22, r10
    6d3b:	22 04       	cpc	r2, r2
    6d3d:	45 6d       	ori	r20, 0xD5	; 213
    6d3f:	01 69       	ori	r16, 0x91	; 145
    6d41:	04 6a       	ori	r16, 0xA4	; 164
    6d43:	30 6a       	ori	r19, 0xA0	; 160

00006d45 <_Number1>:
    6d45:	11 05       	cpc	r17, r1
    6d47:	1f 6d       	ori	r17, 0xDF	; 223

00006d49 <_Number2>:
    6d49:	03 11       	cpse	r16, r3
    6d4b:	2e 06       	cpc	r2, r30
    6d4d:	6e 75       	andi	r22, 0x5E	; 94
    6d4f:	6d 62       	ori	r22, 0x2D	; 45
    6d51:	65 72       	andi	r22, 0x25	; 37
    6d53:	12 6d       	ori	r17, 0xD2	; 210
    6d55:	4c 6d       	ori	r20, 0xDC	; 220

00006d57 <Number>:
    6d57:	f8 68       	ori	r31, 0x88	; 136
    6d59:	f8 68       	ori	r31, 0x88	; 136
    6d5b:	bd 6a       	ori	r27, 0xAD	; 173
    6d5d:	1c 22       	and	r1, r28
    6d5f:	1e 01       	movw	r2, r28
    6d61:	00 2d       	mov	r16, r0
    6d63:	9b 6a       	ori	r25, 0xAB	; 171
    6d65:	1c 13       	cpse	r17, r28
    6d67:	92 6a       	ori	r25, 0xA2	; 162
    6d69:	01 ff       	sbrs	r16, 1
    6d6b:	ff 04       	cpc	r15, r15

00006d6c <Number0>:
    6d6c:	04 6a       	ori	r16, 0xA4	; 164
    6d6e:	20 1f       	adc	r18, r16
    6d70:	6d 1c       	adc	r6, r13
    6d72:	1e 1d       	adc	r17, r14
    6d74:	69 92       	st	Y+, r6
    6d76:	6a 04       	cpc	r6, r10
    6d78:	8a 6d       	ori	r24, 0xDA	; 218
    6d7a:	1c 1e       	adc	r1, r28
    6d7c:	01 00       	.word	0x0001	; ????
    6d7e:	3a 92       	st	-Y, r3
    6d80:	6a f8       	.word	0xf86a	; ????
    6d82:	68 bb       	out	0x18, r22	; 24
    6d84:	6b f8       	.word	0xf86b	; ????
    6d86:	68 05       	cpc	r22, r8
    6d88:	6c 6d       	ori	r22, 0xDC	; 220

00006d8a <Number1>:
    6d8a:	03 11       	cpse	r16, r3
    6d8c:	04 90       	lpm	r0, Z+
    6d8e:	6d 19       	sub	r22, r13

00006d90 <Number2>:
    6d90:	2e 07       	cpc	r18, r30
    6d92:	65 6e       	ori	r22, 0xE5	; 229
    6d94:	63 6c       	ori	r22, 0xC3	; 195
    6d96:	6f 73       	andi	r22, 0x3F	; 63
    6d98:	65 4c       	sbci	r22, 0xC5	; 197
    6d9a:	6d 91       	ld	r22, X+
    6d9c:	6d 13       	cpse	r22, r29

00006d9d <Enclose>:
    6d9d:	13 1c       	adc	r1, r3
    6d9f:	1c 1c       	adc	r1, r12

00006da0 <Enclose1>:
    6da0:	1c 1e       	adc	r1, r28
    6da2:	1d 69       	ori	r17, 0x9D	; 157
    6da4:	9b 6a       	ori	r25, 0xAB	; 171
    6da6:	04 ad       	ldd	r16, Z+60	; 0x3c
    6da8:	6d 22       	and	r6, r29
    6daa:	05 a0       	ldd	r0, Z+37	; 0x25
    6dac:	6d cb       	rjmp	.-2342   	; 0x6488 <__data_load_end+0x309e>

00006dad <Enclose2>:
    6dad:	cb 6a       	ori	r28, 0xAB	; 171
    6daf:	1b 92       	.word	0x921b	; ????
    6db1:	6a bd       	out	0x2a, r22	; 42
    6db3:	6a bd       	out	0x2a, r22	; 42
    6db5:	6a 1c       	adc	r6, r10

00006db6 <Enclose3>:
    6db6:	1c 1e       	adc	r1, r28
    6db8:	04 c7       	rjmp	.+3592   	; 0x7bc2 <List+0x7e1>
    6dba:	6d 1c       	adc	r6, r13
    6dbc:	1e 12       	cpse	r1, r30
    6dbe:	92 6a       	ori	r25, 0xA2	; 162
    6dc0:	04 ce       	rjmp	.-1016   	; 0x69ca <UserContext+0xe>
    6dc2:	6d 22       	and	r6, r29
    6dc4:	05 b6       	in	r0, 0x35	; 53
    6dc6:	6d 1b       	sub	r22, r29

00006dc7 <Enclose4>:
    6dc7:	1b 92       	.word	0x921b	; ????
    6dc9:	6a 1c       	adc	r6, r10
    6dcb:	11 03       	mulsu	r17, r17
    6dcd:	2e 11       	cpse	r18, r14

00006dce <Enclose5>:
    6dce:	11 03       	mulsu	r17, r17
    6dd0:	1b 92       	.word	0x921b	; ????
    6dd2:	6a 1c       	adc	r6, r10
    6dd4:	22 2e       	mov	r2, r18
    6dd6:	04 77       	andi	r16, 0x74	; 116
    6dd8:	6f 72       	andi	r22, 0x2F	; 47
    6dda:	64 91       	lpm	r22, Z+
    6ddc:	6d d6       	rcall	.+3290   	; 0x7ab8 <List+0x6d7>
    6dde:	6d 87       	std	Y+13, r22	; 0x0d

00006ddf <Werd>:
    6ddf:	87 69       	ori	r24, 0x97	; 151
    6de1:	1d d5       	rcall	.+2618   	; 0x781d <List+0x43c>
    6de3:	69 1d       	adc	r22, r9
    6de5:	16 1b       	sub	r17, r22
    6de7:	9d 6d       	ori	r25, 0xDD	; 221
    6de9:	5c 6a       	ori	r21, 0xAC	; 172
    6deb:	01 00       	.word	0x0001	; ????
    6ded:	22 c2       	rjmp	.+1092   	; 0x7233 <Hold+0xb>
    6def:	68 d5       	rcall	.+2768   	; 0x78c1 <List+0x4e0>
    6df1:	69 30       	cpi	r22, 0x09	; 9
    6df3:	6a 1a       	sub	r6, r26
    6df5:	92 6a       	ori	r25, 0xA2	; 162
    6df7:	13 12       	cpse	r1, r19
    6df9:	5c 6a       	ori	r21, 0xAC	; 172
    6dfb:	1f 16       	cp	r1, r31
    6dfd:	5c 6a       	ori	r21, 0xAC	; 172
    6dff:	22 11       	cpse	r18, r2
    6e01:	37 2e       	mov	r3, r23

00006e03 <FthStrCp>:
    6e03:	13 05       	cpc	r17, r3
    6e05:	0e 6e       	ori	r16, 0xEE	; 238

00006e07 <FthStrCp1>:
    6e07:	11 2f       	mov	r17, r17
    6e09:	13 1b       	sub	r17, r19
    6e0b:	22 1b       	sub	r18, r18
    6e0d:	22 1a       	sub	r2, r18

00006e0e <FthStrCp2>:
    6e0e:	1a 1e       	adc	r1, r26
    6e10:	1a 1e       	adc	r1, r26
    6e12:	92 6a       	ori	r25, 0xA2	; 162
    6e14:	12 14       	cp	r1, r2
    6e16:	0d 04       	cpc	r0, r13
    6e18:	07 6e       	ori	r16, 0xE7	; 231
    6e1a:	03 03       	mulsu	r16, r19
    6e1c:	11 2e       	mov	r1, r17
    6e1e:	05 2d       	mov	r16, r5
    6e20:	66 69       	ori	r22, 0x96	; 150
    6e22:	6e 64       	ori	r22, 0x4E	; 78
    6e24:	d6 6d       	ori	r29, 0xD6	; 214
    6e26:	1e 6e       	ori	r17, 0xEE	; 238

00006e28 <Find>:
    6e28:	1d 69       	ori	r17, 0x9D	; 157
    6e2a:	df 6d       	ori	r29, 0xDF	; 223
    6e2c:	5c 6a       	ori	r21, 0xAC	; 172
    6e2e:	09 6b       	ori	r16, 0xB9	; 185

00006e30 <Find1>:
    6e30:	1a 1e       	adc	r1, r26
    6e32:	1a 1e       	adc	r1, r26
    6e34:	01 00       	.word	0x0001	; ????
    6e36:	2f 0c       	add	r2, r15
    6e38:	9b 6a       	ori	r25, 0xAB	; 171
    6e3a:	04 4d       	sbci	r16, 0xD4	; 212
    6e3c:	6e 1a       	sub	r6, r30
    6e3e:	22 1a       	sub	r2, r18
    6e40:	1c 22       	and	r1, r28
    6e42:	1b 1e       	adc	r1, r27
    6e44:	01 00       	.word	0x0001	; ????
    6e46:	1f 0c       	add	r1, r15
    6e48:	03 6e       	ori	r16, 0xE3	; 227
    6e4a:	04 57       	subi	r16, 0x74	; 116
    6e4c:	6e 45       	sbci	r22, 0x5E	; 94

00006e4d <Find2>:
    6e4d:	45 6b       	ori	r20, 0xB5	; 181
    6e4f:	1d 1c       	adc	r1, r13
    6e51:	04 61       	ori	r16, 0x14	; 20
    6e53:	6e 05       	cpc	r22, r14
    6e55:	30 6e       	ori	r19, 0xE0	; 224

00006e57 <Find3>:
    6e57:	d6 6a       	ori	r29, 0xA6	; 166
    6e59:	1c 5a       	subi	r17, 0xAC	; 172
    6e5b:	6b 1b       	sub	r22, r27
    6e5d:	1e 01       	movw	r2, r28
    6e5f:	ff ff       	.word	0xffff	; ????

00006e61 <Find4>:
    6e61:	2e 06       	cpc	r2, r30
    6e63:	63 72       	andi	r22, 0x23	; 35
    6e65:	65 61       	ori	r22, 0x15	; 21
    6e67:	74 65       	ori	r23, 0x54	; 84
    6e69:	1e 6e       	ori	r17, 0xEE	; 238
    6e6b:	62 6e       	ori	r22, 0xE2	; 226

00006e6d <Create>:
    6e6d:	28 6e       	ori	r18, 0xE8	; 232
    6e6f:	04 80       	ldd	r0, Z+4	; 0x04
    6e71:	6e 03       	fmul	r22, r22
    6e73:	33 6b       	ori	r19, 0xB3	; 179
    6e75:	69 6b       	ori	r22, 0xB9	; 185
    6e77:	01 00       	.word	0x0001	; ????
    6e79:	04 82       	std	Z+4, r0	; 0x04
    6e7b:	6b 4c       	sbci	r22, 0xCB	; 203
    6e7d:	68 5c       	subi	r22, 0xC8	; 200
    6e7f:	6a 1c       	adc	r6, r10

00006e80 <Create1>:
    6e80:	1c 1c       	adc	r1, r12
    6e82:	1e 94 69 1d 	call	0x43ad2	; 0x43ad2 <RamDict+0x3ba50>
    6e86:	5a 70       	andi	r21, 0x0A	; 10
    6e88:	1c 22       	and	r1, r28
    6e8a:	6a 6a       	ori	r22, 0xAA	; 170
    6e8c:	01 00       	.word	0x0001	; ????
    6e8e:	20 0d       	add	r18, r0
    6e90:	1a 1f       	adc	r17, r26
    6e92:	09 6b       	ori	r16, 0xB9	; 185
    6e94:	75 6a       	ori	r23, 0xA5	; 165
    6e96:	75 6a       	ori	r23, 0xA5	; 165
    6e98:	cb 69       	ori	r28, 0x9B	; 155
    6e9a:	1d 20       	and	r1, r13
    6e9c:	2e 49       	sbci	r18, 0x9E	; 158
    6e9e:	5b 63       	ori	r21, 0x3B	; 59
    6ea0:	6f 6d       	ori	r22, 0xDF	; 223
    6ea2:	70 69       	ori	r23, 0x90	; 144
    6ea4:	6c 65       	ori	r22, 0x5C	; 92
    6ea6:	5d 62       	ori	r21, 0x2D	; 45
    6ea8:	6e 9d       	mul	r22, r14
    6eaa:	6e 28       	or	r6, r14

00006eab <SquareCompile>:
    6eab:	28 6e       	ori	r18, 0xE8	; 232
    6ead:	14 f8       	bld	r1, 4
    6eaf:	68 bb       	out	0x18, r22	; 24
    6eb1:	6b 03       	fmul	r22, r19
    6eb3:	1a 6b       	ori	r17, 0xBA	; 186
    6eb5:	36 6c       	ori	r19, 0xC6	; 198
    6eb7:	2e 47       	sbci	r18, 0x7E	; 126
    6eb9:	6c 69       	ori	r22, 0x9C	; 156
    6ebb:	74 65       	ori	r23, 0x54	; 84
    6ebd:	72 61       	ori	r23, 0x12	; 18
    6ebf:	6c 9d       	mul	r22, r12
    6ec1:	6e b8       	out	0x0e, r6	; 14
    6ec3:	6e ed       	ldi	r22, 0xDE	; 222

00006ec4 <Literal>:
    6ec4:	ed 69       	ori	r30, 0x9D	; 157
    6ec6:	1d 04       	cpc	r1, r13
    6ec8:	d0 6e       	ori	r29, 0xE0	; 224
    6eca:	52 6c       	ori	r21, 0xC2	; 194
    6ecc:	00 01       	movw	r0, r0
    6ece:	75 6a       	ori	r23, 0xA5	; 165

00006ed0 <Literal1>:
    6ed0:	2e 48       	sbci	r18, 0x8E	; 142
    6ed2:	64 6c       	ori	r22, 0xC4	; 196
    6ed4:	69 74       	andi	r22, 0x49	; 73
    6ed6:	65 72       	andi	r22, 0x25	; 37
    6ed8:	61 6c       	ori	r22, 0xC1	; 193
    6eda:	b8 6e       	ori	r27, 0xE8	; 232
    6edc:	d1 6e       	ori	r29, 0xE1	; 225

00006ede <DLiteral>:
    6ede:	ed 69       	ori	r30, 0x9D	; 157
    6ee0:	1d 04       	cpc	r1, r13
    6ee2:	e9 6e       	ori	r30, 0xE9	; 233
    6ee4:	1b c4       	rjmp	.+2102   	; 0x771c <List+0x33b>
    6ee6:	6e c4       	rjmp	.+2268   	; 0x77c4 <List+0x3e3>
    6ee8:	6e 2e       	mov	r6, r30

00006ee9 <DLiteral1>:
    6ee9:	2e 06       	cpc	r2, r30
    6eeb:	65 78       	andi	r22, 0x85	; 133
    6eed:	70 65       	ori	r23, 0x50	; 80
    6eef:	63 74       	andi	r22, 0x43	; 67
    6ef1:	d1 6e       	ori	r29, 0xE1	; 225
    6ef3:	ea 6e       	ori	r30, 0xEA	; 234

00006ef5 <Expect>:
    6ef5:	1a 16       	cp	r1, r26
    6ef7:	13 1c       	adc	r1, r3

00006ef9 <Expect0>:
    6ef9:	f8 68       	ori	r31, 0x88	; 136
    6efb:	1a 1f       	adc	r17, r26
    6efd:	e3 67       	ori	r30, 0x73	; 115
    6eff:	1c 01       	movw	r2, r24
    6f01:	00 07       	cpc	r16, r16
    6f03:	9b 6a       	ori	r25, 0xAB	; 171
    6f05:	04 1b       	sub	r16, r20
    6f07:	6f 03       	fmul	r22, r23
    6f09:	1a 1a       	sub	r1, r26
    6f0b:	a5 6a       	ori	r26, 0xA5	; 165
    6f0d:	04 18       	sub	r0, r4
    6f0f:	6f 01       	movw	r12, r30
    6f11:	69 92       	st	Y+, r6
    6f13:	6a 01       	movw	r12, r20
    6f15:	00 07       	cpc	r16, r16
    6f17:	28 05       	cpc	r18, r8

00006f18 <Expect01>:
    6f18:	05 f9       	bld	r16, 5
    6f1a:	6e 1a       	sub	r6, r30

00006f1b <Expect20>:
    6f1b:	1a 12       	cpse	r1, r26
    6f1d:	a5 6a       	ori	r26, 0xA5	; 165
    6f1f:	1a 01       	movw	r2, r20
    6f21:	00 0d       	add	r16, r0
    6f23:	9b 6a       	ori	r25, 0xAB	; 171
    6f25:	14 0c       	add	r1, r4
    6f27:	04 31       	cpi	r16, 0x14	; 20
    6f29:	6f 1c       	adc	r6, r15
    6f2b:	28 1a       	sub	r2, r24
    6f2d:	1f 22       	and	r1, r31
    6f2f:	f8 68       	ori	r31, 0x88	; 136

00006f31 <Expect30>:
    6f31:	01 00       	.word	0x0001	; ????
    6f33:	0d 9b       	sbis	0x01, 5	; 1
    6f35:	6a 04       	cpc	r6, r10
    6f37:	f9 6e       	ori	r31, 0xE9	; 233
    6f39:	11 03       	mulsu	r17, r17
    6f3b:	03 03       	mulsu	r16, r19
    6f3d:	4c 68       	ori	r20, 0x8C	; 140
    6f3f:	2e 40       	sbci	r18, 0x0E	; 14
    6f41:	ea 6e       	ori	r30, 0xEA	; 234
    6f43:	40 6f       	ori	r20, 0xF0	; 240

00006f45 <EndOfText>:
    6f45:	01 80       	ldd	r0, Z+1	; 0x01
    6f47:	22 87       	std	Z+10, r18	; 0x0a
    6f49:	69 20       	and	r6, r9
    6f4b:	11 03       	mulsu	r17, r17
    6f4d:	2e 09       	sbc	r18, r14
    6f4f:	69 6e       	ori	r22, 0xE9	; 233
    6f51:	74 65       	ori	r23, 0x54	; 84
    6f53:	72 70       	andi	r23, 0x02	; 2
    6f55:	72 65       	ori	r23, 0x52	; 82
    6f57:	74 40       	sbci	r23, 0x04	; 4
    6f59:	6f 4e       	sbci	r22, 0xEF	; 239
    6f5b:	6f 28       	or	r6, r15

00006f5c <Interpret>:
    6f5c:	28 6e       	ori	r18, 0xE8	; 232
    6f5e:	04 7a       	andi	r16, 0xA4	; 164
    6f60:	6f 01       	movw	r12, r30
    6f62:	00 7f       	andi	r16, 0xF0	; 240
    6f64:	0c ed       	ldi	r16, 0xDC	; 220
    6f66:	69 1d       	adc	r22, r9
    6f68:	a5 6a       	ori	r26, 0xA5	; 165
    6f6a:	04 74       	andi	r16, 0x44	; 68
    6f6c:	6f 1a       	sub	r6, r31
    6f6e:	6b 36       	cpi	r22, 0x6B	; 107
    6f70:	6c 05       	cpc	r22, r12
    6f72:	5c 6f       	ori	r21, 0xFC	; 252

00006f74 <Interpret1>:
    6f74:	1a 6b       	ori	r17, 0xBA	; 186
    6f76:	02 05       	cpc	r16, r2
    6f78:	5c 6f       	ori	r21, 0xFC	; 252

00006f7a <Interpret3>:
    6f7a:	57 6d       	ori	r21, 0xD7	; 215
    6f7c:	04 6a       	ori	r16, 0xA4	; 164
    6f7e:	1d 22       	and	r1, r29
    6f80:	04 88       	ldd	r0, Z+20	; 0x14
    6f82:	6f de       	rcall	.-802    	; 0x6c62 <Compile+0x10>
    6f84:	6e 05       	cpc	r22, r14
    6f86:	5c 6f       	ori	r21, 0xFC	; 252

00006f88 <Interpret4>:
    6f88:	03 c4       	rjmp	.+2054   	; 0x7790 <List+0x3af>
    6f8a:	6e 05       	cpc	r22, r14
    6f8c:	5c 6f       	ori	r21, 0xFC	; 252
    6f8e:	05 71       	andi	r16, 0x15	; 21
    6f90:	75 65       	ori	r23, 0x55	; 85
    6f92:	72 79       	andi	r23, 0x92	; 146
    6f94:	4e 6f       	ori	r20, 0xFE	; 254
    6f96:	8e 6f       	ori	r24, 0xFE	; 254

00006f98 <Query>:
    6f98:	87 69       	ori	r24, 0x97	; 151
    6f9a:	1d 01       	movw	r2, r26
    6f9c:	00 50       	subi	r16, 0x00	; 0
    6f9e:	f5 6e       	ori	r31, 0xE5	; 229
    6fa0:	f8 68       	ori	r31, 0x88	; 136
    6fa2:	d5 69       	ori	r29, 0x95	; 149
    6fa4:	20 2e       	mov	r2, r16
    6fa6:	04 71       	andi	r16, 0x14	; 20
    6fa8:	75 69       	ori	r23, 0x95	; 149
    6faa:	74 8e       	std	Z+28, r7	; 0x1c
    6fac:	6f a6       	std	Y+47, r6	; 0x2f
    6fae:	6f 63       	ori	r22, 0x3F	; 63

00006faf <Quit>:
    6faf:	63 6c       	ori	r22, 0xC3	; 195

00006fb1 <Quit0>:
    6fb1:	11 68       	ori	r17, 0x81	; 129
    6fb3:	98 6f       	ori	r25, 0xF8	; 248
    6fb5:	5c 6f       	ori	r21, 0xFC	; 252
    6fb7:	ed 69       	ori	r30, 0x9D	; 157
    6fb9:	1d 14       	cp	r1, r13
    6fbb:	04 c4       	rjmp	.+2056   	; 0x77c5 <List+0x3e4>
    6fbd:	6f 76       	andi	r22, 0x6F	; 111
    6fbf:	68 03       	fmul	r22, r16
    6fc1:	20 4f       	sbci	r18, 0xF0	; 240
    6fc3:	4b 05       	cpc	r20, r11

00006fc4 <Quit1>:
    6fc4:	05 b1       	in	r16, 0x05	; 5
    6fc6:	6f 05       	cpc	r22, r15
    6fc8:	61 62       	ori	r22, 0x21	; 33
    6fca:	6f 72       	andi	r22, 0x2F	; 47
    6fcc:	74 a6       	std	Z+44, r7	; 0x2c
    6fce:	6f c7       	rjmp	.+3806   	; 0x7eae <List+0xacd>
    6fd0:	6f 6e       	ori	r22, 0xEF	; 239

00006fd1 <Abort>:
    6fd1:	6e 69       	ori	r22, 0x9E	; 158
    6fd3:	63 69       	ori	r22, 0x93	; 147
    6fd5:	27 e1       	ldi	r18, 0x17	; 23
    6fd7:	6c 11       	cpse	r22, r12
    6fd9:	68 76       	andi	r22, 0x68	; 104
    6fdb:	68 1e       	adc	r6, r24
    6fdd:	46 49       	sbci	r20, 0x96	; 150
    6fdf:	47 6e       	ori	r20, 0xE7	; 231
    6fe1:	69 74       	andi	r22, 0x49	; 73
    6fe3:	69 6f       	ori	r22, 0xF9	; 249
    6fe5:	6e 20       	and	r6, r14
    6fe7:	0d 7f       	andi	r16, 0xFD	; 253
    6fe9:	6e 69       	ori	r22, 0x9E	; 158
    6feb:	63 68       	ori	r22, 0x83	; 131
    6fed:	65 6d       	ori	r22, 0xD5	; 213
    6fef:	61 63       	ori	r22, 0x31	; 49
    6ff1:	68 69       	ori	r22, 0x98	; 152
    6ff3:	6e 65       	ori	r22, 0x5E	; 94
    6ff5:	73 20       	and	r7, r3
    6ff7:	32 30       	cpi	r19, 0x02	; 2
    6ff9:	31 31       	cpi	r19, 0x11	; 17
    6ffb:	af 6f       	ori	r26, 0xFF	; 255
    6ffd:	04 63       	ori	r16, 0x34	; 52
    6fff:	6f 6c       	ori	r22, 0xCF	; 207
    7001:	64 c7       	rjmp	.+3784   	; 0x7ecb <List+0xaea>
    7003:	6f fd       	.word	0xfd6f	; ????
    7005:	6f 01       	movw	r12, r30

00007006 <COLD>:
    7006:	01 71       	andi	r16, 0x11	; 17
    7008:	69 01       	movw	r12, r18
    700a:	80 00       	.word	0x0080	; ????
    700c:	01 00       	.word	0x0001	; ????
    700e:	0e 37       	cpi	r16, 0x7E	; 126
    7010:	d1 6f       	ori	r29, 0xF1	; 241
    7012:	04 73       	andi	r16, 0x34	; 52
    7014:	2d 3e       	cpi	r18, 0xED	; 237
    7016:	64 fd       	sbrc	r22, 4
    7018:	6f 12       	cpse	r6, r31
    701a:	70 1c       	adc	r7, r0

0000701b <S2D>:
    701b:	1c 15       	cp	r17, r12
    701d:	2e 02       	muls	r18, r30
    701f:	2b 2d       	mov	r18, r11
    7021:	12 70       	andi	r17, 0x02	; 2
    7023:	1e 70       	andi	r17, 0x0E	; 14

00007025 <PlusMinus>:
    7025:	15 04       	cpc	r1, r5
    7027:	2a 70       	andi	r18, 0x0A	; 10
    7029:	18 2e       	mov	r1, r24

0000702a <PlusMinus1>:
    702a:	2e 03       	fmul	r18, r22
    702c:	64 2b       	or	r22, r20
    702e:	2d 1e       	adc	r2, r29
    7030:	70 2b       	or	r23, r16
    7032:	70 15       	cp	r23, r0

00007033 <DPlusMinus>:
    7033:	15 04       	cpc	r1, r5
    7035:	38 70       	andi	r19, 0x08	; 8
    7037:	19 2e       	mov	r1, r25

00007038 <DPlusMinus1>:
    7038:	2e 03       	fmul	r18, r22
    703a:	61 62       	ori	r22, 0x21	; 33
    703c:	73 2b       	or	r23, r19
    703e:	70 39       	cpi	r23, 0x90	; 144
    7040:	70 1c       	adc	r7, r0

00007041 <Abs>:
    7041:	1c 25       	eor	r17, r12
    7043:	70 2e       	mov	r7, r16
    7045:	04 64       	ori	r16, 0x44	; 68
    7047:	61 62       	ori	r22, 0x21	; 33
    7049:	73 39       	cpi	r23, 0x93	; 147
    704b:	70 45       	sbci	r23, 0x50	; 80
    704d:	70 1c       	adc	r7, r0

0000704e <DAbs>:
    704e:	1c 33       	cpi	r17, 0x3C	; 60
    7050:	70 2e       	mov	r7, r16
    7052:	03 6d       	ori	r16, 0xD3	; 211
    7054:	69 6e       	ori	r22, 0xE9	; 233
    7056:	45 70       	andi	r20, 0x05	; 5
    7058:	52 70       	andi	r21, 0x02	; 2

0000705a <Min>:
    705a:	1a 1a       	sub	r1, r26
    705c:	b1 6a       	ori	r27, 0xA1	; 161
    705e:	04 62       	ori	r16, 0x24	; 36
    7060:	70 1b       	sub	r23, r16

00007062 <Min1>:
    7062:	03 2e       	mov	r0, r19
    7064:	03 6d       	ori	r16, 0xD3	; 211
    7066:	61 78       	andi	r22, 0x81	; 129
    7068:	52 70       	andi	r21, 0x02	; 2
    706a:	64 70       	andi	r22, 0x04	; 4

0000706c <Max>:
    706c:	1a 1a       	sub	r1, r26
    706e:	a5 6a       	ori	r26, 0xA5	; 165
    7070:	04 74       	andi	r16, 0x44	; 68
    7072:	70 1b       	sub	r23, r16

00007074 <Max1>:
    7074:	03 2e       	mov	r0, r19
    7076:	02 6d       	ori	r16, 0xD2	; 210
    7078:	2a 64       	ori	r18, 0x4A	; 74
    707a:	70 76       	andi	r23, 0x60	; 96
    707c:	70 1a       	sub	r7, r16

0000707d <MMul>:
    707d:	1a 1a       	sub	r1, r26
    707f:	0e 13       	cpse	r16, r30
    7081:	41 70       	andi	r20, 0x01	; 1
    7083:	1b 41       	sbci	r17, 0x1B	; 27
    7085:	70 09       	sbc	r23, r0
    7087:	11 33       	cpi	r17, 0x31	; 49
    7089:	70 2e       	mov	r7, r16
    708b:	01 2a       	or	r0, r17
    708d:	76 70       	andi	r23, 0x06	; 6
    708f:	8b 70       	andi	r24, 0x0B	; 11

00007091 <Multiply>:
    7091:	09 03       	fmul	r16, r17
    7093:	2e 05       	cpc	r18, r14
    7095:	2a 2f       	mov	r18, r26
    7097:	6d 6f       	ori	r22, 0xFD	; 253
    7099:	64 8b       	std	Z+20, r22	; 0x14
    709b:	70 94       	com	r7
    709d:	70 13       	cpse	r23, r16

0000709e <MulDivMod>:
    709e:	13 7d       	andi	r17, 0xD3	; 211
    70a0:	70 11       	cpse	r23, r0
    70a2:	b8 70       	andi	r27, 0x08	; 8
    70a4:	2e 02       	muls	r18, r30
    70a6:	2a 2f       	mov	r18, r26
    70a8:	94 70       	andi	r25, 0x04	; 4
    70aa:	a5 70       	andi	r26, 0x05	; 5

000070ac <MulDiv>:
    70ac:	9e 70       	andi	r25, 0x0E	; 14
    70ae:	1b 03       	fmul	r17, r19
    70b0:	2e 02       	muls	r18, r30
    70b2:	6d 2f       	mov	r22, r29
    70b4:	a5 70       	andi	r26, 0x05	; 5
    70b6:	b1 70       	andi	r27, 0x01	; 1

000070b8 <MDiv>:
    70b8:	1a 13       	cpse	r17, r26
    70ba:	13 4e       	sbci	r17, 0xE3	; 227
    70bc:	70 12       	cpse	r7, r16
    70be:	41 70       	andi	r20, 0x01	; 1
    70c0:	0b 11       	cpse	r16, r11
    70c2:	12 0e       	add	r1, r18
    70c4:	25 70       	andi	r18, 0x05	; 5
    70c6:	1b 11       	cpse	r17, r11
    70c8:	25 70       	andi	r18, 0x05	; 5
    70ca:	1b 2e       	mov	r1, r27
    70cc:	04 2f       	mov	r16, r20
    70ce:	6d 6f       	ori	r22, 0xFD	; 253
    70d0:	64 b1       	in	r22, 0x04	; 4
    70d2:	70 cc       	rjmp	.-1824   	; 0x69b4 <UserDP+0x7>
    70d4:	70 13       	cpse	r23, r16

000070d5 <DivMod>:
    70d5:	13 1b       	sub	r17, r19
    70d7:	70 11       	cpse	r23, r0
    70d9:	b8 70       	andi	r27, 0x08	; 8
    70db:	2e 01       	movw	r4, r28
    70dd:	2f cc       	rjmp	.-1954   	; 0x693d <GClock+0x7>
    70df:	70 dc       	rcall	.-1824   	; 0x69c1 <UserContext+0x5>
    70e1:	70 d5       	rcall	.+2784   	; 0x7bc3 <List+0x7e2>

000070e2 <Divide>:
    70e2:	d5 70       	andi	r29, 0x05	; 5
    70e4:	1b 03       	fmul	r17, r19
    70e6:	2e 03       	fmul	r18, r22
    70e8:	6d 6f       	ori	r22, 0xFD	; 253
    70ea:	64 dc       	rcall	.-1848   	; 0x69b4 <UserDP+0x7>
    70ec:	70 e7       	ldi	r23, 0x70	; 112
    70ee:	70 d5       	rcall	.+2784   	; 0x7bd0 <List+0x7ef>

000070ef <Modulo>:
    70ef:	d5 70       	andi	r29, 0x05	; 5
    70f1:	03 2e       	mov	r0, r19
    70f3:	05 6d       	ori	r16, 0xD5	; 213
    70f5:	2f 6d       	ori	r18, 0xDF	; 223
    70f7:	6f 64       	ori	r22, 0x4F	; 79
    70f9:	e7 70       	andi	r30, 0x07	; 7
    70fb:	f3 70       	andi	r31, 0x03	; 3

000070fd <MDivMod>:
    70fd:	13 f8       	bld	r1, 3
    70ff:	68 12       	cpse	r6, r24
    7101:	0b 11       	cpse	r16, r11
    7103:	1b 13       	cpse	r17, r27
    7105:	0b 11       	cpse	r16, r11
    7107:	2e 41       	sbci	r18, 0x1E	; 30
    7109:	27 f3       	brie	.-56     	; 0x70d3 <MDiv+0x1b>
    710b:	70 08       	sbc	r7, r0
    710d:	71 28       	or	r7, r1

0000710e <Tick>:
    710e:	28 6e       	ori	r18, 0xE8	; 232
    7110:	14 f8       	bld	r1, 4
    7112:	68 bb       	out	0x18, r22	; 24
    7114:	6b 03       	fmul	r22, r19
    7116:	c4 6e       	ori	r28, 0xE4	; 228
    7118:	2e 04       	cpc	r2, r14
    711a:	62 61       	ori	r22, 0x12	; 18
    711c:	63 6b       	ori	r22, 0xB3	; 179
    711e:	08 71       	andi	r16, 0x18	; 24
    7120:	19 71       	andi	r17, 0x19	; 25

00007122 <Back>:
    7122:	75 6a       	ori	r23, 0xA5	; 165
    7124:	2e 45       	sbci	r18, 0x5E	; 94
    7126:	62 65       	ori	r22, 0x52	; 82
    7128:	67 69       	ori	r22, 0x97	; 151
    712a:	6e 19       	sub	r22, r14
    712c:	71 25       	eor	r23, r1
    712e:	71 cd       	rjmp	.-1310   	; 0x6c12 <Semi+0x2>

0000712f <__Begin>:
    712f:	cd 6b       	ori	r28, 0xBD	; 189
    7131:	5c 6a       	ori	r21, 0xAC	; 172
    7133:	01 69       	ori	r16, 0x91	; 145
    7135:	2e 45       	sbci	r18, 0x5E	; 94
    7137:	65 6e       	ori	r22, 0xE5	; 229
    7139:	64 69       	ori	r22, 0x94	; 148
    713b:	66 25       	eor	r22, r6
    713d:	71 36       	cpi	r23, 0x61	; 97
    713f:	71 cd       	rjmp	.-1310   	; 0x6c23 <Semi+0x13>

00007140 <__EndIf>:
    7140:	cd 6b       	ori	r28, 0xBD	; 189
    7142:	0a 69       	ori	r16, 0x9A	; 154
    7144:	f5 6b       	ori	r31, 0xB5	; 181
    7146:	5c 6a       	ori	r21, 0xAC	; 172
    7148:	1b 20       	and	r1, r11
    714a:	2e 44       	sbci	r18, 0x4E	; 78
    714c:	74 68       	ori	r23, 0x84	; 132
    714e:	65 6e       	ori	r22, 0xE5	; 229
    7150:	36 71       	andi	r19, 0x16	; 22
    7152:	4b 71       	andi	r20, 0x1B	; 27

00007154 <__Then>:
    7154:	40 71       	andi	r20, 0x10	; 16
    7156:	2e 42       	sbci	r18, 0x2E	; 46
    7158:	64 6f       	ori	r22, 0xF4	; 244
    715a:	4b 71       	andi	r20, 0x1B	; 27
    715c:	57 71       	andi	r21, 0x17	; 23

0000715e <__Do>:
    715e:	52 6c       	ori	r21, 0xC2	; 194
    7160:	00 08       	sbc	r0, r0
    7162:	5c 6a       	ori	r21, 0xAC	; 172
    7164:	13 69       	ori	r17, 0x93	; 147
    7166:	2e 44       	sbci	r18, 0x4E	; 78
    7168:	6c 6f       	ori	r22, 0xFC	; 252
    716a:	6f 70       	andi	r22, 0x0F	; 15
    716c:	57 71       	andi	r21, 0x17	; 23
    716e:	67 71       	andi	r22, 0x17	; 23

00007170 <__Loop>:
    7170:	13 69       	ori	r17, 0x93	; 147
    7172:	f5 6b       	ori	r31, 0xB5	; 181
    7174:	52 6c       	ori	r21, 0xC2	; 194
    7176:	00 06       	cpc	r0, r16
    7178:	22 71       	andi	r18, 0x12	; 18
    717a:	2e 45       	sbci	r18, 0x5E	; 94
    717c:	2b 6c       	ori	r18, 0xCB	; 203
    717e:	6f 6f       	ori	r22, 0xFF	; 255
    7180:	70 67       	ori	r23, 0x70	; 112
    7182:	71 7b       	andi	r23, 0xB1	; 177
    7184:	71 13       	cpse	r23, r17

00007185 <__PlusLoop>:
    7185:	13 69       	ori	r17, 0x93	; 147
    7187:	f5 6b       	ori	r31, 0xB5	; 181
    7189:	52 6c       	ori	r21, 0xC2	; 194
    718b:	00 07       	cpc	r16, r16
    718d:	22 71       	andi	r18, 0x12	; 18
    718f:	2e 45       	sbci	r18, 0x5E	; 94
    7191:	75 6e       	ori	r23, 0xE5	; 229
    7193:	74 69       	ori	r23, 0x94	; 148
    7195:	6c 7b       	andi	r22, 0xBC	; 188
    7197:	71 90       	ld	r7, Z+
    7199:	71 01       	movw	r14, r2

0000719a <__Until>:
    719a:	01 69       	ori	r16, 0x91	; 145
    719c:	f5 6b       	ori	r31, 0xB5	; 181
    719e:	52 6c       	ori	r21, 0xC2	; 194
    71a0:	00 04       	cpc	r0, r0
    71a2:	22 71       	andi	r18, 0x12	; 18
    71a4:	2e 43       	sbci	r18, 0x3E	; 62
    71a6:	65 6e       	ori	r22, 0xE5	; 229
    71a8:	64 90       	lpm	r6, Z+
    71aa:	71 a5       	ldd	r23, Z+41	; 0x29
    71ac:	71 9a       	sbi	0x0e, 1	; 14

000071ad <__End>:
    71ad:	9a 71       	andi	r25, 0x1A	; 26
    71af:	2e 45       	sbci	r18, 0x5E	; 94
    71b1:	61 67       	ori	r22, 0x71	; 113
    71b3:	61 69       	ori	r22, 0x91	; 145
    71b5:	6e a5       	ldd	r22, Y+46	; 0x2e
    71b7:	71 b0       	in	r7, 0x01	; 1
    71b9:	71 01       	movw	r14, r2

000071ba <__Again>:
    71ba:	01 69       	ori	r16, 0x91	; 145
    71bc:	f5 6b       	ori	r31, 0xB5	; 181
    71be:	52 6c       	ori	r21, 0xC2	; 194
    71c0:	00 05       	cpc	r16, r0
    71c2:	22 71       	andi	r18, 0x12	; 18
    71c4:	2e 46       	sbci	r18, 0x6E	; 110
    71c6:	72 65       	ori	r23, 0x52	; 82
    71c8:	70 65       	ori	r23, 0x50	; 80
    71ca:	61 74       	andi	r22, 0x41	; 65
    71cc:	b0 71       	andi	r27, 0x10	; 16
    71ce:	c5 71       	andi	r28, 0x15	; 21

000071d0 <__Repeat>:
    71d0:	13 13       	cpse	r17, r19
    71d2:	ba 71       	andi	r27, 0x1A	; 26
    71d4:	11 11       	cpse	r17, r1
    71d6:	0a 69       	ori	r16, 0x9A	; 154
    71d8:	92 6a       	ori	r25, 0xA2	; 162
    71da:	40 71       	andi	r20, 0x10	; 16
    71dc:	2e 42       	sbci	r18, 0x2E	; 46
    71de:	69 66       	ori	r22, 0x69	; 105
    71e0:	c5 71       	andi	r28, 0x15	; 21
    71e2:	dd 71       	andi	r29, 0x1D	; 29

000071e4 <__If>:
    71e4:	52 6c       	ori	r21, 0xC2	; 194
    71e6:	00 04       	cpc	r0, r0
    71e8:	5c 6a       	ori	r21, 0xAC	; 172
    71ea:	f8 68       	ori	r31, 0x88	; 136
    71ec:	75 6a       	ori	r23, 0xA5	; 165
    71ee:	0a 69       	ori	r16, 0x9A	; 154
    71f0:	2e 44       	sbci	r18, 0x4E	; 78
    71f2:	65 6c       	ori	r22, 0xC5	; 197
    71f4:	73 65       	ori	r23, 0x53	; 83
    71f6:	dd 71       	andi	r29, 0x1D	; 29
    71f8:	f1 71       	andi	r31, 0x11	; 17

000071fa <__Else>:
    71fa:	0a 69       	ori	r16, 0x9A	; 154
    71fc:	f5 6b       	ori	r31, 0xB5	; 181
    71fe:	52 6c       	ori	r21, 0xC2	; 194
    7200:	00 05       	cpc	r16, r0
    7202:	5c 6a       	ori	r21, 0xAC	; 172
    7204:	f8 68       	ori	r31, 0x88	; 136
    7206:	75 6a       	ori	r23, 0xA5	; 165
    7208:	1b 0a       	sbc	r1, r27
    720a:	69 40       	sbci	r22, 0x09	; 9
    720c:	71 0a       	sbc	r7, r17
    720e:	69 2e       	mov	r6, r25
    7210:	45 77       	andi	r20, 0x75	; 117
    7212:	68 69       	ori	r22, 0x98	; 152
    7214:	6c 65       	ori	r22, 0x5C	; 92
    7216:	f1 71       	andi	r31, 0x11	; 17
    7218:	10 72       	andi	r17, 0x20	; 32

0000721a <__While>:
    721a:	e4 71       	andi	r30, 0x14	; 20
    721c:	4f 6a       	ori	r20, 0xAF	; 175
    721e:	2e 04       	cpc	r2, r14
    7220:	68 6f       	ori	r22, 0xF8	; 248
    7222:	6c 64       	ori	r22, 0x4C	; 76
    7224:	10 72       	andi	r17, 0x20	; 32
    7226:	1f 72       	andi	r17, 0x2F	; 47

00007228 <Hold>:
    7228:	01 ff       	sbrs	r16, 1
    722a:	ff 1a       	sub	r15, r31
    722c:	6a 30       	cpi	r22, 0x0A	; 10
    722e:	6a 1a       	sub	r6, r26
    7230:	6a 1d       	adc	r22, r10
    7232:	1f 2e       	mov	r1, r31
    7234:	03 70       	andi	r16, 0x03	; 3
    7236:	61 64       	ori	r22, 0x41	; 65
    7238:	1f 72       	andi	r17, 0x2F	; 47
    723a:	34 72       	andi	r19, 0x24	; 36

0000723c <PAD>:
    723c:	5c 6a       	ori	r21, 0xAC	; 172
    723e:	01 00       	.word	0x0001	; ????
    7240:	44 16       	cp	r4, r20
    7242:	2e 02       	muls	r18, r30
    7244:	3c 23       	and	r19, r28
    7246:	34 72       	andi	r19, 0x24	; 36
    7248:	43 72       	andi	r20, 0x23	; 35

0000724a <LessHash>:
    724a:	3c 72       	andi	r19, 0x2C	; 44
    724c:	1a 6a       	ori	r17, 0xAA	; 170
    724e:	20 2e       	mov	r2, r16
    7250:	02 23       	and	r16, r18
    7252:	3e 43       	sbci	r19, 0x3E	; 62
    7254:	72 50       	subi	r23, 0x02	; 2
    7256:	72 03       	mulsu	r23, r18

00007257 <HashMore>:
    7257:	03 03       	mulsu	r16, r19
    7259:	1a 6a       	ori	r17, 0xAA	; 170
    725b:	1d 3c       	cpi	r17, 0xCD	; 205
    725d:	72 1a       	sub	r7, r18
    725f:	92 6a       	ori	r25, 0xA2	; 162
    7261:	2e 04       	cpc	r2, r14
    7263:	73 69       	ori	r23, 0x93	; 147
    7265:	67 6e       	ori	r22, 0xE7	; 231
    7267:	50 72       	andi	r21, 0x20	; 32
    7269:	62 72       	andi	r22, 0x22	; 34

0000726b <Sign>:
    726b:	bd 6a       	ori	r27, 0xAD	; 173
    726d:	15 04       	cpc	r1, r5
    726f:	76 72       	andi	r23, 0x26	; 38
    7271:	01 00       	.word	0x0001	; ????
    7273:	2d 28       	or	r2, r13
    7275:	72 2e       	mov	r7, r18

00007276 <Sign1>:
    7276:	2e 01       	movw	r4, r28
    7278:	23 62       	ori	r18, 0x23	; 35
    727a:	72 77       	andi	r23, 0x72	; 114
    727c:	72 f9       	bld	r23, 2

0000727d <Hash>:
    727d:	f9 69       	ori	r31, 0x99	; 153
    727f:	1d fd       	.word	0xfd1d	; ????
    7281:	70 bd       	out	0x20, r23	; 32
    7283:	6a 01       	movw	r12, r20
    7285:	00 09       	sbc	r16, r0
    7287:	1a a5       	ldd	r17, Y+42	; 0x2a
    7289:	6a 04       	cpc	r6, r10
    728b:	91 72       	andi	r25, 0x21	; 33
    728d:	01 00       	.word	0x0001	; ????
    728f:	07 16       	cp	r0, r23

00007291 <Hash1>:
    7291:	01 00       	.word	0x0001	; ????
    7293:	30 16       	cp	r3, r16
    7295:	28 72       	andi	r18, 0x28	; 40
    7297:	2e 02       	muls	r18, r30
    7299:	23 73       	andi	r18, 0x33	; 51
    729b:	77 72       	andi	r23, 0x27	; 39
    729d:	98 72       	andi	r25, 0x28	; 40

0000729f <HashS>:
    729f:	7d 72       	andi	r23, 0x2D	; 45
    72a1:	1a 1a       	sub	r1, r26
    72a3:	0d 14       	cp	r0, r13
    72a5:	04 9f       	mul	r16, r20
    72a7:	72 2e       	mov	r7, r18
    72a9:	03 64       	ori	r16, 0x43	; 67
    72ab:	2e 72       	andi	r18, 0x2E	; 46
    72ad:	98 72       	andi	r25, 0x28	; 40
    72af:	a9 72       	andi	r26, 0x29	; 41

000072b1 <DdotR>:
    72b1:	13 1b       	sub	r17, r19
    72b3:	1a 4e       	sbci	r17, 0xEA	; 234
    72b5:	70 4a       	sbci	r23, 0xA0	; 160
    72b7:	72 9f       	mul	r23, r18
    72b9:	72 6b       	ori	r23, 0xB2	; 178
    72bb:	72 57       	subi	r23, 0x72	; 114
    72bd:	72 11       	cpse	r23, r2
    72bf:	1a 92       	st	-Y, r1
    72c1:	6a 5b       	subi	r22, 0xBA	; 186
    72c3:	68 2e       	mov	r6, r24
    72c5:	68 2e       	mov	r6, r24
    72c7:	02 64       	ori	r16, 0x42	; 66
    72c9:	2e a9       	ldd	r18, Y+54	; 0x36
    72cb:	72 c7       	rjmp	.+3812   	; 0x81b1 <RamDict+0x12f>
    72cd:	72 f8       	bld	r7, 2

000072ce <Ddot>:
    72ce:	f8 68       	ori	r31, 0x88	; 136
    72d0:	b1 72       	andi	r27, 0x21	; 33
    72d2:	4c 68       	ori	r20, 0x8C	; 140
    72d4:	2e 02       	muls	r18, r30
    72d6:	2e 72       	andi	r18, 0x2E	; 46
    72d8:	c7 72       	andi	r28, 0x27	; 39
    72da:	d5 72       	andi	r29, 0x25	; 37

000072dc <dotR>:
    72dc:	13 1b       	sub	r17, r19
    72de:	70 11       	cpse	r23, r0
    72e0:	b1 72       	andi	r27, 0x21	; 33
    72e2:	2e 01       	movw	r4, r28
    72e4:	2e d5       	rcall	.+2652   	; 0x7d42 <List+0x961>
    72e6:	72 e3       	ldi	r23, 0x32	; 50
    72e8:	72 1b       	sub	r23, r18

000072e9 <dot>:
    72e9:	1b 70       	andi	r17, 0x0B	; 11
    72eb:	ce 72       	andi	r28, 0x2E	; 46
    72ed:	2e 01       	movw	r4, r28
    72ef:	3f e3       	ldi	r19, 0x3F	; 63
    72f1:	72 ee       	ldi	r23, 0xE2	; 226
    72f3:	72 1d       	adc	r23, r2

000072f4 <Qry>:
    72f4:	1d e9       	ldi	r17, 0x9D	; 157
    72f6:	72 2e       	mov	r7, r18
    72f8:	04 6c       	ori	r16, 0xC4	; 196
    72fa:	6f 61       	ori	r22, 0x1F	; 31
    72fc:	64 ee       	ldi	r22, 0xE4	; 228
    72fe:	72 f8       	bld	r7, 2
    7300:	72 01       	movw	r14, r4

00007301 <BlkLoad>:
    7301:	01 9e       	mul	r0, r17
    7303:	00 87       	std	Z+8, r16	; 0x08
    7305:	69 1c       	adc	r6, r9
    7307:	1d 13       	cpse	r17, r29
    7309:	20 f8       	bld	r2, 0
    730b:	68 d5       	rcall	.+2768   	; 0x7ddd <List+0x9fc>
    730d:	69 1c       	adc	r6, r9
    730f:	1d 13       	cpse	r17, r29
    7311:	20 26       	eor	r2, r16
    7313:	6a 1d       	adc	r22, r10
    7315:	13 1c       	adc	r1, r3
    7317:	26 6a       	ori	r18, 0xA6	; 166
    7319:	20 35       	cpi	r18, 0x50	; 80
    731b:	f8 68       	ori	r31, 0x88	; 136
    731d:	01 9f       	mul	r16, r17
    731f:	f4 1f       	adc	r31, r20
    7321:	03 5c       	subi	r16, 0xC3	; 195
    7323:	6f 11       	cpse	r22, r15
    7325:	11 d5       	rcall	.+2594   	; 0x7d49 <List+0x968>
    7327:	69 20       	and	r6, r9
    7329:	11 1c       	adc	r1, r1
    732b:	87 69       	ori	r24, 0x97	; 151
    732d:	20 01       	movw	r4, r0
    732f:	9d ff       	.word	0xff9d	; ????
    7331:	b1 6a       	ori	r27, 0xA1	; 161
    7333:	04 43       	sbci	r16, 0x34	; 52
    7335:	73 1c       	adc	r7, r3
    7337:	26 6a       	ori	r18, 0xA6	; 166
    7339:	20 35       	cpi	r18, 0x50	; 80
    733b:	03 f8       	bld	r0, 3
    733d:	68 01       	movw	r12, r16
    733f:	9f f4       	brid	.+38     	; 0x7367 <More+0x19>
    7341:	1f 2e       	mov	r1, r31

00007343 <BlkLoad1>:
    7343:	03 2e       	mov	r0, r19
    7345:	04 6d       	ori	r16, 0xD4	; 212
    7347:	6f 72       	andi	r22, 0x2F	; 47
    7349:	65 f8       	bld	r6, 5
    734b:	72 45       	sbci	r23, 0x52	; 82
    734d:	73 01       	movw	r14, r6

0000734e <More>:
    734e:	01 e7       	ldi	r16, 0x71	; 113
    7350:	03 26       	eor	r0, r19
    7352:	29 69       	ori	r18, 0x99	; 153
    7354:	01 02       	muls	r16, r17
    7356:	3e 16       	cp	r3, r30
    7358:	b1 6a       	ori	r27, 0xA1	; 161
    735a:	04 6a       	ori	r16, 0xA4	; 164
    735c:	73 76       	andi	r23, 0x63	; 99
    735e:	68 06       	cpc	r6, r24
    7360:	6d 6f       	ori	r22, 0xFD	; 253
    7362:	72 65       	ori	r23, 0x52	; 82
    7364:	3e 3e       	cpi	r19, 0xEE	; 238
    7366:	e3 67       	ori	r30, 0x73	; 115
    7368:	03 31       	cpi	r16, 0x13	; 19

0000736a <More01>:
    736a:	2e 05       	cpc	r18, r14
    736c:	76 6c       	ori	r23, 0xC6	; 198
    736e:	69 73       	andi	r22, 0x39	; 57
    7370:	74 45       	sbci	r23, 0x54	; 84
    7372:	73 6b       	ori	r23, 0xB3	; 179
    7374:	73 31       	cpi	r23, 0x13	; 19

00007375 <VList>:
    7375:	31 09       	sbc	r19, r1
    7377:	6b 4e       	sbci	r22, 0xEB	; 235

00007378 <VList01>:
    7378:	4e 73       	andi	r20, 0x3E	; 62
    737a:	1c 69       	ori	r17, 0x9C	; 156
    737c:	6b 45       	sbci	r22, 0x5B	; 91
    737e:	6b 1d       	adc	r22, r11
    7380:	e2 6a       	ori	r30, 0xA2	; 162
    7382:	14 04       	cpc	r1, r4
    7384:	78 73       	andi	r23, 0x38	; 56
    7386:	2e 06       	cpc	r2, r30
    7388:	66 6f       	ori	r22, 0xF6	; 246
    738a:	72 67       	ori	r23, 0x72	; 114
    738c:	65 74       	andi	r22, 0x45	; 69
    738e:	6b 73       	andi	r22, 0x3B	; 59
    7390:	87 73       	andi	r24, 0x37	; 55

00007392 <Forget>:
    7392:	28 6e       	ori	r18, 0xE8	; 232
    7394:	04 a6       	std	Z+44, r0	; 0x2c
    7396:	73 03       	mulsu	r23, r19
    7398:	33 6b       	ori	r19, 0xB3	; 179
    739a:	1c ad       	ldd	r17, Y+60	; 0x3c
    739c:	69 20       	and	r6, r9
    739e:	45 6b       	ori	r20, 0xB5	; 181
    73a0:	1d cb       	rjmp	.-2502   	; 0x69dc <UserIN+0x7>
    73a2:	69 1d       	adc	r22, r9
    73a4:	20 2e       	mov	r2, r16

000073a6 <Forget01>:
    73a6:	03 2e       	mov	r0, r19
    73a8:	03 70       	andi	r16, 0x03	; 3
    73aa:	65 6e       	ori	r22, 0xE5	; 229
    73ac:	87 73       	andi	r24, 0x37	; 55
    73ae:	a8 73       	andi	r26, 0x38	; 56

000073b0 <Pen>:
    73b0:	01 00       	.word	0x0001	; ????
    73b2:	4a 25       	eor	r20, r10
    73b4:	2e 05       	cpc	r18, r14
    73b6:	76 6d       	ori	r23, 0xD6	; 214
    73b8:	6f 64       	ori	r22, 0x4F	; 79
    73ba:	65 a8       	ldd	r6, Z+53	; 0x35
    73bc:	73 b5       	in	r23, 0x23	; 35
    73be:	73 01       	movw	r14, r6

000073bf <VMode>:
    73bf:	01 f7       	brne	.-64     	; 0x7381 <VList01+0x9>
    73c1:	03 24       	eor	r0, r3
    73c3:	01 00       	.word	0x0001	; ????
    73c5:	08 9b       	sbis	0x01, 0	; 1
    73c7:	6a 04       	cpc	r6, r10
    73c9:	bf 73       	andi	r27, 0x3F	; 63
    73cb:	01 00       	.word	0x0001	; ????
    73cd:	e1 0c       	add	r14, r1
    73cf:	01 00       	.word	0x0001	; ????
    73d1:	1e 01       	movw	r2, r28
    73d3:	00 3e       	cpi	r16, 0xE0	; 224
    73d5:	0a 03       	fmul	r16, r18
    73d7:	2e 04       	cpc	r2, r14

000073d8 <LastLink>:
    73d8:	04 6c       	ori	r16, 0xC4	; 196
    73da:	69 73       	andi	r22, 0x39	; 57
    73dc:	74 b5       	in	r23, 0x24	; 36
    73de:	73 d8       	rcall	.-3866   	; 0x64c6 <__data_load_end+0x30dc>
    73e0:	73 35       	cpi	r23, 0x53	; 83

000073e1 <List>:
    73e1:	35 03       	mulsu	r19, r21
    73e3:	2e 00       	Address 0x000073e3 is out of bounds.
.word	0xffff	; ????

Disassembly of section .bss:

00800106 <__bss_start>:
	...

00800107 <gKeyGroup>:
	...

00800108 <gShiftState>:
	...

00800109 <gKeyHelpCount>:
	...

0080010a <gKeyState>:
	...

0080010c <gOldKScan>:
	...

0080010d <gScanRowState>:
	...

0080010e <gKScan>:
	...

0080010f <gVideoBuff>:
	...

008003e7 <gSysVars>:
	...

008003f5 <gClock>:
	...

008003f7 <gFrameSyncState>:
	...

Disassembly of section .stab:

00000000 <_end-0x8003f8>:
   0:	01 00       	.word	0x0001	; ????
   2:	00 00       	nop
   4:	00 00       	nop
   6:	a4 00       	.word	0x00a4	; ????
   8:	e0 00       	.word	0x00e0	; ????
   a:	00 00       	nop
   c:	01 00       	.word	0x0001	; ????
   e:	00 00       	nop
  10:	64 00       	.word	0x0064	; ????
  12:	00 00       	nop
  14:	cc 05       	cpc	r28, r12
  16:	00 00       	nop
  18:	3f 00       	.word	0x003f	; ????
  1a:	00 00       	nop
  1c:	80 00       	.word	0x0080	; ????
  1e:	00 00       	nop
  20:	00 00       	nop
  22:	00 00       	nop
  24:	49 00       	.word	0x0049	; ????
  26:	00 00       	nop
  28:	24 00       	.word	0x0024	; ????
  2a:	33 00       	.word	0x0033	; ????
  2c:	00 00       	nop
  2e:	00 00       	nop
  30:	56 00       	.word	0x0056	; ????
  32:	00 00       	nop
  34:	84 00       	.word	0x0084	; ????
	...
  3e:	00 00       	nop
  40:	44 00       	.word	0x0044	; ????
  42:	34 00       	.word	0x0034	; ????
	...
  4c:	44 00       	.word	0x0044	; ????
  4e:	35 00       	.word	0x0035	; ????
  50:	04 00       	.word	0x0004	; ????
  52:	00 00       	nop
  54:	00 00       	nop
  56:	00 00       	nop
  58:	44 00       	.word	0x0044	; ????
  5a:	36 00       	.word	0x0036	; ????
  5c:	08 00       	.word	0x0008	; ????
  5e:	00 00       	nop
  60:	00 00       	nop
  62:	00 00       	nop
  64:	44 00       	.word	0x0044	; ????
  66:	37 00       	.word	0x0037	; ????
  68:	0c 00       	.word	0x000c	; ????
  6a:	00 00       	nop
  6c:	00 00       	nop
  6e:	00 00       	nop
  70:	44 00       	.word	0x0044	; ????
  72:	38 00       	.word	0x0038	; ????
  74:	10 00       	.word	0x0010	; ????
  76:	00 00       	nop
  78:	00 00       	nop
  7a:	00 00       	nop
  7c:	44 00       	.word	0x0044	; ????
  7e:	39 00       	.word	0x0039	; ????
  80:	14 00       	.word	0x0014	; ????
  82:	00 00       	nop
  84:	00 00       	nop
  86:	00 00       	nop
  88:	44 00       	.word	0x0044	; ????
  8a:	3a 00       	.word	0x003a	; ????
  8c:	18 00       	.word	0x0018	; ????
  8e:	00 00       	nop
  90:	00 00       	nop
  92:	00 00       	nop
  94:	44 00       	.word	0x0044	; ????
  96:	3b 00       	.word	0x003b	; ????
  98:	1c 00       	.word	0x001c	; ????
  9a:	00 00       	nop
  9c:	00 00       	nop
  9e:	00 00       	nop
  a0:	44 00       	.word	0x0044	; ????
  a2:	3c 00       	.word	0x003c	; ????
  a4:	20 00       	.word	0x0020	; ????
  a6:	00 00       	nop
  a8:	00 00       	nop
  aa:	00 00       	nop
  ac:	44 00       	.word	0x0044	; ????
  ae:	3d 00       	.word	0x003d	; ????
  b0:	24 00       	.word	0x0024	; ????
  b2:	00 00       	nop
  b4:	00 00       	nop
  b6:	00 00       	nop
  b8:	44 00       	.word	0x0044	; ????
  ba:	3e 00       	.word	0x003e	; ????
  bc:	28 00       	.word	0x0028	; ????
  be:	00 00       	nop
  c0:	00 00       	nop
  c2:	00 00       	nop
  c4:	44 00       	.word	0x0044	; ????
  c6:	3f 00       	.word	0x003f	; ????
  c8:	2c 00       	.word	0x002c	; ????
  ca:	00 00       	nop
  cc:	00 00       	nop
  ce:	00 00       	nop
  d0:	44 00       	.word	0x0044	; ????
  d2:	40 00       	.word	0x0040	; ????
  d4:	30 00       	.word	0x0030	; ????
  d6:	00 00       	nop
  d8:	00 00       	nop
  da:	00 00       	nop
  dc:	44 00       	.word	0x0044	; ????
  de:	41 00       	.word	0x0041	; ????
  e0:	34 00       	.word	0x0034	; ????
  e2:	00 00       	nop
  e4:	00 00       	nop
  e6:	00 00       	nop
  e8:	44 00       	.word	0x0044	; ????
  ea:	42 00       	.word	0x0042	; ????
  ec:	38 00       	.word	0x0038	; ????
  ee:	00 00       	nop
  f0:	00 00       	nop
  f2:	00 00       	nop
  f4:	44 00       	.word	0x0044	; ????
  f6:	43 00       	.word	0x0043	; ????
  f8:	3c 00       	.word	0x003c	; ????
  fa:	00 00       	nop
  fc:	00 00       	nop
  fe:	00 00       	nop
 100:	44 00       	.word	0x0044	; ????
 102:	44 00       	.word	0x0044	; ????
 104:	40 00       	.word	0x0040	; ????
 106:	00 00       	nop
 108:	00 00       	nop
 10a:	00 00       	nop
 10c:	44 00       	.word	0x0044	; ????
 10e:	45 00       	.word	0x0045	; ????
 110:	44 00       	.word	0x0044	; ????
 112:	00 00       	nop
 114:	00 00       	nop
 116:	00 00       	nop
 118:	44 00       	.word	0x0044	; ????
 11a:	46 00       	.word	0x0046	; ????
 11c:	48 00       	.word	0x0048	; ????
 11e:	00 00       	nop
 120:	00 00       	nop
 122:	00 00       	nop
 124:	44 00       	.word	0x0044	; ????
 126:	47 00       	.word	0x0047	; ????
 128:	4c 00       	.word	0x004c	; ????
 12a:	00 00       	nop
 12c:	00 00       	nop
 12e:	00 00       	nop
 130:	44 00       	.word	0x0044	; ????
 132:	48 00       	.word	0x0048	; ????
 134:	50 00       	.word	0x0050	; ????
 136:	00 00       	nop
 138:	00 00       	nop
 13a:	00 00       	nop
 13c:	44 00       	.word	0x0044	; ????
 13e:	49 00       	.word	0x0049	; ????
 140:	54 00       	.word	0x0054	; ????
 142:	00 00       	nop
 144:	00 00       	nop
 146:	00 00       	nop
 148:	44 00       	.word	0x0044	; ????
 14a:	4a 00       	.word	0x004a	; ????
 14c:	58 00       	.word	0x0058	; ????
 14e:	00 00       	nop
 150:	00 00       	nop
 152:	00 00       	nop
 154:	44 00       	.word	0x0044	; ????
 156:	4b 00       	.word	0x004b	; ????
 158:	5c 00       	.word	0x005c	; ????
 15a:	00 00       	nop
 15c:	00 00       	nop
 15e:	00 00       	nop
 160:	44 00       	.word	0x0044	; ????
 162:	4c 00       	.word	0x004c	; ????
 164:	60 00       	.word	0x0060	; ????
 166:	00 00       	nop
 168:	00 00       	nop
 16a:	00 00       	nop
 16c:	44 00       	.word	0x0044	; ????
 16e:	4d 00       	.word	0x004d	; ????
 170:	64 00       	.word	0x0064	; ????
 172:	00 00       	nop
 174:	00 00       	nop
 176:	00 00       	nop
 178:	44 00       	.word	0x0044	; ????
 17a:	4e 00       	.word	0x004e	; ????
 17c:	68 00       	.word	0x0068	; ????
 17e:	00 00       	nop
 180:	00 00       	nop
 182:	00 00       	nop
 184:	44 00       	.word	0x0044	; ????
 186:	4f 00       	.word	0x004f	; ????
 188:	68 00       	.word	0x0068	; ????
 18a:	00 00       	nop
 18c:	00 00       	nop
 18e:	00 00       	nop
 190:	44 00       	.word	0x0044	; ????
 192:	50 00       	.word	0x0050	; ????
 194:	68 00       	.word	0x0068	; ????
 196:	00 00       	nop
 198:	00 00       	nop
 19a:	00 00       	nop
 19c:	44 00       	.word	0x0044	; ????
 19e:	51 00       	.word	0x0051	; ????
 1a0:	68 00       	.word	0x0068	; ????
 1a2:	00 00       	nop
 1a4:	00 00       	nop
 1a6:	00 00       	nop
 1a8:	44 00       	.word	0x0044	; ????
 1aa:	52 00       	.word	0x0052	; ????
 1ac:	68 00       	.word	0x0068	; ????
 1ae:	00 00       	nop
 1b0:	00 00       	nop
 1b2:	00 00       	nop
 1b4:	44 00       	.word	0x0044	; ????
 1b6:	53 00       	.word	0x0053	; ????
 1b8:	68 00       	.word	0x0068	; ????
 1ba:	00 00       	nop
 1bc:	00 00       	nop
 1be:	00 00       	nop
 1c0:	44 00       	.word	0x0044	; ????
 1c2:	54 00       	.word	0x0054	; ????
 1c4:	68 00       	.word	0x0068	; ????
 1c6:	00 00       	nop
 1c8:	00 00       	nop
 1ca:	00 00       	nop
 1cc:	44 00       	.word	0x0044	; ????
 1ce:	55 00       	.word	0x0055	; ????
 1d0:	68 00       	.word	0x0068	; ????
 1d2:	00 00       	nop
 1d4:	00 00       	nop
 1d6:	00 00       	nop
 1d8:	44 00       	.word	0x0044	; ????
 1da:	56 00       	.word	0x0056	; ????
 1dc:	68 00       	.word	0x0068	; ????
 1de:	00 00       	nop
 1e0:	00 00       	nop
 1e2:	00 00       	nop
 1e4:	44 00       	.word	0x0044	; ????
 1e6:	57 00       	.word	0x0057	; ????
 1e8:	68 00       	.word	0x0068	; ????
 1ea:	00 00       	nop
 1ec:	00 00       	nop
 1ee:	00 00       	nop
 1f0:	44 00       	.word	0x0044	; ????
 1f2:	58 00       	.word	0x0058	; ????
 1f4:	68 00       	.word	0x0068	; ????
 1f6:	00 00       	nop
 1f8:	00 00       	nop
 1fa:	00 00       	nop
 1fc:	44 00       	.word	0x0044	; ????
 1fe:	59 00       	.word	0x0059	; ????
 200:	68 00       	.word	0x0068	; ????
 202:	00 00       	nop
 204:	00 00       	nop
 206:	00 00       	nop
 208:	44 00       	.word	0x0044	; ????
 20a:	5a 00       	.word	0x005a	; ????
 20c:	68 00       	.word	0x0068	; ????
 20e:	00 00       	nop
 210:	00 00       	nop
 212:	00 00       	nop
 214:	44 00       	.word	0x0044	; ????
 216:	5b 00       	.word	0x005b	; ????
 218:	68 00       	.word	0x0068	; ????
 21a:	00 00       	nop
 21c:	00 00       	nop
 21e:	00 00       	nop
 220:	44 00       	.word	0x0044	; ????
 222:	5c 00       	.word	0x005c	; ????
 224:	68 00       	.word	0x0068	; ????
 226:	00 00       	nop
 228:	00 00       	nop
 22a:	00 00       	nop
 22c:	44 00       	.word	0x0044	; ????
 22e:	5d 00       	.word	0x005d	; ????
 230:	68 00       	.word	0x0068	; ????
 232:	00 00       	nop
 234:	00 00       	nop
 236:	00 00       	nop
 238:	44 00       	.word	0x0044	; ????
 23a:	5e 00       	.word	0x005e	; ????
 23c:	68 00       	.word	0x0068	; ????
 23e:	00 00       	nop
 240:	00 00       	nop
 242:	00 00       	nop
 244:	44 00       	.word	0x0044	; ????
 246:	5f 00       	.word	0x005f	; ????
 248:	68 00       	.word	0x0068	; ????
 24a:	00 00       	nop
 24c:	00 00       	nop
 24e:	00 00       	nop
 250:	44 00       	.word	0x0044	; ????
 252:	60 00       	.word	0x0060	; ????
 254:	68 00       	.word	0x0068	; ????
 256:	00 00       	nop
 258:	00 00       	nop
 25a:	00 00       	nop
 25c:	44 00       	.word	0x0044	; ????
 25e:	61 00       	.word	0x0061	; ????
 260:	68 00       	.word	0x0068	; ????
 262:	00 00       	nop
 264:	00 00       	nop
 266:	00 00       	nop
 268:	44 00       	.word	0x0044	; ????
 26a:	62 00       	.word	0x0062	; ????
 26c:	68 00       	.word	0x0068	; ????
 26e:	00 00       	nop
 270:	00 00       	nop
 272:	00 00       	nop
 274:	44 00       	.word	0x0044	; ????
 276:	63 00       	.word	0x0063	; ????
 278:	68 00       	.word	0x0068	; ????
 27a:	00 00       	nop
 27c:	00 00       	nop
 27e:	00 00       	nop
 280:	44 00       	.word	0x0044	; ????
 282:	64 00       	.word	0x0064	; ????
 284:	68 00       	.word	0x0068	; ????
 286:	00 00       	nop
 288:	00 00       	nop
 28a:	00 00       	nop
 28c:	44 00       	.word	0x0044	; ????
 28e:	65 00       	.word	0x0065	; ????
 290:	68 00       	.word	0x0068	; ????
 292:	00 00       	nop
 294:	00 00       	nop
 296:	00 00       	nop
 298:	44 00       	.word	0x0044	; ????
 29a:	66 00       	.word	0x0066	; ????
 29c:	68 00       	.word	0x0068	; ????
 29e:	00 00       	nop
 2a0:	00 00       	nop
 2a2:	00 00       	nop
 2a4:	44 00       	.word	0x0044	; ????
 2a6:	67 00       	.word	0x0067	; ????
 2a8:	68 00       	.word	0x0068	; ????
 2aa:	00 00       	nop
 2ac:	00 00       	nop
 2ae:	00 00       	nop
 2b0:	44 00       	.word	0x0044	; ????
 2b2:	68 00       	.word	0x0068	; ????
 2b4:	68 00       	.word	0x0068	; ????
 2b6:	00 00       	nop
 2b8:	00 00       	nop
 2ba:	00 00       	nop
 2bc:	44 00       	.word	0x0044	; ????
 2be:	69 00       	.word	0x0069	; ????
 2c0:	68 00       	.word	0x0068	; ????
 2c2:	00 00       	nop
 2c4:	00 00       	nop
 2c6:	00 00       	nop
 2c8:	44 00       	.word	0x0044	; ????
 2ca:	6a 00       	.word	0x006a	; ????
 2cc:	68 00       	.word	0x0068	; ????
 2ce:	00 00       	nop
 2d0:	00 00       	nop
 2d2:	00 00       	nop
 2d4:	44 00       	.word	0x0044	; ????
 2d6:	6b 00       	.word	0x006b	; ????
 2d8:	68 00       	.word	0x0068	; ????
 2da:	00 00       	nop
 2dc:	00 00       	nop
 2de:	00 00       	nop
 2e0:	44 00       	.word	0x0044	; ????
 2e2:	6c 00       	.word	0x006c	; ????
 2e4:	68 00       	.word	0x0068	; ????
 2e6:	00 00       	nop
 2e8:	00 00       	nop
 2ea:	00 00       	nop
 2ec:	44 00       	.word	0x0044	; ????
 2ee:	6d 00       	.word	0x006d	; ????
 2f0:	68 00       	.word	0x0068	; ????
 2f2:	00 00       	nop
 2f4:	00 00       	nop
 2f6:	00 00       	nop
 2f8:	44 00       	.word	0x0044	; ????
 2fa:	6e 00       	.word	0x006e	; ????
 2fc:	68 00       	.word	0x0068	; ????
 2fe:	00 00       	nop
 300:	00 00       	nop
 302:	00 00       	nop
 304:	44 00       	.word	0x0044	; ????
 306:	6f 00       	.word	0x006f	; ????
 308:	68 00       	.word	0x0068	; ????
 30a:	00 00       	nop
 30c:	00 00       	nop
 30e:	00 00       	nop
 310:	44 00       	.word	0x0044	; ????
 312:	70 00       	.word	0x0070	; ????
 314:	68 00       	.word	0x0068	; ????
 316:	00 00       	nop
 318:	00 00       	nop
 31a:	00 00       	nop
 31c:	44 00       	.word	0x0044	; ????
 31e:	71 00       	.word	0x0071	; ????
 320:	68 00       	.word	0x0068	; ????
 322:	00 00       	nop
 324:	00 00       	nop
 326:	00 00       	nop
 328:	44 00       	.word	0x0044	; ????
 32a:	72 00       	.word	0x0072	; ????
 32c:	68 00       	.word	0x0068	; ????
 32e:	00 00       	nop
 330:	00 00       	nop
 332:	00 00       	nop
 334:	44 00       	.word	0x0044	; ????
 336:	73 00       	.word	0x0073	; ????
 338:	68 00       	.word	0x0068	; ????
 33a:	00 00       	nop
 33c:	00 00       	nop
 33e:	00 00       	nop
 340:	44 00       	.word	0x0044	; ????
 342:	74 00       	.word	0x0074	; ????
 344:	68 00       	.word	0x0068	; ????
 346:	00 00       	nop
 348:	00 00       	nop
 34a:	00 00       	nop
 34c:	44 00       	.word	0x0044	; ????
 34e:	75 00       	.word	0x0075	; ????
 350:	68 00       	.word	0x0068	; ????
 352:	00 00       	nop
 354:	00 00       	nop
 356:	00 00       	nop
 358:	44 00       	.word	0x0044	; ????
 35a:	76 00       	.word	0x0076	; ????
 35c:	68 00       	.word	0x0068	; ????
 35e:	00 00       	nop
 360:	00 00       	nop
 362:	00 00       	nop
 364:	44 00       	.word	0x0044	; ????
 366:	77 00       	.word	0x0077	; ????
 368:	68 00       	.word	0x0068	; ????
 36a:	00 00       	nop
 36c:	00 00       	nop
 36e:	00 00       	nop
 370:	44 00       	.word	0x0044	; ????
 372:	78 00       	.word	0x0078	; ????
 374:	68 00       	.word	0x0068	; ????
 376:	00 00       	nop
 378:	00 00       	nop
 37a:	00 00       	nop
 37c:	44 00       	.word	0x0044	; ????
 37e:	79 00       	.word	0x0079	; ????
 380:	68 00       	.word	0x0068	; ????
 382:	00 00       	nop
 384:	00 00       	nop
 386:	00 00       	nop
 388:	44 00       	.word	0x0044	; ????
 38a:	7a 00       	.word	0x007a	; ????
 38c:	68 00       	.word	0x0068	; ????
 38e:	00 00       	nop
 390:	00 00       	nop
 392:	00 00       	nop
 394:	44 00       	.word	0x0044	; ????
 396:	7b 00       	.word	0x007b	; ????
 398:	68 00       	.word	0x0068	; ????
 39a:	00 00       	nop
 39c:	00 00       	nop
 39e:	00 00       	nop
 3a0:	44 00       	.word	0x0044	; ????
 3a2:	7c 00       	.word	0x007c	; ????
 3a4:	68 00       	.word	0x0068	; ????
 3a6:	00 00       	nop
 3a8:	00 00       	nop
 3aa:	00 00       	nop
 3ac:	44 00       	.word	0x0044	; ????
 3ae:	7d 00       	.word	0x007d	; ????
 3b0:	68 00       	.word	0x0068	; ????
 3b2:	00 00       	nop
 3b4:	00 00       	nop
 3b6:	00 00       	nop
 3b8:	44 00       	.word	0x0044	; ????
 3ba:	7e 00       	.word	0x007e	; ????
 3bc:	68 00       	.word	0x0068	; ????
 3be:	00 00       	nop
 3c0:	00 00       	nop
 3c2:	00 00       	nop
 3c4:	44 00       	.word	0x0044	; ????
 3c6:	7f 00       	.word	0x007f	; ????
 3c8:	68 00       	.word	0x0068	; ????
 3ca:	00 00       	nop
 3cc:	00 00       	nop
 3ce:	00 00       	nop
 3d0:	44 00       	.word	0x0044	; ????
 3d2:	80 00       	.word	0x0080	; ????
 3d4:	68 00       	.word	0x0068	; ????
 3d6:	00 00       	nop
 3d8:	00 00       	nop
 3da:	00 00       	nop
 3dc:	44 00       	.word	0x0044	; ????
 3de:	81 00       	.word	0x0081	; ????
 3e0:	68 00       	.word	0x0068	; ????
 3e2:	00 00       	nop
 3e4:	00 00       	nop
 3e6:	00 00       	nop
 3e8:	44 00       	.word	0x0044	; ????
 3ea:	82 00       	.word	0x0082	; ????
 3ec:	68 00       	.word	0x0068	; ????
 3ee:	00 00       	nop
 3f0:	00 00       	nop
 3f2:	00 00       	nop
 3f4:	44 00       	.word	0x0044	; ????
 3f6:	83 00       	.word	0x0083	; ????
 3f8:	68 00       	.word	0x0068	; ????
 3fa:	00 00       	nop
 3fc:	00 00       	nop
 3fe:	00 00       	nop
 400:	44 00       	.word	0x0044	; ????
 402:	84 00       	.word	0x0084	; ????
 404:	68 00       	.word	0x0068	; ????
 406:	00 00       	nop
 408:	00 00       	nop
 40a:	00 00       	nop
 40c:	44 00       	.word	0x0044	; ????
 40e:	85 00       	.word	0x0085	; ????
 410:	68 00       	.word	0x0068	; ????
 412:	00 00       	nop
 414:	00 00       	nop
 416:	00 00       	nop
 418:	44 00       	.word	0x0044	; ????
 41a:	86 00       	.word	0x0086	; ????
 41c:	68 00       	.word	0x0068	; ????
 41e:	00 00       	nop
 420:	00 00       	nop
 422:	00 00       	nop
 424:	44 00       	.word	0x0044	; ????
 426:	87 00       	.word	0x0087	; ????
 428:	68 00       	.word	0x0068	; ????
 42a:	00 00       	nop
 42c:	00 00       	nop
 42e:	00 00       	nop
 430:	44 00       	.word	0x0044	; ????
 432:	88 00       	.word	0x0088	; ????
 434:	68 00       	.word	0x0068	; ????
 436:	00 00       	nop
 438:	00 00       	nop
 43a:	00 00       	nop
 43c:	44 00       	.word	0x0044	; ????
 43e:	89 00       	.word	0x0089	; ????
 440:	68 00       	.word	0x0068	; ????
 442:	00 00       	nop
 444:	00 00       	nop
 446:	00 00       	nop
 448:	44 00       	.word	0x0044	; ????
 44a:	8a 00       	.word	0x008a	; ????
 44c:	68 00       	.word	0x0068	; ????
 44e:	00 00       	nop
 450:	00 00       	nop
 452:	00 00       	nop
 454:	44 00       	.word	0x0044	; ????
 456:	8b 00       	.word	0x008b	; ????
 458:	68 00       	.word	0x0068	; ????
 45a:	00 00       	nop
 45c:	00 00       	nop
 45e:	00 00       	nop
 460:	44 00       	.word	0x0044	; ????
 462:	8c 00       	.word	0x008c	; ????
 464:	68 00       	.word	0x0068	; ????
 466:	00 00       	nop
 468:	00 00       	nop
 46a:	00 00       	nop
 46c:	44 00       	.word	0x0044	; ????
 46e:	8d 00       	.word	0x008d	; ????
 470:	68 00       	.word	0x0068	; ????
 472:	00 00       	nop
 474:	00 00       	nop
 476:	00 00       	nop
 478:	44 00       	.word	0x0044	; ????
 47a:	8e 00       	.word	0x008e	; ????
 47c:	68 00       	.word	0x0068	; ????
 47e:	00 00       	nop
 480:	00 00       	nop
 482:	00 00       	nop
 484:	44 00       	.word	0x0044	; ????
 486:	8f 00       	.word	0x008f	; ????
 488:	68 00       	.word	0x0068	; ????
 48a:	00 00       	nop
 48c:	00 00       	nop
 48e:	00 00       	nop
 490:	44 00       	.word	0x0044	; ????
 492:	90 00       	.word	0x0090	; ????
 494:	68 00       	.word	0x0068	; ????
 496:	00 00       	nop
 498:	00 00       	nop
 49a:	00 00       	nop
 49c:	44 00       	.word	0x0044	; ????
 49e:	91 00       	.word	0x0091	; ????
 4a0:	68 00       	.word	0x0068	; ????
 4a2:	00 00       	nop
 4a4:	00 00       	nop
 4a6:	00 00       	nop
 4a8:	44 00       	.word	0x0044	; ????
 4aa:	92 00       	.word	0x0092	; ????
 4ac:	68 00       	.word	0x0068	; ????
 4ae:	00 00       	nop
 4b0:	00 00       	nop
 4b2:	00 00       	nop
 4b4:	44 00       	.word	0x0044	; ????
 4b6:	93 00       	.word	0x0093	; ????
 4b8:	68 00       	.word	0x0068	; ????
 4ba:	00 00       	nop
 4bc:	00 00       	nop
 4be:	00 00       	nop
 4c0:	44 00       	.word	0x0044	; ????
 4c2:	94 00       	.word	0x0094	; ????
 4c4:	68 00       	.word	0x0068	; ????
 4c6:	00 00       	nop
 4c8:	00 00       	nop
 4ca:	00 00       	nop
 4cc:	44 00       	.word	0x0044	; ????
 4ce:	95 00       	.word	0x0095	; ????
 4d0:	68 00       	.word	0x0068	; ????
 4d2:	00 00       	nop
 4d4:	00 00       	nop
 4d6:	00 00       	nop
 4d8:	44 00       	.word	0x0044	; ????
 4da:	96 00       	.word	0x0096	; ????
 4dc:	68 00       	.word	0x0068	; ????
 4de:	00 00       	nop
 4e0:	00 00       	nop
 4e2:	00 00       	nop
 4e4:	44 00       	.word	0x0044	; ????
 4e6:	97 00       	.word	0x0097	; ????
 4e8:	68 00       	.word	0x0068	; ????
 4ea:	00 00       	nop
 4ec:	00 00       	nop
 4ee:	00 00       	nop
 4f0:	44 00       	.word	0x0044	; ????
 4f2:	98 00       	.word	0x0098	; ????
 4f4:	68 00       	.word	0x0068	; ????
 4f6:	00 00       	nop
 4f8:	00 00       	nop
 4fa:	00 00       	nop
 4fc:	44 00       	.word	0x0044	; ????
 4fe:	99 00       	.word	0x0099	; ????
 500:	68 00       	.word	0x0068	; ????
 502:	00 00       	nop
 504:	00 00       	nop
 506:	00 00       	nop
 508:	44 00       	.word	0x0044	; ????
 50a:	9a 00       	.word	0x009a	; ????
 50c:	68 00       	.word	0x0068	; ????
 50e:	00 00       	nop
 510:	00 00       	nop
 512:	00 00       	nop
 514:	44 00       	.word	0x0044	; ????
 516:	9b 00       	.word	0x009b	; ????
 518:	68 00       	.word	0x0068	; ????
 51a:	00 00       	nop
 51c:	00 00       	nop
 51e:	00 00       	nop
 520:	44 00       	.word	0x0044	; ????
 522:	9c 00       	.word	0x009c	; ????
 524:	68 00       	.word	0x0068	; ????
 526:	00 00       	nop
 528:	00 00       	nop
 52a:	00 00       	nop
 52c:	44 00       	.word	0x0044	; ????
 52e:	9d 00       	.word	0x009d	; ????
 530:	68 00       	.word	0x0068	; ????
 532:	00 00       	nop
 534:	00 00       	nop
 536:	00 00       	nop
 538:	44 00       	.word	0x0044	; ????
 53a:	9e 00       	.word	0x009e	; ????
 53c:	68 00       	.word	0x0068	; ????
 53e:	00 00       	nop
 540:	00 00       	nop
 542:	00 00       	nop
 544:	44 00       	.word	0x0044	; ????
 546:	9f 00       	.word	0x009f	; ????
 548:	68 00       	.word	0x0068	; ????
 54a:	00 00       	nop
 54c:	00 00       	nop
 54e:	00 00       	nop
 550:	44 00       	.word	0x0044	; ????
 552:	a0 00       	.word	0x00a0	; ????
 554:	68 00       	.word	0x0068	; ????
 556:	00 00       	nop
 558:	00 00       	nop
 55a:	00 00       	nop
 55c:	44 00       	.word	0x0044	; ????
 55e:	a1 00       	.word	0x00a1	; ????
 560:	68 00       	.word	0x0068	; ????
 562:	00 00       	nop
 564:	00 00       	nop
 566:	00 00       	nop
 568:	44 00       	.word	0x0044	; ????
 56a:	a2 00       	.word	0x00a2	; ????
 56c:	68 00       	.word	0x0068	; ????
 56e:	00 00       	nop
 570:	00 00       	nop
 572:	00 00       	nop
 574:	44 00       	.word	0x0044	; ????
 576:	a3 00       	.word	0x00a3	; ????
 578:	68 00       	.word	0x0068	; ????
 57a:	00 00       	nop
 57c:	00 00       	nop
 57e:	00 00       	nop
 580:	44 00       	.word	0x0044	; ????
 582:	a4 00       	.word	0x00a4	; ????
 584:	68 00       	.word	0x0068	; ????
 586:	00 00       	nop
 588:	00 00       	nop
 58a:	00 00       	nop
 58c:	44 00       	.word	0x0044	; ????
 58e:	a5 00       	.word	0x00a5	; ????
 590:	68 00       	.word	0x0068	; ????
 592:	00 00       	nop
 594:	00 00       	nop
 596:	00 00       	nop
 598:	44 00       	.word	0x0044	; ????
 59a:	a6 00       	.word	0x00a6	; ????
 59c:	68 00       	.word	0x0068	; ????
 59e:	00 00       	nop
 5a0:	00 00       	nop
 5a2:	00 00       	nop
 5a4:	44 00       	.word	0x0044	; ????
 5a6:	a7 00       	.word	0x00a7	; ????
 5a8:	68 00       	.word	0x0068	; ????
 5aa:	00 00       	nop
 5ac:	00 00       	nop
 5ae:	00 00       	nop
 5b0:	44 00       	.word	0x0044	; ????
 5b2:	a8 00       	.word	0x00a8	; ????
 5b4:	68 00       	.word	0x0068	; ????
 5b6:	00 00       	nop
 5b8:	00 00       	nop
 5ba:	00 00       	nop
 5bc:	44 00       	.word	0x0044	; ????
 5be:	a9 00       	.word	0x00a9	; ????
 5c0:	68 00       	.word	0x0068	; ????
 5c2:	00 00       	nop
 5c4:	00 00       	nop
 5c6:	00 00       	nop
 5c8:	44 00       	.word	0x0044	; ????
 5ca:	aa 00       	.word	0x00aa	; ????
 5cc:	68 00       	.word	0x0068	; ????
 5ce:	00 00       	nop
 5d0:	00 00       	nop
 5d2:	00 00       	nop
 5d4:	44 00       	.word	0x0044	; ????
 5d6:	ab 00       	.word	0x00ab	; ????
 5d8:	68 00       	.word	0x0068	; ????
 5da:	00 00       	nop
 5dc:	00 00       	nop
 5de:	00 00       	nop
 5e0:	44 00       	.word	0x0044	; ????
 5e2:	ac 00       	.word	0x00ac	; ????
 5e4:	68 00       	.word	0x0068	; ????
 5e6:	00 00       	nop
 5e8:	00 00       	nop
 5ea:	00 00       	nop
 5ec:	44 00       	.word	0x0044	; ????
 5ee:	ad 00       	.word	0x00ad	; ????
 5f0:	68 00       	.word	0x0068	; ????
 5f2:	00 00       	nop
 5f4:	00 00       	nop
 5f6:	00 00       	nop
 5f8:	44 00       	.word	0x0044	; ????
 5fa:	ae 00       	.word	0x00ae	; ????
 5fc:	68 00       	.word	0x0068	; ????
 5fe:	00 00       	nop
 600:	00 00       	nop
 602:	00 00       	nop
 604:	44 00       	.word	0x0044	; ????
 606:	af 00       	.word	0x00af	; ????
 608:	68 00       	.word	0x0068	; ????
 60a:	00 00       	nop
 60c:	00 00       	nop
 60e:	00 00       	nop
 610:	44 00       	.word	0x0044	; ????
 612:	b0 00       	.word	0x00b0	; ????
 614:	68 00       	.word	0x0068	; ????
 616:	00 00       	nop
 618:	00 00       	nop
 61a:	00 00       	nop
 61c:	44 00       	.word	0x0044	; ????
 61e:	b1 00       	.word	0x00b1	; ????
 620:	68 00       	.word	0x0068	; ????
 622:	00 00       	nop
 624:	00 00       	nop
 626:	00 00       	nop
 628:	24 00       	.word	0x0024	; ????
 62a:	00 00       	nop
 62c:	68 00       	.word	0x0068	; ????
 62e:	00 00       	nop
 630:	6f 00       	.word	0x006f	; ????
 632:	00 00       	nop
 634:	24 00       	.word	0x0024	; ????
 636:	be 00       	.word	0x00be	; ????
 638:	cc 05       	cpc	r28, r12
 63a:	00 00       	nop
 63c:	00 00       	nop
 63e:	00 00       	nop
 640:	44 00       	.word	0x0044	; ????
 642:	c1 00       	.word	0x00c1	; ????
	...
 64c:	24 00       	.word	0x0024	; ????
 64e:	00 00       	nop
 650:	04 00       	.word	0x0004	; ????
 652:	00 00       	nop
 654:	00 00       	nop
 656:	00 00       	nop
 658:	44 00       	.word	0x0044	; ????
 65a:	d6 00       	.word	0x00d6	; ????
 65c:	a8 05       	cpc	r26, r8
 65e:	00 00       	nop
 660:	00 00       	nop
 662:	00 00       	nop
 664:	44 00       	.word	0x0044	; ????
 666:	d7 00       	.word	0x00d7	; ????
 668:	aa 05       	cpc	r26, r10
 66a:	00 00       	nop
 66c:	00 00       	nop
 66e:	00 00       	nop
 670:	44 00       	.word	0x0044	; ????
 672:	d8 00       	.word	0x00d8	; ????
 674:	ac 05       	cpc	r26, r12
 676:	00 00       	nop
 678:	00 00       	nop
 67a:	00 00       	nop
 67c:	44 00       	.word	0x0044	; ????
 67e:	da 00       	.word	0x00da	; ????
 680:	ae 05       	cpc	r26, r14
 682:	00 00       	nop
 684:	00 00       	nop
 686:	00 00       	nop
 688:	44 00       	.word	0x0044	; ????
 68a:	db 00       	.word	0x00db	; ????
 68c:	b0 05       	cpc	r27, r0
 68e:	00 00       	nop
 690:	00 00       	nop
 692:	00 00       	nop
 694:	44 00       	.word	0x0044	; ????
 696:	dd 00       	.word	0x00dd	; ????
 698:	b2 05       	cpc	r27, r2
 69a:	00 00       	nop
 69c:	00 00       	nop
 69e:	00 00       	nop
 6a0:	44 00       	.word	0x0044	; ????
 6a2:	20 01       	movw	r4, r0
 6a4:	c4 05       	cpc	r28, r4
 6a6:	00 00       	nop
 6a8:	00 00       	nop
 6aa:	00 00       	nop
 6ac:	44 00       	.word	0x0044	; ????
 6ae:	21 01       	movw	r4, r2
 6b0:	c8 05       	cpc	r28, r8
 6b2:	00 00       	nop
 6b4:	82 00       	.word	0x0082	; ????
 6b6:	00 00       	nop
 6b8:	64 00       	.word	0x0064	; ????
 6ba:	00 00       	nop
 6bc:	e2 25       	eor	r30, r2
 6be:	00 00       	nop
 6c0:	c0 00       	.word	0x00c0	; ????
 6c2:	00 00       	nop
 6c4:	84 00       	.word	0x0084	; ????
 6c6:	00 00       	nop
 6c8:	e2 25       	eor	r30, r2
 6ca:	00 00       	nop
 6cc:	00 00       	nop
 6ce:	00 00       	nop
 6d0:	44 00       	.word	0x0044	; ????
 6d2:	3d 00       	.word	0x003d	; ????
 6d4:	e2 25       	eor	r30, r2
 6d6:	00 00       	nop
 6d8:	00 00       	nop
 6da:	00 00       	nop
 6dc:	44 00       	.word	0x0044	; ????
 6de:	74 00       	.word	0x0074	; ????
 6e0:	e2 25       	eor	r30, r2
 6e2:	00 00       	nop
 6e4:	00 00       	nop
 6e6:	00 00       	nop
 6e8:	44 00       	.word	0x0044	; ????
 6ea:	76 00       	.word	0x0076	; ????
 6ec:	e2 25       	eor	r30, r2
 6ee:	00 00       	nop
 6f0:	00 00       	nop
 6f2:	00 00       	nop
 6f4:	44 00       	.word	0x0044	; ????
 6f6:	77 00       	.word	0x0077	; ????
 6f8:	e4 25       	eor	r30, r4
 6fa:	00 00       	nop
 6fc:	00 00       	nop
 6fe:	00 00       	nop
 700:	44 00       	.word	0x0044	; ????
 702:	79 00       	.word	0x0079	; ????
 704:	e6 25       	eor	r30, r6
 706:	00 00       	nop
 708:	00 00       	nop
 70a:	00 00       	nop
 70c:	44 00       	.word	0x0044	; ????
 70e:	7a 00       	.word	0x007a	; ????
 710:	e6 25       	eor	r30, r6
 712:	00 00       	nop
 714:	00 00       	nop
 716:	00 00       	nop
 718:	44 00       	.word	0x0044	; ????
 71a:	7b 00       	.word	0x007b	; ????
 71c:	e8 25       	eor	r30, r8
 71e:	00 00       	nop
 720:	00 00       	nop
 722:	00 00       	nop
 724:	44 00       	.word	0x0044	; ????
 726:	7c 00       	.word	0x007c	; ????
 728:	ea 25       	eor	r30, r10
 72a:	00 00       	nop
 72c:	00 00       	nop
 72e:	00 00       	nop
 730:	44 00       	.word	0x0044	; ????
 732:	7d 00       	.word	0x007d	; ????
 734:	ec 25       	eor	r30, r12
 736:	00 00       	nop
 738:	00 00       	nop
 73a:	00 00       	nop
 73c:	44 00       	.word	0x0044	; ????
 73e:	7e 00       	.word	0x007e	; ????
 740:	ee 25       	eor	r30, r14
 742:	00 00       	nop
 744:	00 00       	nop
 746:	00 00       	nop
 748:	44 00       	.word	0x0044	; ????
 74a:	7f 00       	.word	0x007f	; ????
 74c:	f0 25       	eor	r31, r0
 74e:	00 00       	nop
 750:	00 00       	nop
 752:	00 00       	nop
 754:	44 00       	.word	0x0044	; ????
 756:	80 00       	.word	0x0080	; ????
 758:	f2 25       	eor	r31, r2
 75a:	00 00       	nop
 75c:	00 00       	nop
 75e:	00 00       	nop
 760:	44 00       	.word	0x0044	; ????
 762:	81 00       	.word	0x0081	; ????
 764:	f4 25       	eor	r31, r4
 766:	00 00       	nop
 768:	00 00       	nop
 76a:	00 00       	nop
 76c:	44 00       	.word	0x0044	; ????
 76e:	82 00       	.word	0x0082	; ????
 770:	f6 25       	eor	r31, r6
 772:	00 00       	nop
 774:	00 00       	nop
 776:	00 00       	nop
 778:	44 00       	.word	0x0044	; ????
 77a:	83 00       	.word	0x0083	; ????
 77c:	f8 25       	eor	r31, r8
 77e:	00 00       	nop
 780:	00 00       	nop
 782:	00 00       	nop
 784:	44 00       	.word	0x0044	; ????
 786:	84 00       	.word	0x0084	; ????
 788:	fa 25       	eor	r31, r10
 78a:	00 00       	nop
 78c:	00 00       	nop
 78e:	00 00       	nop
 790:	44 00       	.word	0x0044	; ????
 792:	85 00       	.word	0x0085	; ????
 794:	fc 25       	eor	r31, r12
 796:	00 00       	nop
 798:	00 00       	nop
 79a:	00 00       	nop
 79c:	44 00       	.word	0x0044	; ????
 79e:	86 00       	.word	0x0086	; ????
 7a0:	fe 25       	eor	r31, r14
 7a2:	00 00       	nop
 7a4:	00 00       	nop
 7a6:	00 00       	nop
 7a8:	44 00       	.word	0x0044	; ????
 7aa:	87 00       	.word	0x0087	; ????
 7ac:	00 26       	eor	r0, r16
 7ae:	00 00       	nop
 7b0:	00 00       	nop
 7b2:	00 00       	nop
 7b4:	44 00       	.word	0x0044	; ????
 7b6:	8b 00       	.word	0x008b	; ????
 7b8:	02 26       	eor	r0, r18
	...

Disassembly of section .stabstr:

00000000 <.stabstr>:
   0:	00 2f       	mov	r16, r16
   2:	76 61       	ori	r23, 0x16	; 22
   4:	72 2f       	mov	r23, r18
   6:	66 6f       	ori	r22, 0xF6	; 246
   8:	6c 64       	ori	r22, 0x4C	; 76
   a:	65 72       	andi	r22, 0x25	; 37
   c:	73 2f       	mov	r23, r19
   e:	67 66       	ori	r22, 0x67	; 103
  10:	2f 67       	ori	r18, 0x7F	; 127
  12:	66 56       	subi	r22, 0x66	; 102
  14:	36 4d       	sbci	r19, 0xD6	; 214
  16:	6c 75       	andi	r22, 0x5C	; 92
  18:	43 45       	sbci	r20, 0x53	; 83
  1a:	6e 4f       	sbci	r22, 0xFE	; 254
  1c:	6a 6e       	ori	r22, 0xEA	; 234
  1e:	44 77       	andi	r20, 0x74	; 116
  20:	56 33       	cpi	r21, 0x36	; 54
  22:	55 2d       	mov	r21, r5
  24:	7a 76       	andi	r23, 0x6A	; 106
  26:	55 2b       	or	r21, r21
  28:	2b 2b       	or	r18, r27
  2a:	54 49       	sbci	r21, 0x94	; 148
  2c:	2f 2d       	mov	r18, r15
  2e:	54 6d       	ori	r21, 0xD4	; 212
  30:	70 2d       	mov	r23, r0
  32:	2f 2f       	mov	r18, r31
  34:	63 63       	ori	r22, 0x33	; 51
  36:	62 62       	ori	r22, 0x22	; 34
  38:	48 39       	cpi	r20, 0x98	; 152
  3a:	47 50       	subi	r20, 0x07	; 7
  3c:	2e 73       	andi	r18, 0x3E	; 62
  3e:	00 76       	andi	r16, 0x60	; 96
  40:	6f 69       	ori	r22, 0x9F	; 159
  42:	64 3a       	cpi	r22, 0xA4	; 164
  44:	74 31       	cpi	r23, 0x14	; 20
  46:	3d 31       	cpi	r19, 0x1D	; 29
  48:	00 5f       	subi	r16, 0xF0	; 240
  4a:	5f 76       	andi	r21, 0x6F	; 111
  4c:	65 63       	ori	r22, 0x35	; 53
  4e:	74 6f       	ori	r23, 0xF4	; 244
  50:	72 73       	andi	r23, 0x32	; 50
  52:	3a 46       	sbci	r19, 0x6A	; 106
  54:	31 00       	.word	0x0031	; ????
  56:	2e 2e       	mov	r2, r30
  58:	2f 2e       	mov	r2, r31
  5a:	2e 2f       	mov	r18, r30
  5c:	2e 2e       	mov	r2, r30
  5e:	2f 2e       	mov	r2, r31
  60:	2e 2f       	mov	r18, r30
  62:	63 72       	andi	r22, 0x23	; 35
  64:	74 31       	cpi	r23, 0x14	; 20
  66:	2f 67       	ori	r18, 0x7F	; 127
  68:	63 72       	andi	r22, 0x23	; 35
  6a:	74 31       	cpi	r23, 0x14	; 20
  6c:	2e 53       	subi	r18, 0x3E	; 62
  6e:	00 5f       	subi	r16, 0xF0	; 240
  70:	5f 62       	ori	r21, 0x2F	; 47
  72:	61 64       	ori	r22, 0x41	; 65
  74:	5f 69       	ori	r21, 0x9F	; 159
  76:	6e 74       	andi	r22, 0x4E	; 78
  78:	65 72       	andi	r22, 0x25	; 37
  7a:	72 75       	andi	r23, 0x52	; 82
  7c:	70 74       	andi	r23, 0x40	; 64
  7e:	3a 46       	sbci	r19, 0x6A	; 106
  80:	31 00       	.word	0x0031	; ????
  82:	2f 76       	andi	r18, 0x6F	; 111
  84:	61 72       	andi	r22, 0x21	; 33
  86:	2f 66       	ori	r18, 0x6F	; 111
  88:	6f 6c       	ori	r22, 0xCF	; 207
  8a:	64 65       	ori	r22, 0x54	; 84
  8c:	72 73       	andi	r23, 0x32	; 50
  8e:	2f 67       	ori	r18, 0x7F	; 127
  90:	66 2f       	mov	r22, r22
  92:	67 66       	ori	r22, 0x67	; 103
  94:	56 36       	cpi	r21, 0x66	; 102
  96:	4d 6c       	ori	r20, 0xCD	; 205
  98:	75 43       	sbci	r23, 0x35	; 53
  9a:	45 6e       	ori	r20, 0xE5	; 229
  9c:	4f 6a       	ori	r20, 0xAF	; 175
  9e:	6e 44       	sbci	r22, 0x4E	; 78
  a0:	77 56       	subi	r23, 0x67	; 103
  a2:	33 55       	subi	r19, 0x53	; 83
  a4:	2d 7a       	andi	r18, 0xAD	; 173
  a6:	76 55       	subi	r23, 0x56	; 86
  a8:	2b 2b       	or	r18, r27
  aa:	2b 54       	subi	r18, 0x4B	; 75
  ac:	49 2f       	mov	r20, r25
  ae:	2d 54       	subi	r18, 0x4D	; 77
  b0:	6d 70       	andi	r22, 0x0D	; 13
  b2:	2d 2f       	mov	r18, r29
  b4:	2f 63       	ori	r18, 0x3F	; 63
  b6:	63 54       	subi	r22, 0x43	; 67
  b8:	52 68       	ori	r21, 0x82	; 130
  ba:	51 69       	ori	r21, 0x91	; 145
  bc:	41 2e       	mov	r4, r17
  be:	73 00       	.word	0x0073	; ????
  c0:	2e 2e       	mov	r2, r30
  c2:	2f 2e       	mov	r2, r31
  c4:	2e 2f       	mov	r18, r30
  c6:	2e 2e       	mov	r2, r30
  c8:	2f 6c       	ori	r18, 0xCF	; 207
  ca:	69 62       	ori	r22, 0x29	; 41
  cc:	63 2f       	mov	r22, r19
  ce:	6d 69       	ori	r22, 0x9D	; 157
  d0:	73 63       	ori	r23, 0x33	; 51
  d2:	2f 65       	ori	r18, 0x5F	; 95
  d4:	65 72       	andi	r22, 0x25	; 37
  d6:	64 5f       	subi	r22, 0xF4	; 244
  d8:	62 6c       	ori	r22, 0xC2	; 194
  da:	6f 63       	ori	r22, 0x3F	; 63
  dc:	6b 2e       	mov	r6, r27
  de:	53 00       	.word	0x0053	; ????
